Sjasm Z80 Assembler v0.42c - www.xl2s.tk             [2015.04.01 - 23:52:52]

main.asm
Errors: 0

       1   00:0000                      ;----------------------------------------------------------------------------
       2   00:0000                      ;----------------------------------------------------------------------------
       3   00:0000                      
       4   00:0000                              output "urd_scr8.rom"
       5   00:0000                      
       6   00:0000                      		defpage	 0,0x4000, 0x2000		; page 0 main code + far call routines
       7   00:0000                      		defpage	 1,0x6000, 0x2000		; page 1 main code + far call routines
       8   00:0000                      		defpage	 2,0x8000, 0x2000		; swapped data 
       9   00:0000                      		defpage	 3,0xA000, 0x2000		; swapped data 
      10   00:0000                      		
      11   00:0000                      		defpage	 4,0xA000, 0x2000		; swapped data 
      12   00:0000                      		defpage	 5..11					; 64KB of swapped data 
      13   00:0000                      
      14   00:0000                      		defpage	12,0x4000, 0x2000		; swapped code
      15   00:0000                      		defpage	13,0x6000, 0x2000		; swapped code 
      16   00:0000                      
      17   00:0000                      		defpage	14,0x8000, 0x2000		; swapped data 
      18   00:0000                      		defpage	15,0xA000, 0x2000		; swapped data 
      19   00:0000                      
      20   00:0000                      		;	konami scc
      21   00:0000                      		
      22   00:0000  (00:5000)           _kBank1:	equ 05000h ;- 57FFh (5000h used)
      23   00:0000  (00:7000)           _kBank2: 	equ 07000h ;- 77FFh (7000h used)
      24   00:0000  (00:9000)           _kBank3: 	equ 09000h ;- 97FFh (9000h used)
      25   00:0000  (00:B000)           _kBank4: 	equ 0B000h ;- B7FFh (B000h used)
      26   00:0000                      	
      27   00:0000  (00:0080)           mapWidth	equ	128
      28   00:0000  (00:000B)           mapHeight	equ	11
      29   00:0000                      		
      30   00:0000                      	macro setpage_a
      31   00:0000                    < 		ld	(_kBank3),a
      32   00:0000                    < 		inc	a
      33   00:0000                    < 		ld	(_kBank4),a
      34   00:0000                    < 	endmacro
      35   00:0000                        
      36   00:0000  (00)                		page 0
      37   00:4000                      		
      38   00:4000                              org 4000h
      39   00:4000                              dw  4241h,START,0,0,0,0,0,0
      39   00:4000  41 42 A6 43 00 00 00 00 00 00 00 00 00 00 00 00 
      40   00:4010                      
      41   00:4010                      		include "header.asm"
       1.  00:4010                      
       2.  00:4010  (00:00B0)           YSIZE	equ	176
      42   00:4010                      		include "rominit64.asm"
       1.  00:4010                      
       2.  00:4010                      ;;;;;;;;;;;;;;;;;;;;;;;;;;;;;;;;;;;;;;;;;;;;;;;;;;;;;;;;;;;;;;;;;;;;;;
       3.  00:4010                      ; set pages and subslot
       4.  00:4010                      ;
       5.  00:4010                      
       6.  00:4010                      
       7.  00:4010  (00:0024)           ENASLT:			equ		024h
       8.  00:4010  (00:0138)           RSLREG:			equ		0138h
       9.  00:4010  (00:FCC1)           EXPTBL:			equ		0FCC1h	; Bios Slot / Expansion Slot
      10.  00:4010                      
      11.  00:4010                      
      12.  00:4010                      ; ----------------------------
      13.  00:4010                      ; pre-set main slot for page 3
      14.  00:4010                      ; and set sub-slot for page 3
      15.  00:4010                      ; ----------------------------
      16.  00:4010                      	macro	mainslot_setup n
      17.  00:4010                    < 	and		3
      18.  00:4010                    < [2]	rrca
      19.  00:4010                    < 	and		0xC0
      20.  00:4010                    < 	ld		c,a
      21.  00:4010                    < 	ld		a,d
      22.  00:4010                    < 	and		0x3F
      23.  00:4010                    < 	or		c
      24.  00:4010                    < 	ld		c,a					; Primary slot value with main slot in page 3
      25.  00:4010                    < 
      26.  00:4010                    < 	ld		a,b
      27.  00:4010                    < 	and		0x0C
      28.  00:4010                    < [2]	rrca
      29.  00:4010                    < 	and		3
      30.  00:4010                    < 	ld		b,a					; B = Expanded slot in page 3
      31.  00:4010                    < 	ld		a,c
      32.  00:4010                    < 	out		(0A8h),a			; Slot : Main Slot, xx, xx, Main slot
      33.  00:4010                    < 	ld		a,(0FFFFh)
      34.  00:4010                    < 	cpl
      35.  00:4010                    < 	if (n<=4)
      36.  00:4010                    < [n]	RLCA
      37.  00:4010                    < 	else
      38.  00:4010                    < [8-n] RRCA	
      39.  00:4010                    < 	endif
      40.  00:4010                    < 	and		0xFC
      41.  00:4010                    < 	or		b
      42.  00:4010                    < 	if (n<=4)
      43.  00:4010                    < [n]	RRCA
      44.  00:4010                    < 	else
      45.  00:4010                    < [8-n] RLCA
      46.  00:4010                    < 	endif
      47.  00:4010                    < 	ld		(0FFFFh),a		; Expanded slot selected
      48.  00:4010                    < 	ld		b,a				; save for later	
      49.  00:4010                    < 	endmacro
      50.  00:4010                      		
      51.  00:4010                      
      52.  00:4010                      ; ------------------------------
      53.  00:4010                      ; SEARCH_SLOT
      54.  00:4010                      ; look for the slot of our rom
      55.  00:4010                      ; active in page 1
      56.  00:4010                      ; ------------------------------
      57.  00:4010                      
      58.  00:4010                      search_slot:
      59.  00:4010  CD 38 01            	call	RSLREG
      60.  00:4013  0F 0F               [2]	rrca
      61.  00:4015  E6 03               	and		3
      62.  00:4017  4F                  	ld		c,a
      63.  00:4018  06 00               	ld		b,0
      64.  00:401A  21 C1 FC            	ld		hl,EXPTBL
      65.  00:401D  09                  	add		hl,bc
      66.  00:401E  7E                  	ld		a,(hl)
      67.  00:401F  E6 80               	and		080h
      68.  00:4021  B1                  	or		c
      69.  00:4022  4F                  	ld		c,a
      70.  00:4023  23 23 23 23         [4]	inc		hl
      71.  00:4027  7E                  	ld		a,(hl)
      72.  00:4028  E6 0C               	and		0Ch
      73.  00:402A  B1                  	or		c
      74.  00:402B  32 0D CB            	ld		(slotvar),a
      75.  00:402E  C9                  	ret
      76.  00:402F                      	
      77.  00:402F                      ; ------------------------------
      78.  00:402F                      ; look for the slot of ram
      79.  00:402F                      ; active in page 3
      80.  00:402F                      ; ------------------------------
      81.  00:402F                      
      82.  00:402F                      search_slotram:
      83.  00:402F  F3                  	di
      84.  00:4030  CD 38 01            	call	RSLREG
      85.  00:4033  07 07               [2]	rlca
      86.  00:4035  E6 03               	and		3
      87.  00:4037  4F                  	ld		c,a
      88.  00:4038  06 00               	ld		b,0
      89.  00:403A  21 C1 FC            	ld		hl,EXPTBL
      90.  00:403D  09                  	add		hl,bc
      91.  00:403E  7E                  	ld		a,(hl)
      92.  00:403F  E6 80               	and		080h
      93.  00:4041  28 0D               	jr		z,search_slotram0
      94.  00:4043  B1                  	or		c
      95.  00:4044  4F                  	ld		c,a
      96.  00:4045  23 23 23 23         [4]	inc		hl
      97.  00:4049  7E                  	ld		a,(hl)
      98.  00:404A  07 07 07 07         [4]	rlca
      99.  00:404E  E6 0C               	and		0Ch
     100.  00:4050                      search_slotram0:
     101.  00:4050  B1                  	or		c
     102.  00:4051  32 0E CB            	ld		(slotram),a
     103.  00:4054  C9                  	ret
     104.  00:4055                      	
     105.  00:4055                      ; ------------------------------
     106.  00:4055                      ; SETROMPAGE0
     107.  00:4055                      ; Set the chart in
     108.  00:4055                      ; Page 0
     109.  00:4055                      ; -----------------------------
     110.  00:4055                      
     111.  00:4055                      setrompage0:
     112.  00:4055  3A 0D CB            	ld		a,(slotvar)
     113.  00:4058  C3 7C 40            	jp		setslotpage0
     114.  00:405B                      
     115.  00:405B                      setrampage0:
     116.  00:405B  3A 0E CB            	ld		a,(slotram)
     117.  00:405E  C3 7C 40            	jp		setslotpage0
     118.  00:4061                      
     119.  00:4061                      setrompage2:
     120.  00:4061  3A 0D CB            	ld		a,(slotvar)
     121.  00:4064  C3 F2 40            	jp		setslotpage2
     122.  00:4067                      
     123.  00:4067                      setrampage2:
     124.  00:4067  3A 0E CB            	ld		a,(slotram)
     125.  00:406A  C3 F2 40            	jp		setslotpage2
     126.  00:406D                      	
     127.  00:406D                      setrompage3:
     128.  00:406D  3A 0D CB            	ld		a,(slotvar)
     129.  00:4070  C3 39 41            	jp		setslotpage3
     130.  00:4073                      
     131.  00:4073                      setrampage3:
     132.  00:4073  3A 0E CB            	ld		a,(slotram)
     133.  00:4076  C3 39 41            	jp		setslotpage3
     134.  00:4079                      	
     135.  00:4079                      ; ------------------------------
     136.  00:4079                      ; RECBIOS
     137.  00:4079                      ; set the bios ROM
     138.  00:4079                      ; -------------------------------
     139.  00:4079                      recbios:
     140.  00:4079  3A C1 FC            	ld		a,(EXPTBL)
     141.  00:407C                      
     142.  00:407C                      ; ---------------------------
     143.  00:407C                      ; SETSLOTPAGE0
     144.  00:407C                      ; Set the slot passed in A
     145.  00:407C                      ; at page 0 in the Z80 address space
     146.  00:407C                      ; A: Format FxxxSSPP
     147.  00:407C                      ; ----------------------------
     148.  00:407C                      
     149.  00:407C                      setslotpage0:
     150.  00:407C  F3                  	di
     151.  00:407D  47                  	ld		b,a					; B = Slot param in FxxxSSPP format
     152.  00:407E  DB A8               	in		a,(0A8h)
     153.  00:4080  E6 FC               	and		0xFC
     154.  00:4082  57                  	ld		d,a					; D = Primary slot value
     155.  00:4083  78                  	ld		a,b
     156.  00:4084  E6 03               	and		3
     157.  00:4086  B2                  	or		d
     158.  00:4087  57                  	ld		d,a		; D = Final Value for primary slot
     159.  00:4088  78                  	ld		a,b		; Check if expanded
     160.  00:4089  CB 7F               	bit		7,a
     161.  00:408B  28 22               	jr		z,1f	; Not Expanded
     162.  00:408D                      	mainslot_setup	0
     162.  00:408D  E6 03             >  and  3
     162.  00:408F  0F 0F             > [2] rrca
     162.  00:4091  E6 C0             >  and  0xC0
     162.  00:4093  4F                >  ld  c,a
     162.  00:4094  7A                >  ld  a,d
     162.  00:4095  E6 3F             >  and  0x3F
     162.  00:4097  B1                >  or  c
     162.  00:4098  4F                >  ld  c,a
     162.  00:4099                    > 
     162.  00:4099  78                >  ld  a,b
     162.  00:409A  E6 0C             >  and  0x0C
     162.  00:409C  0F 0F             > [2] rrca
     162.  00:409E  E6 03             >  and  3
     162.  00:40A0  47                >  ld  b,a
     162.  00:40A1  79                >  ld  a,c
     162.  00:40A2  D3 A8             >  out  (0A8h),a
     162.  00:40A4  3A FF FF          >  ld  a,(0FFFFh)
     162.  00:40A7  2F                >  cpl
     162.  00:40A8                    >  if (n<=4)
     162.  00:40A8                    > [n] RLCA
     162.  00:40A8                    >  else
     162.  00:40A8                    ~ [8-n] RRCA
     162.  00:40A8                    ~  endif
     162.  00:40A8  E6 FC             >  and  0xFC
     162.  00:40AA  B0                >  or  b
     162.  00:40AB                    >  if (n<=4)
     162.  00:40AB                    > [n] RRCA
     162.  00:40AB                    >  else
     162.  00:40AB                    ~ [8-n] RLCA
     162.  00:40AB                    ~  endif
     162.  00:40AB  32 FF FF          >  ld  (0FFFFh),a
     162.  00:40AE  47                >  ld  b,a
     163.  00:40AF  7A                  1:	ld		a,d				; A = Final value
     164.  00:40B0  D3 A8               	out		(0A8h),a		; Slot Final. Ram, rom c, rom c, Main
     165.  00:40B2  C9                  	ret
     166.  00:40B3                      
     167.  00:40B3                      ; ---------------------------
     168.  00:40B3                      ; SETSLOTPAGE1
     169.  00:40B3                      ; Set the slot passed in A
     170.  00:40B3                      ; at page 1 in the Z80 address space
     171.  00:40B3                      ; A: Format FxxxSSPP
     172.  00:40B3                      ; ----------------------------
     173.  00:40B3                      
     174.  00:40B3                      setslotpage1:
     175.  00:40B3  F3                  	di
     176.  00:40B4  47                  	ld		b,a					; B = Slot param in FxxxSSPP format
     177.  00:40B5  DB A8               	in		a,(0A8h)
     178.  00:40B7  0F 0F               [2]	RRCA
     179.  00:40B9  E6 FC               	and		0xFC
     180.  00:40BB  57                  	ld		d,a					; D = Primary slot value
     181.  00:40BC  78                  	ld		a,b
     182.  00:40BD  E6 03               	and		3
     183.  00:40BF  B2                  	or		d
     184.  00:40C0  07 07               [2]	RLCA
     185.  00:40C2  57                  	ld		d,a		; D = Final Value for primary slot
     186.  00:40C3  78                  	ld		a,b		; Check if expanded
     187.  00:40C4  CB 7F               	bit		7,a
     188.  00:40C6  28 26               	jr		z,1f	; Not Expanded
     189.  00:40C8                      	mainslot_setup	6
     189.  00:40C8  E6 03             >  and  3
     189.  00:40CA  0F 0F             > [2] rrca
     189.  00:40CC  E6 C0             >  and  0xC0
     189.  00:40CE  4F                >  ld  c,a
     189.  00:40CF  7A                >  ld  a,d
     189.  00:40D0  E6 3F             >  and  0x3F
     189.  00:40D2  B1                >  or  c
     189.  00:40D3  4F                >  ld  c,a
     189.  00:40D4                    > 
     189.  00:40D4  78                >  ld  a,b
     189.  00:40D5  E6 0C             >  and  0x0C
     189.  00:40D7  0F 0F             > [2] rrca
     189.  00:40D9  E6 03             >  and  3
     189.  00:40DB  47                >  ld  b,a
     189.  00:40DC  79                >  ld  a,c
     189.  00:40DD  D3 A8             >  out  (0A8h),a
     189.  00:40DF  3A FF FF          >  ld  a,(0FFFFh)
     189.  00:40E2  2F                >  cpl
     189.  00:40E3                    >  if (n<=4)
     189.  00:40E3                    ~ [n] RLCA
     189.  00:40E3                    ~  else
     189.  00:40E3  0F 0F             > [8-n] RRCA
     189.  00:40E5                    >  endif
     189.  00:40E5  E6 FC             >  and  0xFC
     189.  00:40E7  B0                >  or  b
     189.  00:40E8                    >  if (n<=4)
     189.  00:40E8                    ~ [n] RRCA
     189.  00:40E8                    ~  else
     189.  00:40E8  07 07             > [8-n] RLCA
     189.  00:40EA                    >  endif
     189.  00:40EA  32 FF FF          >  ld  (0FFFFh),a
     189.  00:40ED  47                >  ld  b,a
     190.  00:40EE  7A                  1:	ld		a,d				; A = Final value
     191.  00:40EF  D3 A8               	out		(0A8h),a		; Slot Final. Ram, rom c, rom c, Main
     192.  00:40F1  C9                  	ret
     193.  00:40F2                      	
     194.  00:40F2                      
     195.  00:40F2                      ; ---------------------------
     196.  00:40F2                      ; SETSLOTPAGE2
     197.  00:40F2                      ; Set the slot passed in A
     198.  00:40F2                      ; at page 2 in the Z80 address space
     199.  00:40F2                      ; A: Format FxxxSSPP
     200.  00:40F2                      ; ----------------------------
     201.  00:40F2                      
     202.  00:40F2                      setslotpage2:
     203.  00:40F2  F3                  	di
     204.  00:40F3  47                  	ld		b,a					; B = Slot param in FxxxSSPP format
     205.  00:40F4  DB A8               	in		a,(0A8h)
     206.  00:40F6  07 07 07 07         [4]	RLCA
     207.  00:40FA  E6 FC               	and		0xFC
     208.  00:40FC  57                  	ld		d,a					; D = Primary slot value
     209.  00:40FD  78                  	ld		a,b
     210.  00:40FE  E6 03               	and		3
     211.  00:4100  B2                  	or		d
     212.  00:4101  0F 0F 0F 0F         [4]	RRCA
     213.  00:4105  57                  	ld		d,a		; D = Final Value for primary slot
     214.  00:4106  78                  	ld		a,b		; Check if expanded
     215.  00:4107  CB 7F               	bit		7,a
     216.  00:4109  28 2A               	jr		z,1f	; Not Expanded
     217.  00:410B                      	mainslot_setup	4
     217.  00:410B  E6 03             >  and  3
     217.  00:410D  0F 0F             > [2] rrca
     217.  00:410F  E6 C0             >  and  0xC0
     217.  00:4111  4F                >  ld  c,a
     217.  00:4112  7A                >  ld  a,d
     217.  00:4113  E6 3F             >  and  0x3F
     217.  00:4115  B1                >  or  c
     217.  00:4116  4F                >  ld  c,a
     217.  00:4117                    > 
     217.  00:4117  78                >  ld  a,b
     217.  00:4118  E6 0C             >  and  0x0C
     217.  00:411A  0F 0F             > [2] rrca
     217.  00:411C  E6 03             >  and  3
     217.  00:411E  47                >  ld  b,a
     217.  00:411F  79                >  ld  a,c
     217.  00:4120  D3 A8             >  out  (0A8h),a
     217.  00:4122  3A FF FF          >  ld  a,(0FFFFh)
     217.  00:4125  2F                >  cpl
     217.  00:4126                    >  if (n<=4)
     217.  00:4126  07 07 07 07       > [n] RLCA
     217.  00:412A                    >  else
     217.  00:412A                    ~ [8-n] RRCA
     217.  00:412A                    ~  endif
     217.  00:412A  E6 FC             >  and  0xFC
     217.  00:412C  B0                >  or  b
     217.  00:412D                    >  if (n<=4)
     217.  00:412D  0F 0F 0F 0F       > [n] RRCA
     217.  00:4131                    >  else
     217.  00:4131                    ~ [8-n] RLCA
     217.  00:4131                    ~  endif
     217.  00:4131  32 FF FF          >  ld  (0FFFFh),a
     217.  00:4134  47                >  ld  b,a
     218.  00:4135  7A                  1:	ld		a,d				; A = Final value
     219.  00:4136  D3 A8               	out		(0A8h),a		; Slot Final. Ram, rom c, rom c, Main
     220.  00:4138  C9                  	ret
     221.  00:4139                      	
     222.  00:4139                      ; ---------------------------
     223.  00:4139                      ; SETSLOTPAGE3
     224.  00:4139                      ; Set the slot passed in A
     225.  00:4139                      ; at page 3 in the Z80 address space
     226.  00:4139                      ; A: Format FxxxSSPP
     227.  00:4139                      ; ----------------------------
     228.  00:4139                      	
     229.  00:4139                      setslotpage3:
     230.  00:4139  F3                  	di
     231.  00:413A  47                  	ld		b,a					; B = Slot param in FxxxSSPP format
     232.  00:413B  DB A8               	in		a,(0A8h)
     233.  00:413D  07 07               [2]	RLCA
     234.  00:413F  E6 FC               	and		0xFC
     235.  00:4141  57                  	ld		d,a					; D = Primary slot value
     236.  00:4142  78                  	ld		a,b
     237.  00:4143  E6 03               	and		3
     238.  00:4145  B2                  	or		d
     239.  00:4146  0F 0F               [2]	RRCA	
     240.  00:4148  57                  	ld		d,a		; D = Final Value for primary slot
     241.  00:4149  78                  	ld		a,b		; Check if expanded
     242.  00:414A  CB 7F               	bit		7,a
     243.  00:414C  28 26               	jr		z,1f	; Not Expanded
     244.  00:414E                      	mainslot_setup	2
     244.  00:414E  E6 03             >  and  3
     244.  00:4150  0F 0F             > [2] rrca
     244.  00:4152  E6 C0             >  and  0xC0
     244.  00:4154  4F                >  ld  c,a
     244.  00:4155  7A                >  ld  a,d
     244.  00:4156  E6 3F             >  and  0x3F
     244.  00:4158  B1                >  or  c
     244.  00:4159  4F                >  ld  c,a
     244.  00:415A                    > 
     244.  00:415A  78                >  ld  a,b
     244.  00:415B  E6 0C             >  and  0x0C
     244.  00:415D  0F 0F             > [2] rrca
     244.  00:415F  E6 03             >  and  3
     244.  00:4161  47                >  ld  b,a
     244.  00:4162  79                >  ld  a,c
     244.  00:4163  D3 A8             >  out  (0A8h),a
     244.  00:4165  3A FF FF          >  ld  a,(0FFFFh)
     244.  00:4168  2F                >  cpl
     244.  00:4169                    >  if (n<=4)
     244.  00:4169  07 07             > [n] RLCA
     244.  00:416B                    >  else
     244.  00:416B                    ~ [8-n] RRCA
     244.  00:416B                    ~  endif
     244.  00:416B  E6 FC             >  and  0xFC
     244.  00:416D  B0                >  or  b
     244.  00:416E                    >  if (n<=4)
     244.  00:416E  0F 0F             > [n] RRCA
     244.  00:4170                    >  else
     244.  00:4170                    ~ [8-n] RLCA
     244.  00:4170                    ~  endif
     244.  00:4170  32 FF FF          >  ld  (0FFFFh),a
     244.  00:4173  47                >  ld  b,a
     245.  00:4174  7A                  1:	ld		a,d				; A = Final value
     246.  00:4175  D3 A8               	out		(0A8h),a		; Slot Final. Ram, rom c, rom c, Main
     247.  00:4177  C9                  	ret
     248.  00:4178                      
     249.  00:4178                      	
      43   00:4178                      		include "vdpio.asm"
       1.  00:4178                      
       2.  00:4178                             
       3.  00:4178                      ;-------------------------------------
       4.  00:4178                      _cls:		
       5.  00:4178  11 00 00            		ld		de,0
       6.  00:417B  4B                  		ld		c,e
       7.  00:417C  F3                  		di
       8.  00:417D  CD A8 41            		call	_vdpsetvramwr
       9.  00:4180  01 00 00            		ld		bc,0x0000
      10.  00:4183  3E 25               1:		ld		a,00100101B
      11.  00:4185  D3 98               		out		(0x98),a
      12.  00:4187  0B                  		dec		bc
      13.  00:4188  78                  		ld		a,b
      14.  00:4189  B1                  		or		c
      15.  00:418A  20 F7               		jr	nz,1b
      16.  00:418C  3E 6D               1:		ld		a,01101101B
      17.  00:418E  D3 98               		out		(0x98),a
      18.  00:4190  0B                  		dec		bc
      19.  00:4191  78                  		ld		a,b
      20.  00:4192  B1                  		or		c
      21.  00:4193  20 F7               		jr	nz,1b
      22.  00:4195  C9                  		ret
      23.  00:4196                      ;-------------------------------------
      24.  00:4196                      		
      25.  00:4196  (00:0099)           vdpport1 equ 0x99
      26.  00:4196  (00:009A)           vdpport2 equ 0x9A
      27.  00:4196                      
      28.  00:4196                      levelcolors:
      29.  00:4196                      	; incbin "palette.bin"
      30.  00:4196                      
      31.  00:4196                      _SetPalet:   
      32.  00:4196  F3                  	di
      33.  00:4197  AF                  	xor a 			;Set pointer to zero.
      34.  00:4198  D3 99               	out (vdpport1),a        
      35.  00:419A  3E 90               	ld  a,16 | 010000000B
      36.  00:419C  D3 99               	out (vdpport1),a
      37.  00:419E                      
      38.  00:419E  21 96 41            	ld  hl,levelcolors
      39.  00:41A1  01 9A 20            	ld bc,vdpport2+32*256
      40.  00:41A4  ED B3               	otir
      41.  00:41A6  FB                  	ei
      42.  00:41A7  C9                  	ret
      43.  00:41A8                      
      44.  00:41A8                      ;Set VDP for writing at address CDE (17-bit) 
      45.  00:41A8                      
      46.  00:41A8                      _vdpsetvramwr:
      47.  00:41A8  79                  	ld a,c
      48.  00:41A9                      ;Set VDP for writing at address ADE (17-bit) ;
      49.  00:41A9  CB 02               	rlc d
      50.  00:41AB  17                  	rla
      51.  00:41AC  CB 02               	rlc d
      52.  00:41AE  17                  	rla
      53.  00:41AF  CB 3A               	srl d ; primo shift, il secondo dopo la out
      54.  00:41B1                      
      55.  00:41B1  D3 99               	out (0x99),a ;set bits 14-16
      56.  00:41B3  3E 8E               	ld a,14+128
      57.  00:41B5  D3 99               	out (0x99),a
      58.  00:41B7                      
      59.  00:41B7  CB 3A               	srl d ; secondo shift.     
      60.  00:41B9                      _vdpsetvramwr14
      61.  00:41B9  7B                  	ld a,e ;set bits 0-7
      62.  00:41BA  D3 99               	out (0x99),a
      63.  00:41BC  7A                  	ld a,d ;set bits 8-13
      64.  00:41BD  F6 40               	or 0x40 ; + write access
      65.  00:41BF  D3 99               	out (0x99),a
      66.  00:41C1  C9                  	ret
      67.  00:41C2                      	
      68.  00:41C2                      ;Set VDP port #98 to start reading at address CDE (17-bit) ;
      69.  00:41C2                      
      70.  00:41C2                      _vdpsetvramrd:
      71.  00:41C2  79                  	ld a,c
      72.  00:41C3                      ;Set VDP port #98 to start reading at address ADE (17-bit) ;
      73.  00:41C3  CB 02               	rlc d
      74.  00:41C5  17                  	rla
      75.  00:41C6  CB 02               	rlc d
      76.  00:41C8  17                  	rla
      77.  00:41C9  CB 3A               	srl d ; primo shift, il secondo dopo la out
      78.  00:41CB                      
      79.  00:41CB  D3 99               	out (0x99),a ;set bits 14-16
      80.  00:41CD  3E 8E               	ld a,14+128
      81.  00:41CF  D3 99               	out (0x99),a
      82.  00:41D1                      
      83.  00:41D1  CB 3A               	srl d ; secondo shift.            
      84.  00:41D3  7B                  	ld a,e ;set bits 0-7
      85.  00:41D4  D3 99               	out (0x99),a
      86.  00:41D6  7A                  	ld a,d ;set bits 8-13
      87.  00:41D7  E6 3F               	and 0x3F
      88.  00:41D9  D3 99               	out (0x99),a
      89.  00:41DB  C9                  	ret
      90.  00:41DC                      
      91.  00:41DC                      ;Display page E in screen 5
      92.  00:41DC                      _setpage:
      93.  00:41DC  7B                  	ld a,e
      94.  00:41DD  87 87 87 87 87      [5]	add a,a ;x32
      95.  00:41E2  F6 1F               	or	 00011111B
      96.  00:41E4  F3                  	di
      97.  00:41E5  D3 99               	out (0x99),a
      98.  00:41E7  3E 82               	ld a,2+128
      99.  00:41E9  D3 99               	out (0x99),a
     100.  00:41EB  FB                  	ei            
     101.  00:41EC  C9                  	ret
     102.  00:41ED                      
     103.  00:41ED  (00:005F)           chgmod        equ     0x005f      ;change graphic mode
     104.  00:41ED  (00:000C)           RDSLT         equ     0x000c      ;read address HL in slot A
     105.  00:41ED  (00:0156)           KILBUF        equ     0x0156      ;clear keyboard buffer
     106.  00:41ED                      
     107.  00:41ED                      set_scr:
     108.  00:41ED  3E 08               	ld  	a,8
     109.  00:41EF  CD 5F 00            	call	chgmod
     110.  00:41F2                      	
     111.  00:41F2  F3                  	di
     112.  00:41F3                      	// sprites 16x16
     113.  00:41F3  3A E0 F3            	ld		a,(0xF3E0)
     114.  00:41F6  F6 02               	or		2
     115.  00:41F8  32 E0 F3            	ld		(0xF3E0),a
     116.  00:41FB  D3 99               	out		(0x99),a
     117.  00:41FD  3E 81               	ld		a,128+1
     118.  00:41FF  D3 99               	out		(0x99),a
     119.  00:4201                      
     120.  00:4201                      	// border color
     121.  00:4201  3E 55               	ld		a,0x55
     122.  00:4203  D3 99               	out		(0x99),a
     123.  00:4205  3E 87               	ld		a,128+7
     124.  00:4207  D3 99               	out		(0x99),a
     125.  00:4209                      		
     126.  00:4209                      	// enable sprites + TP
     127.  00:4209  3A E7 FF            	ld		a,(0xFFE7)
     128.  00:420C  F6 22               	or		32+2
     129.  00:420E  32 E7 FF            	ld		(0xFFE7),a
     130.  00:4211  D3 99               	out		(0x99),a
     131.  00:4213  3E 88               	ld		a,128+8
     132.  00:4215  D3 99               	out		(0x99),a
     133.  00:4217                      		
     134.  00:4217                      	// Set 192 lines @50Hz (PAL assumed!)
     135.  00:4217  3A 0F CB            	ld	a,(SEL_NTSC)
     136.  00:421A  A7                  	and 	a
     137.  00:421B  20 0C               	jr		nz,1f
     138.  00:421D                      	
     139.  00:421D  3A E8 FF            	ld		a,(0xFFE8)		; PAL
     140.  00:4220  E6 7F               	and		01111111B
     141.  00:4222  F6 02               	or		2
     142.  00:4224  32 E8 FF            	ld		(0xFFE8),a
     143.  00:4227  18 08               	jr	2f
     144.  00:4229                      1:		
     145.  00:4229  3A E8 FF            	ld		a,(0xFFE8)		; NTSC
     146.  00:422C  E6 7D               	and		01111101B
     147.  00:422E  32 E8 FF            	ld		(0xFFE8),a
     148.  00:4231                      2:	
     149.  00:4231  D3 99               	out		(0x99),a
     150.  00:4233  3E 89               	ld		a,128+9
     151.  00:4235  D3 99               	out		(0x99),a
     152.  00:4237  FB                  	ei
     153.  00:4238                      
     154.  00:4238  C9                  	ret
     155.  00:4239                      
     156.  00:4239                      
     157.  00:4239                      _waitvdp:
     158.  00:4239  F3                  	di
     159.  00:423A  3E 02               	ld a,2
     160.  00:423C  D3 99               	out (0x99),a
     161.  00:423E  3E 8F               	ld a, 0x8f
     162.  00:4240  D3 99               	out (0x99),a
     163.  00:4242                      
     164.  00:4242  DB 99               1:  in a,(0x99)
     165.  00:4244  0F                  	rrca
     166.  00:4245  DA 42 42            	jp c, 1b
     167.  00:4248                      
     168.  00:4248  AF                  	xor a
     169.  00:4249  D3 99               	out (0x99),a
     170.  00:424B  3E 8F               	ld a, 0x8f
     171.  00:424D  D3 99               	out (0x99),a
     172.  00:424F  FB                  	ei
     173.  00:4250  C9                  	ret
     174.  00:4251                      	
      44   00:4251                      		include "turbo.asm"
       1.  00:4251                      
       2.  00:4251  (00:000C)           rdslt	equ	0x000c
       3.  00:4251  (00:001C)           CALSLT	equ	0x001c
       4.  00:4251  (00:0180)           chgcpu	equ	0x0180	; change cpu mode
       5.  00:4251  (00:FCC1)           exttbl	equ	0xfcc1	; main rom slot
       6.  00:4251                      
       7.  00:4251                      ; Switch to r800 rom mode
       8.  00:4251                      	
       9.  00:4251                      _set_r800:
      10.  00:4251  DB AA               		in	a,(0aah)
      11.  00:4253  E6 F0               		and 011110000B			; upper 4 bits contain info to preserve
      12.  00:4255  F6 06               		or	6
      13.  00:4257  D3 AA               		out (0aah),a
      14.  00:4259  DB A9               		in	a,(0a9h)
      15.  00:425B  6F                  		ld	l,a
      16.  00:425C                      
      17.  00:425C  3A 2D 00            		ld	a,(0x002d)
      18.  00:425F  FE 03               		cp	3					; this is a TR
      19.  00:4261  7D                  		ld	a,l
      20.  00:4262  28 0E               		jr	z,set_turbo_tr
      21.  00:4264                      								; this is anything else
      22.  00:4264  E6 02               		and	0x02				; CTR
      23.  00:4266  C0                  		ret	nz					; if NZ, CTR is not pressed set the turbo
      24.  00:4267                      
      25.  00:4267  3A 80 01            		ld	A,(chgcpu)
      26.  00:426A  FE C3               		cp	0C3h
      27.  00:426C  3E 81               		ld	a,81h              ; R800 ROM mode or any other turbo
      28.  00:426E  CC 80 01            		call	z,chgcpu
      29.  00:4271  C9                  		ret
      30.  00:4272                      
      31.  00:4272                      set_turbo_tr
      32.  00:4272  E6 02               		and	0x02				; CTR
      33.  00:4274  C8                  		ret	z					; if Z, CTR is pressed -> do not set the turbo
      34.  00:4275  3E 81               		ld	a,81h              	; R800 ROM mode
      35.  00:4277  C3 80 01            		jp chgcpu
      36.  00:427A                      		
      45   00:427A                      		include "isr.asm"
       1.  00:427A                      
       2.  00:427A                      		; include "header.asm"
       3.  00:427A                      		
       4.  00:427A  (00:F3DF)           RG0SAV EQU 0xF3DF
       5.  00:427A  (00:F3E0)           RG1SAV equ 0xF3E0
       6.  00:427A  (00:F3E6)           RG7SAV equ 0xF3E6 ; border color
       7.  00:427A  (00:F3E7)           RG8SAV equ 0xF3E7 ; VDP Register 8 Save copy.
       8.  00:427A                      
       9.  00:427A  (00:FC9E)           _jiffy: equ 0xFC9E 
      10.  00:427A                      
      11.  00:427A                      	; global _intinit,_intreset,_scroll_sx,_scroll_dx
      12.  00:427A                      	; global _jiffy
      13.  00:427A                      	; global _xoffset
      14.  00:427A                      	; global _displaypage
      15.  00:427A                      	; global _direction
      16.  00:427A                      	; global _jiffy
      17.  00:427A                      
      18.  00:427A                      
      19.  00:427A                      _intinit:
      20.  00:427A  F3                  	di
      21.  00:427B  21 38 00            	ld	hl,0x0038
      22.  00:427E  36 C3               	ld	(hl),0xC3
      23.  00:4280  23                  	inc	hl
      24.  00:4281  36 AF               	ld	(hl),low _scroll
      25.  00:4283  23                  	inc	hl
      26.  00:4284  36 42               	ld	(hl),high _scroll
      27.  00:4286                      
      28.  00:4286                      ; set interrupt line
      29.  00:4286  3E AE               	LD    A,YSIZE-2
      30.  00:4288  D3 99               	OUT   (0x99),A
      31.  00:428A  3E 93               	LD    A,0x93
      32.  00:428C  D3 99               	OUT   (0x99),A
      33.  00:428E                      	
      34.  00:428E                      ; enable line interrupt
      35.  00:428E  3A DF F3            	LD    A,(RG0SAV)
      36.  00:4291  F6 10               	OR    0x10
      37.  00:4293  32 DF F3            	LD    (RG0SAV),A
      38.  00:4296  D3 99               	OUT   (0x99),A
      39.  00:4298  3E 80               	LD    A,0x80
      40.  00:429A  D3 99               	OUT   (0x99),A
      41.  00:429C  FB                  	ei
      42.  00:429D  C9                  	ret
      43.  00:429E                      	
      44.  00:429E                      _intreset:
      45.  00:429E                      ; disable line interrupt
      46.  00:429E  F3                  	di
      47.  00:429F  3A DF F3            	LD    A,(RG0SAV)
      48.  00:42A2  E6 EF               	and    0xEF
      49.  00:42A4  32 DF F3            	LD    (RG0SAV),A
      50.  00:42A7  D3 99               	OUT   (0x99),A
      51.  00:42A9  3E 80               	LD    A,0x80
      52.  00:42AB  D3 99               	OUT   (0x99),A
      53.  00:42AD  FB                  	ei
      54.  00:42AE  C9                  	ret
      55.  00:42AF                      	
      56.  00:42AF                      ;;;;;;;;;;;;;;;;;;;;;;
      57.  00:42AF                      ; actual ISR handler
      58.  00:42AF                      ;;;;;;;;;;;;;;;;;;;;;;
      59.  00:42AF                      
      60.  00:42AF                      _scroll:
      61.  00:42AF  F3                  	di
      62.  00:42B0  F5                  	push	af
      63.  00:42B1                      	
      64.  00:42B1  AF                  	xor	a 			; read S#0
      65.  00:42B2  D3 99               	out (0x99),a
      66.  00:42B4  3E 8F               	ld a,128+15
      67.  00:42B6  D3 99               	out (0x99),a
      68.  00:42B8  DB 99               	in	a,(0x99)
      69.  00:42BA  07                  	rlca
      70.  00:42BB  DA 4C 43            	jp	c,vblank
      71.  00:42BE                      	
      72.  00:42BE  3E 01               	ld a,1 			; read S#1
      73.  00:42C0  D3 99               	out (0x99),a
      74.  00:42C2  3E 8F               	ld a,128+15
      75.  00:42C4  D3 99               	out (0x99),a
      76.  00:42C6  DB 99               	in a,(0x99)
      77.  00:42C8  1F                  	rra
      78.  00:42C9  DA CF 42            	jp	c,lint	
      79.  00:42CC                      	
      80.  00:42CC  F1                  	pop	af			; none of them (?)
      81.  00:42CD  FB                  	ei
      82.  00:42CE  C9                  	ret
      83.  00:42CF                      	
      84.  00:42CF                      ;;;;;;;;;;;;;;;;;;;;;;;;;;;;;;;;;;;;;	
      85.  00:42CF                      ; manage scorebar at YSIZE
      86.  00:42CF                      ;;;;;;;;;;;;;;;;;;;;;;;;;;;;;;;;;;;;;	
      87.  00:42CF                      	
      88.  00:42CF                      lint:					
      89.  00:42CF  3A E0 F3            	ld	a,(RG1SAV)
      90.  00:42D2  E6 BF               	and	0xBF			; disable screen
      91.  00:42D4  D3 99               	out	(0x99),a
      92.  00:42D6  3E 81               	ld	a,1+128
      93.  00:42D8  D3 99               	out	(0x99),a
      94.  00:42DA                      
      95.  00:42DA  3E 02               	ld a,2 				; read S#2
      96.  00:42DC  D3 99               	out (0x99),a
      97.  00:42DE  3E 8F               	ld a,128+15
      98.  00:42E0  D3 99               	out (0x99),a		; poll for HBLANK
      99.  00:42E2                      
     100.  00:42E2  DB 99               1:	in	a,(0x99)		; we are in HBLANK already, so wait until end of HBLANK
     101.  00:42E4  E6 20               	and	0x20
     102.  00:42E6  C2 E2 42            	jp	nz,1b			
     103.  00:42E9  DB 99               2:	in	a,(0x99)		; wait until end of the active area
     104.  00:42EB  E6 20               	and	0x20
     105.  00:42ED  CA E9 42            	jp	z,2b
     106.  00:42F0                      						; now we are at the start of HBLANK
     107.  00:42F0  AF                  	xor	a
     108.  00:42F1  D3 99               	out	(099h),a
     109.  00:42F3  3E 92               	ld	a,18+128
     110.  00:42F5  D3 99               	out	(099h),a		; setadjust 0,0
     111.  00:42F7                      	
     112.  00:42F7  3E 1F               	ld a,00011111B		; 0XX11111B
     113.  00:42F9  D3 99               	out (0x99),a
     114.  00:42FB  3E 82               	ld a,2+128			; R#2 
     115.  00:42FD  D3 99               	out (0x99),a		; score bar in page 0
     116.  00:42FF                      
     117.  00:42FF  3A E7 F3            	ld	a,(RG8SAV)
     118.  00:4302  F6 02               	or	2				; disable sprites
     119.  00:4304  D3 99               	out	(0x99),a
     120.  00:4306  3E 88               	ld	a,8+128
     121.  00:4308  D3 99               	out	(0x99),a
     122.  00:430A                      
     123.  00:430A  3A E0 F3            	ld	a,(RG1SAV)
     124.  00:430D  F6 42               	or 	0x42			; enable screen
     125.  00:430F  D3 99               	out	(0x99),a
     126.  00:4311  3E 81               	ld	a,1+128
     127.  00:4313  D3 99               	out	(0x99),a
     128.  00:4315                      	
     129.  00:4315  3E FF               	ld	a,255			; white colour
     130.  00:4317  D3 99               	out	(0x99),a
     131.  00:4319  3E 87               	ld	a,7+128
     132.  00:431B  D3 99               	out	(0x99),a
     133.  00:431D                      	
     134.  00:431D  E5                  	push	hl
     135.  00:431E  D5                  	push	de
     136.  00:431F  C5                  	push	bc
     137.  00:4320  D9                  	exx
     138.  00:4321  08                  	ex	af,af'
     139.  00:4322  E5                  	push	hl
     140.  00:4323  D5                  	push	de
     141.  00:4324  C5                  	push	bc
     142.  00:4325  F5                  	push	af
     143.  00:4326  FD E5               	push	iy
     144.  00:4328  DD E5               	push	ix
     145.  00:432A                      	
     146.  00:432A  21 3C 43            	ld	hl,.exit
     147.  00:432D  E5                  	push	hl
     148.  00:432E  3A 41 CB            	ld	a,(_direction)
     149.  00:4331  CB 07               	rlc a
     150.  00:4333  28 06               	jr	z,1f
     151.  00:4335  D2 B9 44            	jp	nc,inc_xoffset			; >0 == dx
     152.  00:4338  DA F9 44            	jp	 c,dec_xoffset			; <0 == sx
     153.  00:433B  E1                  1:	pop	hl
     154.  00:433C                      .exit:
     155.  00:433C                      
     156.  00:433C  DD E1               	pop		ix
     157.  00:433E  FD E1               	pop		iy
     158.  00:4340  F1                  	pop		af
     159.  00:4341  C1                  	pop		bc
     160.  00:4342  D1                  	pop		de
     161.  00:4343  E1                  	pop		hl
     162.  00:4344  08                  	ex af,af'
     163.  00:4345  D9                  	exx
     164.  00:4346  C1                  	pop		bc
     165.  00:4347  D1                  	pop		de
     166.  00:4348  E1                  	pop		hl
     167.  00:4349                      
     168.  00:4349  F1                  	pop		af
     169.  00:434A  FB                  	ei
     170.  00:434B  C9                  	ret
     171.  00:434C                      
     172.  00:434C                      ;;;;;;;;;;;;;;;;;;;;;;;;;;;;;;;;;;;;;	
     173.  00:434C                      ;   manage normal vblank routine
     174.  00:434C                      ;;;;;;;;;;;;;;;;;;;;;;;;;;;;;;;;;;;;;	
     175.  00:434C                      
     176.  00:434C                      vblank:
     177.  00:434C  3A E7 F3            	ld	a,(RG8SAV)		; enable sprites
     178.  00:434F  D3 99               	out	(0x99),a
     179.  00:4351  3E 88               	ld	a,8+128
     180.  00:4353  D3 99               	out	(0x99),a
     181.  00:4355                      
     182.  00:4355  3A 40 CB            	ld	a,(_displaypage)
     183.  00:4358  87 87 87 87 87      [5]	add a,a 			; x32
     184.  00:435D  F6 1F               	or	00011111B
     185.  00:435F  D3 99               	out (0x99),a
     186.  00:4361  3E 82               	ld a,2+128
     187.  00:4363  D3 99               	out (0x99),a
     188.  00:4365                      
     189.  00:4365  E5                  	push	hl
     190.  00:4366  2A 9E FC            	ld	hl,(_jiffy)
     191.  00:4369  23                  	inc	hl
     192.  00:436A  22 9E FC            	ld	(_jiffy),hl
     193.  00:436D  E1                  	pop		hl
     194.  00:436E                      
     195.  00:436E  3E 27               	ld	a,00100111B		; blue colour
     196.  00:4370  D3 99               	out	(0x99),a
     197.  00:4372  3E 87               	ld	a,7+128
     198.  00:4374  D3 99               	out	(0x99),a
     199.  00:4376                      		
     200.  00:4376  3E 02               	ld      a,2              ; wait VDPready
     201.  00:4378  D3 99               	out     (0x99),a         ; select s#2
     202.  00:437A  3E 8F               	ld      a,15+128
     203.  00:437C  D3 99               	out     (0x99),a
     204.  00:437E  DB 99               1:	in      a,(0x99)
     205.  00:4380  1F                  	rra
     206.  00:4381  DA 7E 43            	jp      c,1b			; do not set R#18 if vdp is busy
     207.  00:4384                      
     208.  00:4384  AF                  	xor	a				; black colour
     209.  00:4385  D3 99               	out	(0x99),a
     210.  00:4387  3E 87               	ld	a,7+128
     211.  00:4389  D3 99               	out	(0x99),a
     212.  00:438B                      	
     213.  00:438B  3A 43 CB            	ld	a,(_xoffset)		; set R#18 only if not scrolling
     214.  00:438E  C6 F8               	add	a,-8
     215.  00:4390  E6 0F               	and	0Fh
     216.  00:4392  D3 99               	out	(099h),a
     217.  00:4394  3E 92               	ld	a,18+128
     218.  00:4396  D3 99               	out	(099h),a
     219.  00:4398                      
     220.  00:4398                      1:	
     221.  00:4398  F1                  	pop		af
     222.  00:4399  FB                  	ei
     223.  00:439A  C9                  	ret
     224.  00:439B                      
      46   00:439B                      	
      47   00:439B                      ; // Line Bit_7 Bit_6 Bit_5 Bit_4 Bit_3 Bit_2 Bit_1 Bit_0
      48   00:439B                      ; // 0 "7" "6" "5" "4" "3" "2" "1" "0"
      49   00:439B                      ; // 1 ";" "]" "[" "\" "=" "-" "9" "8"
      50   00:439B                      ; // 2 "B" "A" ??? "/" "." "," "'" "`"
      51   00:439B                      ; // 3 "J" "I" "H" "G" "F" "E" "D" "C"
      52   00:439B                      ; // 4 "R" "Q" "P" "O" "N" "M" "L" "K"
      53   00:439B                      ; // 5 "Z" "Y" "X" "W" "V" "U" "T" "S"
      54   00:439B                      ; // 6 F3 F2 F1 CODE CAP GRAPH CTRL SHIFT
      55   00:439B                      ; // 7 RET SEL BS STOP TAB ESC F5 F4
      56   00:439B                      ; // 8 RIGHT DOWN UP LEFT DEL INS HOME SPACE
      57   00:439B                      
      58   00:439B                      checkkbd:
      59   00:439B  DB AA               		in	a,(0aah)
      60   00:439D  E6 F0               		and 011110000B			; upper 4 bits contain info to preserve
      61   00:439F  B3                  		or	e
      62   00:43A0  D3 AA               		out (0aah),a
      63   00:43A2  DB A9               		in	a,(0a9h)
      64   00:43A4  6F                  		ld	l,a
      65   00:43A5  C9                  		ret
      66   00:43A6                      
      67   00:43A6                      ;-------------------------------------		
      68   00:43A6                      		
      69   00:43A6                      		; include plot_frame.asm
      70   00:43A6                      		
      71   00:43A6                      ;-------------------------------------
      72   00:43A6                      ; Entry point
      73   00:43A6                      ;-------------------------------------
      74   00:43A6                      START:
      75   00:43A6  1E 06               		ld e,6
      76   00:43A8  CD 9B 43            		call	checkkbd
      77   00:43AB  3E 01               		ld	a,1
      78   00:43AD  CB 0D               		rrc	l				; shift
      79   00:43AF  D2 B3 43            		jp	nc,_ntsc
      80   00:43B2  AF                  		xor	a
      81   00:43B3  32 0F CB            _ntsc:	ld	(SEL_NTSC),a	; if set NSTC, if reset PAL
      82   00:43B6                      
      83   00:43B6  CD ED 41            		call	set_scr
      84   00:43B9                      
      85   00:43B9  CD 51 42            		call 	_set_r800
      86   00:43BC                      ;-------------------------------------
      87   00:43BC                      ;   Power-up routine for 32K ROM
      88   00:43BC                      ;   set pages and sub slot
      89   00:43BC                      ;-------------------------------------
      90   00:43BC  CD 10 40                    call    search_slot
      91   00:43BF  CD 2F 40                    call    search_slotram
      92   00:43C2  CD 61 40            		call	setrompage2
      93   00:43C5  CD 5B 40            		call	setrampage0
      94   00:43C8  3E C9               		ld		a,0xc9
      95   00:43CA  32 38 00            		ld		(0x38),a
      96   00:43CD                      
      97   00:43CD  AF                  		xor	a
      98   00:43CE  32 00 50            		ld	(_kBank1),a
      99   00:43D1  3C                  		inc	a
     100   00:43D2  32 00 70            		ld	(_kBank2),a
     101   00:43D5                      		
     102   00:43D5  CD 78 41            		call	_cls
     103   00:43D8                      		; call 	_hw_sprite_init
     104   00:43D8                      
     105   00:43D8  0E 00               		ld		c,0
     106   00:43DA  11 00 FA            		ld		de,0FA00h
     107   00:43DD  CD A8 41            		call	_vdpsetvramwr
     108   00:43E0  3E D8               		ld		a,0xD8
     109   00:43E2  D3 98               		out 	(0x98),a
     110   00:43E4                      
     111   00:43E4                      	;--- initialise demo song
     112   00:43E4  3E 0E               		ld	a, :demo_song
     113   00:43E6                      		setpage_a
     113   00:43E6  32 00 90          >   ld (_kBank3),a
     113   00:43E9  3C                >   inc a
     113   00:43EA  32 00 B0          >   ld (_kBank4),a
     114   00:43ED                      		
     115   00:43ED  21 00 80            		ld	hl,demo_song
     116   00:43F0  CD 94 48            		call	replay_init
     117   00:43F3                      
     118   00:43F3  CD 35 46            		call	_clean_buffs
     119   00:43F6                      
     120   00:43F6                      		; call	_SetPalet
     121   00:43F6  1E 00               		ld		e,0
     122   00:43F8  CD DC 41                    call	_setpage
     123   00:43FB                      		
     124   00:43FB                      		; unpack level map (bit field for collisions)
     125   00:43FB  3E 0E               		ld	a, :_level_bf
     126   00:43FD                      		setpage_a
     126   00:43FD  32 00 90          >   ld (_kBank3),a
     126   00:4400  3C                >   inc a
     126   00:4401  32 00 B0          >   ld (_kBank4),a
     127   00:4404                      		
     128   00:4404                      		; ld	bc,	mapWidth*mapHeight
     129   00:4404                      		; ld	hl,	_level_bf
     130   00:4404                      		; ld	de,	_cur_level_bf
     131   00:4404                      		; ldir
     132   00:4404                      
     133   00:4404                      
     134   00:4404                      		;copy in ram the map 
     135   00:4404                      		
     136   00:4404  3E 0E               		ld	a, :_level
     137   00:4406                      		setpage_a
     137   00:4406  32 00 90          >   ld (_kBank3),a
     137   00:4409  3C                >   inc a
     137   00:440A  32 00 B0          >   ld (_kBank4),a
     138   00:440D                      		
     139   00:440D  21 11 94            		ld		hl,_level
     140   00:4410  11 CD C2            		ld		de,_levelmap
     141   00:4413  01 80 05            		ld		bc,mapWidth*mapHeight
     142   00:4416  ED B0               		ldir
     143   00:4418                      
     144   00:4418                      				
     145   00:4418                      		
     146   00:4418                      		; unpack mc frames
     147   00:4418                      		; ld		a, :_mc_sprites
     148   00:4418                      		; setpage_a
     149   00:4418                      		; xor	a
     150   00:4418                      		; ld		(_vbit16 ),a
     151   00:4418                      		; ld		de,	_mc_sprites
     152   00:4418                      		; ld		bc,192*128+256*128
     153   00:4418                      		; call	_vuitpakker 
     154   00:4418                      				
     155   00:4418                      
     156   00:4418                      		
     157   00:4418                      		; di
     158   00:4418                      		; ld	a,:int_sprites
     159   00:4418                      		; ld	(_kBank2),a
     160   00:4418                      		; call	int_sprites
     161   00:4418                      		; ld	a,1
     162   00:4418                      		; ld	(_kBank2),a
     163   00:4418                      		; ei
     164   00:4418                      		
     165   00:4418                      		; main init
     166   00:4418                      		
     167   00:4418                      		; call	init_hero
     168   00:4418  FB                  		ei
     169   00:4419                      		
     170   00:4419  21 00 00            		ld		hl,0
     171   00:441C  7C                  		ld		a,h
     172   00:441D  32 38 CB            		ld		(_ymappos),a
     173   00:4420  22 39 CB            		ld		(_xmappos),hl
     174   00:4423                      		
     175   00:4423  22 34 CB            		ld		(_nframes),hl
     176   00:4426  32 3F CB            		ld		(_currentpage),a
     177   00:4429  22 1B CB            		ld		(_mcdx),hl
     178   00:442C  32 19 CB            		ld		(_mcframe),a
     179   00:442F                      		
     180   00:442F  32 43 CB            		ld		(_xoffset),a		;  0 tutto a destra
     181   00:4432                      									; 15 tutto a sinistra
     182   00:4432                      
     183   00:4432  21 CE C2            		ld		hl,_levelmap+1
     184   00:4435  22 3B CB            		ld		(_levelmap_pos),hl
     185   00:4438                      									
     186   00:4438  3E 01               		ld		a,1
     187   00:443A  32 40 CB            		ld		(_displaypage),a		
     188   00:443D  CD F5 47            		call	init_page1
     189   00:4440                      
     190   00:4440  AF                  		xor		a
     191   00:4441  32 40 CB            		ld		(_displaypage),a		
     192   00:4444  CD C7 47            		call	init_page0
     193   00:4447                      
     194   00:4447  AF                  		xor		a
     195   00:4448  32 41 CB            		ld		(_direction),a
     196   00:444B                      
     197   00:444B  CD 7A 42            		call	_intinit
     198   00:444E                      		
     199   00:444E                      main_loop:
     200   00:444E  21 00 00            		ld	hl,0
     201   00:4451  22 9E FC            		ld	(_jiffy),hl
     202   00:4454                      
     203   00:4454  21 72 44            		ld	hl,.nomove
     204   00:4457  E5                  		push	hl
     205   00:4458  1E 08               		ld	e,8
     206   00:445A  CD 9B 43            		call	checkkbd
     207   00:445D                      
     208   00:445D  CB 7D               		bit	7,l
     209   00:445F  CA 8C 44            		jp	z,test_move_right
     210   00:4462  CB 65               		bit	4,l
     211   00:4464  CA 97 44            		jp	z,test_move_left
     212   00:4467                      		
     213   00:4467  CB 75               		bit	6,l
     214   00:4469  CA A3 44            		jp	z,_dw
     215   00:446C  CB 6D               		bit	5,l
     216   00:446E  CA B0 44            		jp	z,_up
     217   00:4471                      		
     218   00:4471  E1                  		pop	hl				
     219   00:4472                      		
     220   00:4472                      .nomove:
     221   00:4472  CD A5 46            		call	_compute_fps
     222   00:4475  CD 88 46            		call	_print_fps
     223   00:4478  CD 43 46            		call	_print_probe
     224   00:447B                      		
     225   00:447B  2A 34 CB            		ld		hl,(_nframes)
     226   00:447E  23                  		inc		hl
     227   00:447F  22 34 CB            		ld		(_nframes),hl
     228   00:4482                      
     229   00:4482  2A 9E FC            1:		ld	hl,(_jiffy)		; wait for vblank (and not for linit)
     230   00:4485  7D                  		ld	a,l
     231   00:4486  B4                  		or	h
     232   00:4487  28 F9               		jr	z,1b
     233   00:4489                      	
     234   00:4489  C3 4E 44            		jp      main_loop
     235   00:448C                      
     236   00:448C                      ;-------------------------------------
     237   00:448C                      test_move_right:
     238   00:448C  3A 43 CB            		ld		a,(_xoffset)
     239   00:448F  A7                  		and		a
     240   00:4490  C0                  		ret		nz
     241   00:4491  3E 01               		ld		a,1
     242   00:4493  32 41 CB            		ld		(_direction),a			; moving right
     243   00:4496  C9                  		ret
     244   00:4497                      test_move_left
     245   00:4497  3A 43 CB            		ld		a,(_xoffset)
     246   00:449A  FE 0F               		cp		15
     247   00:449C  C0                  		ret		nz
     248   00:449D  3E FF               		ld		a,-1
     249   00:449F  32 41 CB            		ld		(_direction),a			; moving left
     250   00:44A2  C9                  		ret
     251   00:44A3                      ;-------------------------------------
     252   00:44A3                      
     253   00:44A3  3A 41 CB            _dw:	ld		a,(_direction)
     254   00:44A6  A7                  		and		a
     255   00:44A7  C8                  		ret		z
     256   00:44A8  32 42 CB            		ld		(_old_direction),a
     257   00:44AB  AF                  		xor		a
     258   00:44AC  32 41 CB            		ld		(_direction),a
     259   00:44AF  C9                  		ret
     260   00:44B0                      		
     261   00:44B0  3A 42 CB            _up:	ld		a,(_old_direction)
     262   00:44B3  A7                  		and		a
     263   00:44B4  C8                  		ret		z
     264   00:44B5  32 41 CB            		ld		(_direction),a
     265   00:44B8  C9                  		ret
     266   00:44B9                      ;-------------------------------------				
     267   00:44B9                      inc_xoffset
     268   00:44B9  CD D8 46            		call	blank_line_lft
     269   00:44BC  CD 17 47            		call	plot_line_rgt
     270   00:44BF  3A 43 CB            		ld		a,(_xoffset)
     271   00:44C2  A7                  		and		a
     272   00:44C3  20 0F               		jr		nz,.case1_15
     273   00:44C5                      .case0
     274   00:44C5  3A 40 CB            		ld 		a,(_displaypage)
     275   00:44C8  EE 01               		xor		1
     276   00:44CA  57                  		ld 		d,a
     277   00:44CB  1E F0               		ld		e,240
     278   00:44CD  2E 25               		ld		l,00100101B
     279   00:44CF  CD 23 48            		call	clrboder
     280   00:44D2  18 0B               		jr	.cont
     281   00:44D4                      .case1_15
     282   00:44D4  87 87 87 87         [4]		add		a,a
     283   00:44D8  5F                  		ld		e,a
     284   00:44D9  D6 10               		sub		a,16
     285   00:44DB  57                  		ld		d,a
     286   00:44DC  CD 54 48            		call	move_block
     287   00:44DF                      .cont
     288   00:44DF  3A 43 CB            		ld		a,(_xoffset)
     289   00:44E2  3C                  		inc	a
     290   00:44E3  E6 0F               		and	15
     291   00:44E5  32 43 CB            		ld		(_xoffset),a
     292   00:44E8  C0                  		ret	nz
     293   00:44E9  3A 40 CB            		ld		a,(_displaypage)
     294   00:44EC  EE 01               		xor		1
     295   00:44EE  32 40 CB            		ld		(_displaypage),a
     296   00:44F1  2A 3B CB            		ld		hl,(_levelmap_pos)
     297   00:44F4  23                  		inc		hl
     298   00:44F5  22 3B CB            		ld		(_levelmap_pos),hl
     299   00:44F8  C9                  		ret
     300   00:44F9                      dec_xoffset
     301   00:44F9  CD D3 46            		call	blank_line_rgt
     302   00:44FC  CD 0E 47            		call	plot_line_lft
     303   00:44FF  3A 43 CB            		ld		a,(_xoffset)
     304   00:4502  FE 0F               		cp	15
     305   00:4504  20 0F               		jr		nz,.case0_14
     306   00:4506                      .case15
     307   00:4506  3A 40 CB            		ld 		a,(_displaypage)
     308   00:4509  EE 01               		xor		1
     309   00:450B  57                  		ld 		d,a
     310   00:450C  1E 00               		ld		e,0
     311   00:450E  2E 25               		ld		l,00100101B
     312   00:4510  CD 23 48            		call	clrboder
     313   00:4513  18 0B               		jr	.cont
     314   00:4515                      .case0_14
     315   00:4515  87 87 87 87         [4]		add		a,a
     316   00:4519  5F                  		ld		e,a
     317   00:451A  C6 10               		add		a,16
     318   00:451C  57                  		ld		d,a
     319   00:451D  CD 54 48            		call	move_block
     320   00:4520                      .cont	
     321   00:4520  3A 43 CB            		ld		a,(_xoffset)
     322   00:4523  3D                  		dec	a
     323   00:4524  E6 0F               		and	15
     324   00:4526  32 43 CB            		ld		(_xoffset),a
     325   00:4529  FE 0F               		cp	15
     326   00:452B  C0                  		ret	nz
     327   00:452C  3A 40 CB            		ld		a,(_displaypage)
     328   00:452F  EE 01               		xor		1
     329   00:4531  32 40 CB            		ld		(_displaypage),a
     330   00:4534  2A 3B CB            		ld		hl,(_levelmap_pos)
     331   00:4537  2B                  		dec		hl
     332   00:4538  22 3B CB            		ld		(_levelmap_pos),hl
     333   00:453B  C9                  		ret
     334   00:453C                      ;-------------------------------------
     335   00:453C                      
     336   00:453C                      ;-------------------------------------
     337   00:453C                      
     338   00:453C                      
     339   00:453C                       
     340   00:453C                      ;;;;;;;;;;;;;;;;;;;;;;;;;;;;;;;;;;;;;;;;;
     341   00:453C                      
     342   00:453C                      	include vuitpakker.asm
       1.  00:453C                      
       2.  00:453C                      ;;;;;;;;;;;;;;;;;;;;;;;;;;;;;;;;;;;;;;;;;
       3.  00:453C                      
       4.  00:453C                      
       5.  00:453C                      _vuitpakker:
       6.  00:453C  FD E5                   push iy
       7.  00:453E  DD E5                   push ix
       8.  00:4540                      
       9.  00:4540  CD 48 45                call  1f
      10.  00:4543                      
      11.  00:4543  DD E1                   pop ix
      12.  00:4545  FD E1                   pop iy
      13.  00:4547  C9                      ret
      14.  00:4548                      
      15.  00:4548                      1:
      16.  00:4548                      ; in de input
      17.  00:4548                      ; in bc VRAM output
      18.  00:4548                      
      19.  00:4548  62                      ld h,d
      20.  00:4549  6B                      ld l,e
      21.  00:454A  50                      ld d,b
      22.  00:454B  59                      ld e,c
      23.  00:454C                      
      24.  00:454C                      ; pletter v0.5 msx unpacker
      25.  00:454C                      
      26.  00:454C                      ;-----------------------------------------------------------
      27.  00:454C                      ; Pletter 0.5b VRAM Depacker - 64Kb version
      28.  00:454C                      ; HL = RAM/ROM source ; DE = VRAM destination
      29.  00:454C                      ;-----------------------------------------------------------
      30.  00:454C  F3                      di
      31.  00:454D                      
      32.  00:454D                      ; VRAM address setup
      33.  00:454D                      ;    ld  a,e
      34.  00:454D                      ;    out (0x99),a
      35.  00:454D                      ;    ld  a,d
      36.  00:454D                      ;    or  0x40
      37.  00:454D                      ;    out (0x99),a
      38.  00:454D  CD 0D 46                call setVwrite
      39.  00:4550                      
      40.  00:4550                      ; Initialization
      41.  00:4550  7E                      ld  a,(hl)
      42.  00:4551  23                      inc hl
      43.  00:4552  D9                      exx
      44.  00:4553  11 00 00                ld  de,0
      45.  00:4556  87                      add a,a
      46.  00:4557  3C                      inc a
      47.  00:4558  CB 13                   rl  e
      48.  00:455A  87                      add a,a
      49.  00:455B  CB 13                   rl  e
      50.  00:455D  87                      add a,a
      51.  00:455E  CB 13                   rl  e
      52.  00:4560  CB 13                   rl  e
      53.  00:4562  21 27 46                ld  hl,__modes
      54.  00:4565  19                      add hl,de
      55.  00:4566  5E                      ld  e,(hl)
      56.  00:4567  DD                      db    0xdd
      57.  00:4568  6B                      ld  l,e         ; ld ixl,e    
      58.  00:4569  23                      inc hl
      59.  00:456A  5E                      ld  e,(hl)
      60.  00:456B  DD                      db    0xdd
      61.  00:456C  63                      ld h,e          ; ld  ixh,e
      62.  00:456D  1E 01                   ld  e,1
      63.  00:456F  D9                      exx
      64.  00:4570  FD 21 79 45             ld  iy,__loop
      65.  00:4574                      
      66.  00:4574                      ; Main depack loop
      67.  00:4574  0E 98               _literal:ld  c,098h
      68.  00:4576  ED A3                   outi
      69.  00:4578  13                      inc de
      70.  00:4579  87                  __loop:   add a,a
      71.  00:457A  CC 01 46                call    z,_getbit
      72.  00:457D  30 F5                   jr  nc,_literal
      73.  00:457F                      
      74.  00:457F                      ; Compressed data
      75.  00:457F  D9                      exx
      76.  00:4580  62                      ld  h,d
      77.  00:4581  6B                      ld  l,e
      78.  00:4582  87                  _getlen: add a,a
      79.  00:4583  CC 05 46                call    z,_getbitexx
      80.  00:4586  30 1D                   jr  nc,lenok
      81.  00:4588  87                  lus:    add a,a
      82.  00:4589  CC 05 46                call    z,_getbitexx
      83.  00:458C  ED 6A                   adc hl,hl
      84.  00:458E  D8                      ret c
      85.  00:458F  87                      add a,a
      86.  00:4590  CC 05 46                call    z,_getbitexx
      87.  00:4593  30 10                   jr  nc,lenok
      88.  00:4595  87                      add a,a
      89.  00:4596  CC 05 46                call    z,_getbitexx
      90.  00:4599  ED 6A                   adc hl,hl
      91.  00:459B  DA 0B 46                jp  c,Depack_out
      92.  00:459E  87                      add a,a
      93.  00:459F  CC 05 46                call    z,_getbitexx
      94.  00:45A2  DA 88 45                jp  c,lus
      95.  00:45A5  23                  lenok:  inc hl
      96.  00:45A6  D9                      exx
      97.  00:45A7  4E                      ld  c,(hl)
      98.  00:45A8  23                      inc hl
      99.  00:45A9  06 00                   ld  b,0
     100.  00:45AB  CB 79                   bit 7,c
     101.  00:45AD  CA E0 45                jp  z,offsok
     102.  00:45B0  DD E9                   jp  (ix)
     103.  00:45B2                      
     104.  00:45B2  87                  _mode7:  add a,a
     105.  00:45B3  CC 01 46                call    z,_getbit
     106.  00:45B6  CB 10                   rl  b
     107.  00:45B8  87                  _mode6:  add a,a
     108.  00:45B9  CC 01 46                call    z,_getbit
     109.  00:45BC  CB 10                   rl  b
     110.  00:45BE  87                  _mode5:  add a,a
     111.  00:45BF  CC 01 46                call    z,_getbit
     112.  00:45C2  CB 10                   rl  b
     113.  00:45C4  87                  _mode4:  add a,a
     114.  00:45C5  CC 01 46                call    z,_getbit
     115.  00:45C8  CB 10                   rl  b
     116.  00:45CA  87                  _mode3:  add a,a
     117.  00:45CB  CC 01 46                call    z,_getbit
     118.  00:45CE  CB 10                   rl  b
     119.  00:45D0  87                  _mode2:  add a,a
     120.  00:45D1  CC 01 46                call    z,_getbit
     121.  00:45D4  CB 10                   rl  b
     122.  00:45D6  87                      add a,a
     123.  00:45D7  CC 01 46                call    z,_getbit
     124.  00:45DA  30 04                   jr  nc,offsok
     125.  00:45DC  B7                      or  a
     126.  00:45DD  04                      inc b
     127.  00:45DE  CB B9                   res 7,c
     128.  00:45E0  03                  offsok: inc bc
     129.  00:45E1  E5                      push    hl
     130.  00:45E2  D9                      exx
     131.  00:45E3  E5                      push    hl
     132.  00:45E4  D9                      exx
     133.  00:45E5  6B                      ld  l,e
     134.  00:45E6  62                      ld  h,d
     135.  00:45E7  ED 42                   sbc hl,bc
     136.  00:45E9  C1                      pop bc
     137.  00:45EA  F5                      push    af
     138.  00:45EB                      _loop: 
     139.  00:45EB                      ;    ld  a,l
     140.  00:45EB                      ;    out (0x99),a
     141.  00:45EB                      ;    ld  a,h
     142.  00:45EB                      ;    out (0x99),a
     143.  00:45EB  CD 19 46                call setVread
     144.  00:45EE                          
     145.  00:45EE  DB 98                   in  a,(0x98)
     146.  00:45F0  08                      ex  af,af'
     147.  00:45F1                      ;    ld  a,e
     148.  00:45F1                      ;    out (0x99),a
     149.  00:45F1                      ;    ld  a,d
     150.  00:45F1                      ;    or  0x40
     151.  00:45F1                      ;    out (0x99),a
     152.  00:45F1  CD 0D 46                call setVwrite
     153.  00:45F4                          
     154.  00:45F4  08                      ex  af,af'
     155.  00:45F5  D3 98                   out (0x98),a
     156.  00:45F7  13                      inc de
     157.  00:45F8  ED A1                   cpi
     158.  00:45FA  EA EB 45                jp  pe,_loop
     159.  00:45FD  F1                      pop af
     160.  00:45FE  E1                      pop hl
     161.  00:45FF  FD E9                   jp  (iy)
     162.  00:4601                      ;
     163.  00:4601  7E                  _getbit: ld  a,(hl)
     164.  00:4602  23                      inc hl
     165.  00:4603  17                      rla
     166.  00:4604  C9                      ret
     167.  00:4605                      
     168.  00:4605                      _getbitexx:
     169.  00:4605  D9                      exx
     170.  00:4606  7E                      ld  a,(hl)
     171.  00:4607  23                      inc hl
     172.  00:4608  D9                      exx
     173.  00:4609  17                      rla
     174.  00:460A  C9                      ret
     175.  00:460B                      
     176.  00:460B                      ; De-packer exit
     177.  00:460B                      Depack_out:
     178.  00:460B  FB                      ei
     179.  00:460C  C9                      ret
     180.  00:460D                      
     181.  00:460D                      
     182.  00:460D                      
     183.  00:460D                      setVwrite:
     184.  00:460D                      
     185.  00:460D  D5                      push    de
     186.  00:460E  C5                      push    bc
     187.  00:460F  ED 4B 36 CB             ld      bc,(_vbit16)
     188.  00:4613  CD A8 41                call    _vdpsetvramwr
     189.  00:4616  C1                      pop     bc
     190.  00:4617  D1                      pop     de
     191.  00:4618                      
     192.  00:4618  C9                      ret
     193.  00:4619                      setVread:    
     194.  00:4619                      
     195.  00:4619  D5                      push    de
     196.  00:461A  C5                      push    bc
     197.  00:461B  5D                      ld      e,l
     198.  00:461C  54                      ld      d,h
     199.  00:461D  ED 4B 36 CB             ld      bc,(_vbit16)
     200.  00:4621  CD C2 41                call    _vdpsetvramrd
     201.  00:4624  C1                      pop     bc
     202.  00:4625  D1                      pop     de
     203.  00:4626                      
     204.  00:4626  C9                      ret
     205.  00:4627                      
     206.  00:4627                      __modes:
     207.  00:4627  E0 45                   dw  offsok
     208.  00:4629  D0 45                   dw  _mode2
     209.  00:462B  CA 45                   dw  _mode3
     210.  00:462D  C4 45                   dw  _mode4
     211.  00:462F  BE 45                   dw  _mode5
     212.  00:4631  B8 45                   dw  _mode6
     213.  00:4633  B2 45                   dw  _mode7
     343   00:4635                      
     344   00:4635                      ;;;;;;;;;;;;;;;;;;;;;;;;;;;;;;;;;;;;;;;;;
     345   00:4635                      
     346   00:4635                      	; include plot_tile.asm
     347   00:4635                      
     348   00:4635                      ;;;;;;;;;;;;;;;;;;;;;;;;;;;;;;;;;;;;;;;;;
     349   00:4635                      
     350   00:4635                      _clean_buffs:
     351   00:4635  01 FF 0B            	ld	bc,2*32*24*2-1
     352   00:4638  21 44 CB            	ld	hl,_shadow0
     353   00:463B  36 FF               	ld	(hl),-1
     354   00:463D  11 45 CB            	ld	de,_shadow0+1
     355   00:4640  ED B0               	ldir
     356   00:4642  C9                  	ret
     357   00:4643                      	
     358   00:4643                      ;;;;;;;;;;;;;;;;;;;;;;;;;;;;;;;;;;;;;;;;;
     359   00:4643                      
     360   00:4643                      _print_probe
     361   00:4643  3A 20 CB            	ld	a,(_mcprobeb)
     362   00:4646  5F                  	ld	e,a
     363   00:4647  16 00               	ld	d,0
     364   00:4649  21 C0 07            	ld	hl,32*(64-2)
     365   00:464C  19                  	add	hl,de
     366   00:464D  EB                  	ex	de,hl
     367   00:464E  21 C0 05            	ld	hl,2*(23*32+0)
     368   00:4651                      	; call 	plot_foreground
     369   00:4651                      	
     370   00:4651  ED 5B 21 CB         	ld	de,(_ticxframe)
     371   00:4655  16 00               	ld	d,0
     372   00:4657  01 22 CB            	ld	bc,_buffer
     373   00:465A  CD AC 46            	call	int2ascii
     374   00:465D                      	
     375   00:465D  3A 24 CB            	ld	a,(_buffer+2)
     376   00:4660  5F                  	ld	e,a
     377   00:4661  16 00               	ld	d,0
     378   00:4663  21 90 07            	ld	hl,32*(64-2)-'0'
     379   00:4666  19                  	add	hl,de
     380   00:4667  EB                  	ex	de,hl
     381   00:4668  21 80 05            	ld	hl,2*(22*32)
     382   00:466B                      	; call 	plot_foreground
     383   00:466B                      
     384   00:466B  3A 25 CB            	ld	a,(_buffer+3)
     385   00:466E  5F                  	ld	e,a
     386   00:466F  16 00               	ld	d,0
     387   00:4671  21 90 07            	ld	hl,32*(64-2)-'0'
     388   00:4674  19                  	add	hl,de
     389   00:4675  EB                  	ex	de,hl
     390   00:4676  21 82 05            	ld	hl,2*(22*32+1)
     391   00:4679                      	; call 	plot_foreground
     392   00:4679                      
     393   00:4679  3A 26 CB            	ld	a,(_buffer+4)
     394   00:467C  5F                  	ld	e,a
     395   00:467D  16 00               	ld	d,0
     396   00:467F  21 90 07            	ld	hl,32*(64-2)-'0'
     397   00:4682  19                  	add	hl,de
     398   00:4683  EB                  	ex	de,hl
     399   00:4684  21 84 05            	ld	hl,2*(22*32+2)
     400   00:4687                      	; call 	plot_foreground
     401   00:4687  C9                  	ret
     402   00:4688                      	
     403   00:4688                      	
     404   00:4688                      _print_fps:
     405   00:4688  3A 25 CB            	ld	a,(_buffer+3)
     406   00:468B  5F                  	ld	e,a
     407   00:468C  16 00               	ld	d,0
     408   00:468E  21 90 07            	ld	hl,32*(64-2)-'0'
     409   00:4691  19                  	add	hl,de
     410   00:4692  EB                  	ex	de,hl
     411   00:4693                      	
     412   00:4693  21 FC 05            	ld	hl,2*(23*32+30)
     413   00:4696                      	; call 	plot_foreground
     414   00:4696                      
     415   00:4696  3A 26 CB            	ld	a,(_buffer+4)
     416   00:4699  5F                  	ld	e,a
     417   00:469A  16 00               	ld	d,0
     418   00:469C  21 90 07            	ld	hl,32*(64-2)-'0'
     419   00:469F  19                  	add	hl,de
     420   00:46A0  EB                  	ex	de,hl
     421   00:46A1                      	
     422   00:46A1  21 FE 05            	ld	hl,2*(23*32+31)
     423   00:46A4                      	; call 	plot_foreground
     424   00:46A4  C9                  	ret
     425   00:46A5                      
     426   00:46A5                      ;-------------------------------------
     427   00:46A5                      _compute_fps:
     428   00:46A5  ED 5B 32 CB         	ld	de,(_fps)
     429   00:46A9  01 22 CB            	ld	bc,_buffer
     430   00:46AC                      
     431   00:46AC                      int2ascii:
     432   00:46AC                      	
     433   00:46AC                      ; in de input 
     434   00:46AC                      ; in bc output
     435   00:46AC                      
     436   00:46AC  EB                  	ex  de,hl
     437   00:46AD  59                  	ld  e,c
     438   00:46AE  50                  	ld  d,b
     439   00:46AF                      
     440   00:46AF                      Num2asc:
     441   00:46AF  01 F0 D8            	ld  bc,-10000
     442   00:46B2  CD C8 46            	call    Num1
     443   00:46B5  01 18 FC            	ld  bc,-1000
     444   00:46B8  CD C8 46            	call    Num1
     445   00:46BB  01 9C FF            	ld  bc,-100
     446   00:46BE  CD C8 46            	call    Num1
     447   00:46C1  0E F6               	ld  c,-10
     448   00:46C3  CD C8 46            	call    Num1
     449   00:46C6  0E FF               	ld  c,-1
     450   00:46C8                      
     451   00:46C8                      Num1:   
     452   00:46C8  3E 2F               	ld  a,'0'-1  ; '0' in the tileset
     453   00:46CA                      
     454   00:46CA                      Num2:   
     455   00:46CA  3C                  	inc a
     456   00:46CB  09                  	add hl,bc
     457   00:46CC  38 FC               	jr  c,Num2
     458   00:46CE  ED 42               	sbc hl,bc
     459   00:46D0                      
     460   00:46D0  12                  	ld  (de),a
     461   00:46D1  13                  	inc de
     462   00:46D2  C9                  	ret
     463   00:46D3                      	
     464   00:46D3                      	; include enemies.asm
     465   00:46D3                      	include plot_line.asm
       1.  00:46D3                      ;;;;;;;;;;;;;;;;;;;;;;;;;;;;;;;;;;;;;;;;;;;
       2.  00:46D3                      ; no input
       3.  00:46D3                      ;;;;;;;;;;;;;;;;;;;;;;;;;;;;;;;;;;;;;;;;;;;
       4.  00:46D3                      blank_line_rgt:
       5.  00:46D3  1E F0               	ld	e,240
       6.  00:46D5  C3 DA 46            	jp	blank_line
       7.  00:46D8                      blank_line_lft:
       8.  00:46D8  1E 00               	ld	e,0
       9.  00:46DA                      blank_line:
      10.  00:46DA  F3                  	di
      11.  00:46DB  3E 24               	ld 		a, 36
      12.  00:46DD  D3 99               	out 	(0x99),a
      13.  00:46DF  3E 91               	ld 		a, 17+128
      14.  00:46E1  D3 99               	out 	(0x99),a
      15.  00:46E3  FB                  	ei
      16.  00:46E4                      	
      17.  00:46E4  CD 39 42            	call _waitvdp
      18.  00:46E7                      	
      19.  00:46E7  3A 43 CB            	ld		a,(_xoffset)
      20.  00:46EA  83                  	add		a,e
      21.  00:46EB  D3 9B               	out 	(0x9B), a 			; dx
      22.  00:46ED  AF                  	xor a
      23.  00:46EE  D3 9B               	out 	(0x9B), a			; dx (high)
      24.  00:46F0                      	
      25.  00:46F0  D3 9B               	out 	(0x9B), a			; dy
      26.  00:46F2  3A 40 CB            	ld 		a,(_displaypage)	; destination page
      27.  00:46F5  D3 9B               	out 	(0x9B), a			; dy (high-> page 0 or 1)
      28.  00:46F7                      	
      29.  00:46F7  3E 01               	ld		a,1
      30.  00:46F9  D3 9B               	out 	(0x9B), a			; x block size
      31.  00:46FB  AF                  	xor a
      32.  00:46FC  D3 9B               	out 	(0x9B), a
      33.  00:46FE                      
      34.  00:46FE  3E B0               	ld		a,11*16
      35.  00:4700  D3 9B               	out 	(0x9B), a			; y block size
      36.  00:4702  AF                  	xor a
      37.  00:4703  D3 9B               	out 	(0x9B), a
      38.  00:4705                      
      39.  00:4705  D3 9B               	out 	(0x9B), a			; color
      40.  00:4707  D3 9B               	out 	(0x9B), a
      41.  00:4709                      
      42.  00:4709  3E C0               	ld		a,11000000B
      43.  00:470B  D3 9B               	out 	(0x9B), a		; command LMMM
      44.  00:470D  C9                  	ret
      45.  00:470E                      
      46.  00:470E                      ;;;;;;;;;;;;;;;;;;;;;;;;;;;;;;;;;;;;;;;;;;;
      47.  00:470E                      ; input
      48.  00:470E                      ; e = x configured in 0-255
      49.  00:470E                      ;;;;;;;;;;;;;;;;;;;;;;;;;;;;;;;;;;;;;;;;;;;
      50.  00:470E                      plot_line_lft:
      51.  00:470E  2A 3B CB            	ld	hl,(_levelmap_pos)
      52.  00:4711  2B                  	dec	hl
      53.  00:4712  1E 00               	ld	e,0
      54.  00:4714  C3 20 47            	jp plot_line
      55.  00:4717                      plot_line_rgt:
      56.  00:4717  2A 3B CB            	ld	hl,(_levelmap_pos)
      57.  00:471A  11 10 00            	ld	de,16
      58.  00:471D  19                  	add	hl,de
      59.  00:471E  1E F0               	ld	e,240
      60.  00:4720                      plot_line:		
      61.  00:4720  16 00               	ld	d,0
      62.  00:4722  3A 43 CB            	ld	a,(_xoffset)
      63.  00:4725  83                  	add a,e
      64.  00:4726  5F                  	ld	e,a		; de = y*256+x
      65.  00:4727                      	
      66.  00:4727                      111:
      67.  00:4727  7E                  	ld	a,(hl)
      68.  00:4728  D5                  	push	de
      69.  00:4729  E5                  	push	hl
      70.  00:472A                      	
      71.  00:472A  4F                  	ld	c,a
      72.  00:472B  0F 0F 0F 0F 0F      [5]	rrca
      73.  00:4730  E6 07               	and	00000111B
      74.  00:4732  C6 04               	add	a,:_tiles0
      75.  00:4734  32 00 B0            	ld	(_kBank4),a
      76.  00:4737  79                  	ld	a,c
      77.  00:4738  E6 1F               	and	00011111B
      78.  00:473A  C6 A0               	add	a,high _tiles0
      79.  00:473C  67                  	ld	h,a
      80.  00:473D  3A 43 CB            	ld	a,(_xoffset)
      81.  00:4740  87 87 87 87         [4]	add	a,a
      82.  00:4744  6F                  	ld	l,a
      83.  00:4745                      	
      84.  00:4745  3A 40 CB            	ld	a,(_displaypage)
      85.  00:4748  CB 02               	rlc d			; set VDP for writing at address ADE (17-bit) ;
      86.  00:474A  17                  	rla
      87.  00:474B  CB 02               	rlc d
      88.  00:474D  17                  	rla
      89.  00:474E  CB 3A               	srl d 			; first shift
      90.  00:4750  F3                  	di
      91.  00:4751  D3 99               	out (0x99),a 	; set bits 14-16
      92.  00:4753  3E 8E               	ld a,14+128
      93.  00:4755  D3 99               	out (0x99),a
      94.  00:4757  FB                  	ei
      95.  00:4758  CB 3A               	srl d 			; second shift    
      96.  00:475A  CB F2               	set 6,d			; write access
      97.  00:475C                      	
      98.  00:475C  01 98 10            	ld	bc,16*256+0x98
      99.  00:475F                      
     100.  00:475F  F3                  1:	di
     101.  00:4760  7B                  	ld a,e 		;set bits 0-7
     102.  00:4761  D3 99               	out (0x99),a
     103.  00:4763  7A                  	ld a,d 		;set bits 8-13
     104.  00:4764  D3 99               	out (0x99),a
     105.  00:4766  FB                  	ei
     106.  00:4767  14                  	inc	d
     107.  00:4768  ED A3               	outi
     108.  00:476A  20 F3               	jr	nz,1b
     109.  00:476C                      	
     110.  00:476C  E1                  	pop	hl
     111.  00:476D  11 80 00            	ld	de,mapWidth
     112.  00:4770  19                  	add	hl,de
     113.  00:4771  D1                  	pop	de
     114.  00:4772  7A                  	ld	a,d
     115.  00:4773  C6 10               	add	a,16
     116.  00:4775  57                  	ld	d,a
     117.  00:4776  FE B0               	cp	11*16
     118.  00:4778  38 AD               	jr	c,111b
     119.  00:477A  C9                  	ret
     120.  00:477B                      	
     121.  00:477B                      
     122.  00:477B                      
     123.  00:477B                      ;;;;;;;;;;;;;;;;;;;;;;;;;;;;;;;;;;;;;;;;;;;
     124.  00:477B                      ; input
     125.  00:477B                      ; de = y,x configured in window map 256x256
     126.  00:477B                      ; a  tile to be plot
     127.  00:477B                      ;;;;;;;;;;;;;;;;;;;;;;;;;;;;;;;;;;;;;;;;;;;
     128.  00:477B                      plot_tile:
     129.  00:477B  D5                  		push	de
     130.  00:477C  D9                  		exx
     131.  00:477D  D1                  		pop		de
     132.  00:477E                      		
     133.  00:477E  67                  		ld	h,a
     134.  00:477F  0F 0F 0F 0F 0F      [5]		rrca
     135.  00:4784  E6 07               		and	00000111B
     136.  00:4786  C6 04               		add	a,:_tiles0
     137.  00:4788  32 00 B0            		ld	(_kBank4),a
     138.  00:478B  7C                  		ld	a,h
     139.  00:478C  E6 1F               		and	00011111B
     140.  00:478E  C6 A0               		add	a,high _tiles0
     141.  00:4790  67                  		ld	h,a
     142.  00:4791  2E 00               		ld	l,0
     143.  00:4793                      
     144.  00:4793  3A 40 CB            		ld	a,(_displaypage)
     145.  00:4796                      					; de = y*256+x
     146.  00:4796  CB 02               		rlc d		; set VDP for writing at address ADE (17-bit) ;
     147.  00:4798  17                  		rla
     148.  00:4799  CB 02               		rlc d
     149.  00:479B  17                  		rla
     150.  00:479C  CB 3A               		srl d 		 ; first shift
     151.  00:479E  F3                  		di
     152.  00:479F  D3 99               		out (0x99),a ; set bits 14-16
     153.  00:47A1  3E 8E               		ld a,14+128
     154.  00:47A3  D3 99               		out (0x99),a
     155.  00:47A5  FB                  		ei
     156.  00:47A6  CB 3A               		srl d 		 ;  second shift.     
     157.  00:47A8  CB F2               		set 6,d		 ;  write access
     158.  00:47AA                      
     159.  00:47AA  01 98 10            		ld	bc,16*256+0x98
     160.  00:47AD                      	
     161.  00:47AD  C5                  2:		push	bc
     162.  00:47AE  06 10               		ld	b,16
     163.  00:47B0                      
     164.  00:47B0  F3                  1:		di
     165.  00:47B1  7B                  		ld a,e 		;set bits 0-7
     166.  00:47B2  D3 99               		out (0x99),a
     167.  00:47B4  7A                  		ld a,d 		;set bits 8-13
     168.  00:47B5  D3 99               		out (0x99),a
     169.  00:47B7  FB                  		ei
     170.  00:47B8  14                  		inc	d
     171.  00:47B9  ED A3               		outi
     172.  00:47BB  20 F3               		jr nz,1b
     173.  00:47BD  3E F0               		ld	a,-16
     174.  00:47BF  82                  		add	a,d
     175.  00:47C0  57                  		ld	d,a
     176.  00:47C1  1C                  		inc	e
     177.  00:47C2  C1                  		pop	bc
     178.  00:47C3  10 E8               		djnz 2b
     179.  00:47C5  D9                  		exx
     180.  00:47C6  C9                  		ret
     181.  00:47C7                      
     182.  00:47C7                      init_page0:
     183.  00:47C7  3A 40 CB            		ld		a,(_displaypage)
     184.  00:47CA  57                  		ld		d,a
     185.  00:47CB  1E F0               		ld		e,240
     186.  00:47CD  2E 25               		ld		l,00100101B
     187.  00:47CF  CD 23 48            		call	clrboder
     188.  00:47D2  2A 3B CB            		ld		hl,(_levelmap_pos)
     189.  00:47D5  11 00 00            		ld		de,0x0000			; e=x=0, d=y=0
     190.  00:47D8                      		
     191.  00:47D8  06 0B               		ld		b,11
     192.  00:47DA  C5                  2:		push	bc
     193.  00:47DB  06 0F               		ld		b,15
     194.  00:47DD  7E                  1:		ld		a,(hl)
     195.  00:47DE  CD 7B 47            		call 	plot_tile
     196.  00:47E1  23                  		inc		hl
     197.  00:47E2  3E 10               		ld	a,16
     198.  00:47E4  83                  		add	a,e
     199.  00:47E5  5F                  		ld	e,a
     200.  00:47E6  10 F5               		djnz	1b
     201.  00:47E8                      				
     202.  00:47E8  58                  		ld	e,b
     203.  00:47E9  3E 10               		ld	a,16
     204.  00:47EB  82                  		add	a,d
     205.  00:47EC  57                  		ld	d,a
     206.  00:47ED  01 71 00            		ld	bc,mapWidth-15
     207.  00:47F0  09                  		add	hl,bc
     208.  00:47F1  C1                  		pop	bc
     209.  00:47F2  10 E6               		djnz	2b
     210.  00:47F4  C9                  		ret
     211.  00:47F5                      		
     212.  00:47F5                      init_page1:
     213.  00:47F5  3A 40 CB            		ld		a,(_displaypage)
     214.  00:47F8  57                  		ld		d,a
     215.  00:47F9  1E 00               		ld		e,0
     216.  00:47FB  2E 6E               		ld		l,01101110B
     217.  00:47FD  CD 23 48            		call	clrboder
     218.  00:4800  2A 3B CB            		ld		hl,(_levelmap_pos)
     219.  00:4803  11 10 00            		ld		de,0x0010			; e=x=16, d=y=0
     220.  00:4806                      		
     221.  00:4806  06 0B               		ld		b,11
     222.  00:4808  C5                  2:		push	bc
     223.  00:4809  06 0F               		ld		b,15
     224.  00:480B  7E                  1:		ld		a,(hl)
     225.  00:480C  CD 7B 47            		call 	plot_tile
     226.  00:480F  23                  		inc		hl
     227.  00:4810  3E 10               		ld	a,16
     228.  00:4812  83                  		add	a,e
     229.  00:4813  5F                  		ld	e,a
     230.  00:4814  10 F5               		djnz	1b
     231.  00:4816                      		
     232.  00:4816  1E 10               		ld	e,0x10
     233.  00:4818  7B                  		ld	a,e
     234.  00:4819  82                  		add	a,d
     235.  00:481A  57                  		ld	d,a
     236.  00:481B  01 71 00            		ld	bc,mapWidth-15
     237.  00:481E  09                  		add	hl,bc
     238.  00:481F  C1                  		pop	bc
     239.  00:4820  10 E6               		djnz	2b
     240.  00:4822  C9                  		ret
     241.  00:4823                      ;;;;;;;;;;;;;;;;;;;;;;;;;;;;;;;;;;;;;;;;;;;
     242.  00:4823                      ; input
     243.  00:4823                      ; d = page
     244.  00:4823                      ; e = dx
     245.  00:4823                      ; l = background color
     246.  00:4823                      ;;;;;;;;;;;;;;;;;;;;;;;;;;;;;;;;;;;;;;;;;;;
     247.  00:4823                      		
     248.  00:4823                      clrboder:
     249.  00:4823  F3                  	di
     250.  00:4824  3E 24               	ld 		a, 36
     251.  00:4826  D3 99               	out 	(0x99),a
     252.  00:4828  3E 91               	ld 		a, 17+128
     253.  00:482A  D3 99               	out 	(0x99),a
     254.  00:482C  FB                  	ei
     255.  00:482D                      	
     256.  00:482D  CD 39 42            	call _waitvdp
     257.  00:4830                      	
     258.  00:4830  7B                  	ld		a,e
     259.  00:4831  D3 9B               	out 	(0x9B), a 			; dx
     260.  00:4833  AF                  	xor		a
     261.  00:4834  D3 9B               	out 	(0x9B), a			; dx (high)
     262.  00:4836                      	
     263.  00:4836  D3 9B               	out 	(0x9B), a			; dy
     264.  00:4838  7A                  	ld 		a,d					; destination page
     265.  00:4839  D3 9B               	out 	(0x9B), a			; dy (high-> page 0 or 1)
     266.  00:483B                      	
     267.  00:483B  3E 10               	ld a,16
     268.  00:483D  D3 9B               	out 	(0x9B), a			; x block size
     269.  00:483F  AF                  	xor	a
     270.  00:4840  D3 9B               	out 	(0x9B), a
     271.  00:4842                      
     272.  00:4842  3E B0               	ld		a,11*16
     273.  00:4844  D3 9B               	out 	(0x9B), a			; y block size
     274.  00:4846  AF                  	xor a
     275.  00:4847  D3 9B               	out 	(0x9B), a
     276.  00:4849                      
     277.  00:4849  7D                  	ld		a,l
     278.  00:484A  D3 9B               	out 	(0x9B), a			; color
     279.  00:484C  AF                  	xor a
     280.  00:484D  D3 9B               	out 	(0x9B), a
     281.  00:484F                      
     282.  00:484F  3E C0               	ld		a,11000000B
     283.  00:4851  D3 9B               	out 	(0x9B), a		; command LMMM
     284.  00:4853  C9                  	ret
     285.  00:4854                      
     286.  00:4854                      move_block:
     287.  00:4854                      ;;;;;;;;;;;;;;;;;;;;;;;;;;;;;;;;;;;;;;;;;;;
     288.  00:4854                      ; input
     289.  00:4854                      ; e = sx	from not _displaypage
     290.  00:4854                      ; d = dx	to _displaypage
     291.  00:4854                      ;;;;;;;;;;;;;;;;;;;;;;;;;;;;;;;;;;;;;;;;;;;
     292.  00:4854                      
     293.  00:4854  F3                  	di
     294.  00:4855  3E 20               	ld 		a, 32
     295.  00:4857  D3 99               	out 	(0x99),a
     296.  00:4859  3E 91               	ld 		a, 17+128
     297.  00:485B  D3 99               	out 	(0x99),a
     298.  00:485D  FB                  	ei
     299.  00:485E                      
     300.  00:485E  0E 9B               	ld 		c, 0x9B
     301.  00:4860                      	
     302.  00:4860  CD 39 42            	call _waitvdp;
     303.  00:4863                      	
     304.  00:4863  ED 59               	out		(c), e 		; sx
     305.  00:4865  AF                  	xor a
     306.  00:4866  D3 9B               	out		(0x9B), a 	; sx (high)
     307.  00:4868                      	
     308.  00:4868  D3 9B               	out		(0x9B), a 	; sy
     309.  00:486A  3A 40 CB            	ld 		a,(_displaypage)	; source page
     310.  00:486D  D3 9B               	out 	(0x9B), a 	; sy 	(high-> page 0 or 1)
     311.  00:486F                      
     312.  00:486F  ED 51               	out 	(c), d 		; dx
     313.  00:4871  AF                  	xor a
     314.  00:4872  D3 9B               	out 	(0x9B), a	; dx (high)
     315.  00:4874                      	
     316.  00:4874  D3 9B               	out 	(0x9B), a 		; dy
     317.  00:4876  3A 40 CB            	ld 		a,(_displaypage)	; destination page
     318.  00:4879  EE 01               	xor	1				
     319.  00:487B  D3 9B               	out 	(0x9B), a	; dy 	(high-> page 0 or 1)
     320.  00:487D                      
     321.  00:487D  3E 10               	ld 		a,16 		; block size
     322.  00:487F  D3 9B               	out 	(0x9B), a
     323.  00:4881  AF                  	xor a
     324.  00:4882  D3 9B               	out 	(0x9B), a	
     325.  00:4884  3E B0               	ld		a,11*16
     326.  00:4886  D3 9B               	out 	(0x9B), a
     327.  00:4888  AF                  	xor		a
     328.  00:4889  D3 9B               	out 	(0x9B), a
     329.  00:488B  D3 9B               	out 	(0x9B), a
     330.  00:488D  D3 9B               	out 	(0x9B), a
     331.  00:488F                      
     332.  00:488F  3E D0               	ld		a,11010000B
     333.  00:4891  D3 9B               	out 	(0x9B), a		; command HMMM
     334.  00:4893  C9                  	ret
     335.  00:4894                      	
     466   00:4894                      	
     467   00:4894                      	; page 16,17	
     468   00:4894                      	; include text.asm	
     469   00:4894                      	
     470   00:4894                      	page 0,1	
     471   00:4000                      _metatable:
     472   00:4000                      	; incbin 	metatable.bin
     473   00:4000                      	
     474   00:4000  (01)                	page 1
     475   01:6000                      _backmap:
     476   01:6000                      	; incbin	backmap.bin
     477   01:6000                      
     478   01:6000                      	; include hwsprites.asm
     479   01:6000                      	
     480   01:6000                      	; include mainhero_LMMM.asm
     481   01:6000                      	; include probe_level.asm
     482   01:6000                      
     483   01:6000                      
     484   01:6000                      	page 2,3
     485   02:8000                      _frame:
     486   02:8000                      	; incbin "_frame.bin"
     487   02:8000                      _mc_sprites:	
     488   02:8000                      	; incbin "_sprites.bin"			
     489   02:8000                      	
     490   02:8000  (04)                	page 4
     491   04:A000                      _tiles0:
     492   04:A000  (2000)              	incbin "tiles.bin",0x0000,0x2000
     493   04:C000  (05)                	page 5
     494   05:A000  (2000)              	incbin "tiles.bin",0x2000,0x2000
     495   05:C000  (06)                	page 6
     496   06:A000  (2000)              	incbin "tiles.bin",0x4000,0x2000
     497   06:C000  (07)                	page 7
     498   07:A000  (1300)              	incbin "tiles.bin",0x6000;,0x2000
     499   07:B300                      	; page 8
     500   07:B300                      	; incbin "tiles.bin",0x8000,0x2000
     501   07:B300                      	; page 9
     502   07:B300                      	; incbin "tiles.bin",0xA000,0x2000
     503   07:B300                      	; page 10
     504   07:B300                      	; incbin "tiles.bin",0xC000,0x2000
     505   07:B300                      	; page 11
     506   07:B300                      	; incbin "tiles.bin",0xE000,0x2000
     507   07:B300                      	
     508   07:B300                      	
     509   07:B300                      	page 14,15
     510   0E:9411                      _level:
     511   0E:9411  (0580)              	incbin "datamap.bin"
     512   0E:9991                      	
     513   0E:9991                      _level_bf:	
     514   0E:9991                      	; incbin "BitField.bin"	
     515   0E:9991                      	
     516   0E:9991                      	page 10,11
     517   0A:A000                      sprtdata
     518   0A:A000                      	; include 	SPROL.ASM
     519   0A:A000                      	
     520   0A:A000  (0E)                	page 14
     521   0E:8000                      demo_song:
     522   0E:8000                      	include	".\demosong.asm"
       1.  0E:8000                      ; Compiled using tt_compile.exe V0.2.1 [30-03-2015]
       2.  0E:8000                      ; Copyright 2015 Richard Cornelisse
       3.  0E:8000                      
       4.  0E:8000                      ; Song: A N A L - M A U L               
       5.  0E:8000                      ; By:   Arr. John Hassink 2009-2013     
       6.  0E:8000                      
       7.  0E:8000                      ;	org $c000
       8.  0E:8000                      
       9.  0E:8000                      ; [ Song start data ]
      10.  0E:8000  06                  	db $06				; Initial song speed.
      11.  0E:8001  F9 81               	dw .waveform_start 		; Start of the waveform data.
      12.  0E:8003  F9 85               	dw .instrument_start 		; Start of the instrument data.
      13.  0E:8005                      
      14.  0E:8005                      ; [ Song order pointer list ]
      15.  0E:8005                      		dw .track_0,.track_1,.track_2,.track_3,.track_4,.track_5,.track_6,.track_7		; Sequence step 0 /pattern 0
      15.  0E:8005  CC 87 F9 87 1D 88 49 88 5A 88 7E 88 9F 88 B0 88 
      16.  0E:8015                      		dw .track_8,.track_9,.track_10,.track_11,.track_12,.track_13,.track_14,.track_15		; Sequence step 1 /pattern 1
      16.  0E:8015  C4 88 DB 88 12 89 36 89 4B 89 6D 89 96 89 A9 89 
      17.  0E:8025                      .restart:
      18.  0E:8025                      		dw .track_16,.track_17,.track_18,.track_19,.track_20,.track_21,.track_22,.track_23		; Sequence step 2 /pattern 2
      18.  0E:8025  BE 89 F1 89 15 8A 32 8A 36 8A 45 8A 5C 8A 77 8A 
      19.  0E:8035                      		dw .track_16,.track_24,.track_25,.track_26,.track_27,.track_28,.track_29,.track_30		; Sequence step 3 /pattern 3
      19.  0E:8035  BE 89 96 8A BA 8A D3 8A D6 8A DC 8A F3 8A 0A 8B 
      20.  0E:8045                      		dw .track_16,.track_31,.track_32,.track_26,.track_20,.track_21,.track_33,.track_34		; Sequence step 4 /pattern 4
      20.  0E:8045  BE 89 22 8B 46 8B D3 8A 36 8A 45 8A 61 8B 7B 8B 
      21.  0E:8055                      		dw .track_35,.track_36,.track_37,.track_26,.track_38,.track_39,.track_37,.track_40		; Sequence step 5 /pattern 5
      21.  0E:8055  96 8B D5 8B F5 8B D3 8A 09 8C 1D 8C F5 8B 34 8C 
      22.  0E:8065                      		dw .track_16,.track_31,.track_41,.track_42,.track_20,.track_21,.track_41,.track_43		; Sequence step 6 /pattern 6
      22.  0E:8065  BE 89 22 8B 49 8C 64 8C 36 8A 45 8A 49 8C 73 8C 
      23.  0E:8075                      		dw .track_16,.track_44,.track_45,.track_46,.track_27,.track_28,.track_47,.track_48		; Sequence step 7 /pattern 7
      23.  0E:8075  BE 89 8F 8C AF 8C C6 8C D6 8A DC 8A D1 8C E6 8C 
      24.  0E:8085                      		dw .track_16,.track_31,.track_49,.track_50,.track_51,.track_21,.track_52,.track_53		; Sequence step 8 /pattern 8
      24.  0E:8085  BE 89 22 8B FC 8C 17 8D 25 8D 45 8A 31 8D 4B 8D 
      25.  0E:8095                      		dw .track_54,.track_55,.track_56,.track_57,.track_58,.track_59,.track_56,.track_60		; Sequence step 9 /pattern 9
      25.  0E:8095  66 8D A2 8D BE 8D CB 8D DB 8D E8 8D BE 8D 02 8E 
      26.  0E:80A5                      		dw .track_61,.track_62,.track_63,.track_19,.track_64,.track_65,.track_66,.track_67		; Sequence step 10 /pattern 10
      26.  0E:80A5  10 8E 3C 8E 63 8E 32 8A 81 8E 89 8E 9F 8E AA 8E 
      27.  0E:80B5                      		dw .track_68,.track_69,.track_70,.track_26,.track_71,.track_72,.track_73,.track_74		; Sequence step 11 /pattern 11
      27.  0E:80B5  B7 8E F2 8E 19 8F D3 8A 29 8F 2F 8F 44 8F 4F 8F 
      28.  0E:80C5                      		dw .track_75,.track_76,.track_77,.track_26,.track_78,.track_79,.track_80,.track_81		; Sequence step 12 /pattern 12
      28.  0E:80C5  5C 8F 94 8F B5 8F D3 8A D0 8F DD 8F F6 8F FC 8F 
      29.  0E:80D5                      		dw .track_82,.track_83,.track_84,.track_26,.track_85,.track_86,.track_87,.track_88		; Sequence step 13 /pattern 13
      29.  0E:80D5  04 90 2B 90 73 90 D3 8A 7B 90 7E 90 B7 90 BA 90 
      30.  0E:80E5                      		dw .track_16,.track_17,.track_18,.track_19,.track_20,.track_21,.track_22,.track_23		; Sequence step 14 /pattern 2
      30.  0E:80E5  BE 89 F1 89 15 8A 32 8A 36 8A 45 8A 5C 8A 77 8A 
      31.  0E:80F5                      		dw .track_16,.track_24,.track_25,.track_26,.track_27,.track_28,.track_29,.track_30		; Sequence step 15 /pattern 3
      31.  0E:80F5  BE 89 96 8A BA 8A D3 8A D6 8A DC 8A F3 8A 0A 8B 
      32.  0E:8105                      		dw .track_16,.track_31,.track_32,.track_26,.track_20,.track_21,.track_33,.track_34		; Sequence step 16 /pattern 4
      32.  0E:8105  BE 89 22 8B 46 8B D3 8A 36 8A 45 8A 61 8B 7B 8B 
      33.  0E:8115                      		dw .track_35,.track_36,.track_37,.track_26,.track_38,.track_39,.track_37,.track_40		; Sequence step 17 /pattern 5
      33.  0E:8115  96 8B D5 8B F5 8B D3 8A 09 8C 1D 8C F5 8B 34 8C 
      34.  0E:8125                      		dw .track_16,.track_31,.track_41,.track_42,.track_20,.track_21,.track_41,.track_43		; Sequence step 18 /pattern 6
      34.  0E:8125  BE 89 22 8B 49 8C 64 8C 36 8A 45 8A 49 8C 73 8C 
      35.  0E:8135                      		dw .track_16,.track_44,.track_45,.track_46,.track_27,.track_28,.track_47,.track_48		; Sequence step 19 /pattern 7
      35.  0E:8135  BE 89 8F 8C AF 8C C6 8C D6 8A DC 8A D1 8C E6 8C 
      36.  0E:8145                      		dw .track_16,.track_31,.track_49,.track_50,.track_51,.track_21,.track_52,.track_53		; Sequence step 20 /pattern 8
      36.  0E:8145  BE 89 22 8B FC 8C 17 8D 25 8D 45 8A 31 8D 4B 8D 
      37.  0E:8155                      		dw .track_54,.track_55,.track_56,.track_57,.track_58,.track_59,.track_56,.track_60		; Sequence step 21 /pattern 9
      37.  0E:8155  66 8D A2 8D BE 8D CB 8D DB 8D E8 8D BE 8D 02 8E 
      38.  0E:8165                      		dw .track_61,.track_62,.track_63,.track_19,.track_64,.track_65,.track_66,.track_67		; Sequence step 22 /pattern 10
      38.  0E:8165  10 8E 3C 8E 63 8E 32 8A 81 8E 89 8E 9F 8E AA 8E 
      39.  0E:8175                      		dw .track_68,.track_69,.track_70,.track_26,.track_71,.track_72,.track_73,.track_74		; Sequence step 23 /pattern 11
      39.  0E:8175  B7 8E F2 8E 19 8F D3 8A 29 8F 2F 8F 44 8F 4F 8F 
      40.  0E:8185                      		dw .track_75,.track_76,.track_77,.track_129,.track_78,.track_79,.track_80,.track_81		; Sequence step 24 /pattern 20
      40.  0E:8185  5C 8F 94 8F B5 8F 05 94 D0 8F DD 8F F6 8F FC 8F 
      41.  0E:8195                      		dw .track_82,.track_83,.track_89,.track_90,.track_85,.track_86,.track_91,.track_92		; Sequence step 25 /pattern 14
      41.  0E:8195  04 90 2B 90 BE 90 C9 90 7B 90 7E 90 CE 90 D8 90 
      42.  0E:81A5                      		dw .track_93,.track_94,.track_95,.track_96,.track_97,.track_21,.track_95,.track_98		; Sequence step 26 /pattern 15
      42.  0E:81A5  E3 90 15 91 34 91 3D 91 5A 91 45 8A 34 91 65 91 
      43.  0E:81B5                      		dw .track_99,.track_100,.track_101,.track_102,.track_103,.track_28,.track_104,.track_105		; Sequence step 27 /pattern 16
      43.  0E:81B5  72 91 A9 91 C8 91 DA 91 F5 91 DC 8A 00 92 10 92 
      44.  0E:81C5                      		dw .track_106,.track_107,.track_108,.track_109,.track_110,.track_111,.track_112,.track_113		; Sequence step 28 /pattern 17
      44.  0E:81C5  22 92 54 92 73 92 86 92 A1 92 AA 92 C1 92 D1 92 
      45.  0E:81D5                      		dw .track_114,.track_115,.track_116,.track_117,.track_118,.track_119,.track_120,.track_121		; Sequence step 29 /pattern 18
      45.  0E:81D5  E9 92 18 93 3A 93 4A 93 65 93 72 93 8B 93 98 93 
      46.  0E:81E5                      		dw .track_122,.track_123,.track_124,.track_125,.track_126,.track_127,.track_128,.track_128		; Sequence step 30 /pattern 19
      46.  0E:81E5  A8 93 CE 93 DE 93 E5 93 F3 93 F7 93 03 94 03 94 
      47.  0E:81F5  00 00 25 80         		dw 0x0000, .restart			; End of sequence delimiter + restart address.
      48.  0E:81F9                      
      49.  0E:81F9                      .waveform_start:
      50.  0E:81F9                      	db $00,$70,$50,$20,$50,$70,$30,$00,$50,$7F,$60,$10,$30,$40,$00,$B0,$10,$60,$00,$E0,$F0,$00,$B0,$90,$C0,$10,$E0,$A0,$C0,$F0,$C0,$A0	; Waveform 0
      50.  0E:81F9  00 70 50 20 50 70 30 00 50 7F 60 10 30 40 00 B0 
      50.  0E:8209  10 60 00 E0 F0 00 B0 90 C0 10 E0 A0 C0 F0 C0 A0 
      51.  0E:8219                      	db $30,$50,$50,$30,$00,$00,$10,$40,$60,$70,$60,$30,$F0,$E0,$E0,$00,$20,$20,$10,$C0,$A0,$90,$A0,$C0,$00,$00,$D0,$B0,$B0,$D0,$00,$00	; Waveform 1
      51.  0E:8219  30 50 50 30 00 00 10 40 60 70 60 30 F0 E0 E0 00 
      51.  0E:8229  20 20 10 C0 A0 90 A0 C0 00 00 D0 B0 B0 D0 00 00 
      52.  0E:8239                      	db $00,$20,$30,$40,$50,$58,$60,$68,$70,$68,$60,$58,$50,$40,$30,$20,$00,$E0,$D0,$C0,$B0,$A0,$98,$90,$88,$90,$98,$A0,$B0,$C0,$D0,$E0	; Waveform 2
      52.  0E:8239  00 20 30 40 50 58 60 68 70 68 60 58 50 40 30 20 
      52.  0E:8249  00 E0 D0 C0 B0 A0 98 90 88 90 98 A0 B0 C0 D0 E0 
      53.  0E:8259                      	db $00,$19,$31,$47,$5A,$6A,$75,$7D,$7F,$7D,$75,$6A,$5A,$47,$31,$19,$00,$E0,$C0,$A0,$80,$A0,$C0,$E0,$00,$20,$40,$60,$7F,$60,$40,$20	; Waveform 3
      53.  0E:8259  00 19 31 47 5A 6A 75 7D 7F 7D 75 6A 5A 47 31 19 
      53.  0E:8269  00 E0 C0 A0 80 A0 C0 E0 00 20 40 60 7F 60 40 20 
      54.  0E:8279                      	db $00,$4E,$62,$6D,$75,$7A,$7D,$7E,$7F,$7E,$7D,$7A,$75,$6D,$62,$4E,$00,$B1,$9D,$92,$8A,$85,$82,$81,$80,$81,$82,$85,$8A,$92,$9D,$B1	; Waveform 4
      54.  0E:8279  00 4E 62 6D 75 7A 7D 7E 7F 7E 7D 7A 75 6D 62 4E 
      54.  0E:8289  00 B1 9D 92 8A 85 82 81 80 81 82 85 8A 92 9D B1 
      55.  0E:8299                      	db $C0,$C0,$C0,$C0,$C0,$C0,$C0,$C0,$C0,$C0,$C0,$C0,$C0,$C0,$C0,$C0,$3F,$3F,$3F,$3F,$3F,$3F,$3F,$3F,$3F,$3F,$3F,$3F,$3F,$3F,$3F,$7F	; Waveform 5
      55.  0E:8299  C0 C0 C0 C0 C0 C0 C0 C0 C0 C0 C0 C0 C0 C0 C0 C0 
      55.  0E:82A9  3F 3F 3F 3F 3F 3F 3F 3F 3F 3F 3F 3F 3F 3F 3F 7F 
      56.  0E:82B9                      	db $80,$C8,$20,$7F,$30,$C8,$80,$90,$A8,$C0,$E0,$00,$20,$38,$50,$60,$70,$78,$7C,$7F,$7C,$78,$70,$60,$50,$38,$20,$00,$E0,$C0,$A8,$90	; Waveform 6
      56.  0E:82B9  80 C8 20 7F 30 C8 80 90 A8 C0 E0 00 20 38 50 60 
      56.  0E:82C9  70 78 7C 7F 7C 78 70 60 50 38 20 00 E0 C0 A8 90 
      57.  0E:82D9                      	db $80,$88,$90,$98,$A0,$B0,$B0,$B8,$C0,$C8,$D0,$D8,$E0,$E8,$F0,$F8,$00,$08,$10,$18,$20,$28,$30,$38,$40,$48,$50,$58,$60,$68,$70,$78	; Waveform 7
      57.  0E:82D9  80 88 90 98 A0 B0 B0 B8 C0 C8 D0 D8 E0 E8 F0 F8 
      57.  0E:82E9  00 08 10 18 20 28 30 38 40 48 50 58 60 68 70 78 
      58.  0E:82F9                      	db $00,$68,$48,$18,$48,$68,$28,$00,$48,$77,$58,$08,$28,$38,$00,$B8,$08,$58,$00,$E8,$F8,$00,$B8,$98,$C8,$08,$E8,$A8,$C8,$F8,$C8,$A8	; Waveform 8
      58.  0E:82F9  00 68 48 18 48 68 28 00 48 77 58 08 28 38 00 B8 
      58.  0E:8309  08 58 00 E8 F8 00 B8 98 C8 08 E8 A8 C8 F8 C8 A8 
      59.  0E:8319                      	db $A0,$90,$90,$A0,$A0,$B0,$B0,$B0,$C0,$C0,$D0,$D0,$E0,$E0,$F0,$F0,$00,$00,$10,$10,$20,$20,$30,$30,$40,$40,$50,$50,$60,$60,$60,$50	; Waveform 9
      59.  0E:8319  A0 90 90 A0 A0 B0 B0 B0 C0 C0 D0 D0 E0 E0 F0 F0 
      59.  0E:8329  00 00 10 10 20 20 30 30 40 40 50 50 60 60 60 50 
      60.  0E:8339                      	db $00,$F8,$F0,$E8,$E0,$D8,$D0,$C8,$C0,$B8,$B0,$A8,$A0,$98,$90,$88,$80,$7F,$70,$68,$60,$58,$50,$48,$40,$38,$30,$28,$20,$18,$10,$08	; Waveform 10
      60.  0E:8339  00 F8 F0 E8 E0 D8 D0 C8 C0 B8 B0 A8 A0 98 90 88 
      60.  0E:8349  80 7F 70 68 60 58 50 48 40 38 30 28 20 18 10 08 
      61.  0E:8359                      	db $00,$00,$00,$00,$00,$40,$40,$00,$00,$B0,$B0,$B0,$00,$00,$00,$00,$40,$40,$40,$00,$B0,$B0,$00,$00,$00,$00,$40,$40,$00,$00,$B0,$B0	; Waveform 11
      61.  0E:8359  00 00 00 00 00 40 40 00 00 B0 B0 B0 00 00 00 00 
      61.  0E:8369  40 40 40 00 B0 B0 00 00 00 00 40 40 00 00 B0 B0 
      62.  0E:8379                      	db $00,$20,$30,$40,$50,$58,$60,$68,$70,$68,$60,$58,$50,$40,$30,$20,$00,$E0,$D0,$C0,$B0,$A0,$98,$90,$88,$90,$98,$A0,$B0,$C0,$D0,$E0	; Waveform 12
      62.  0E:8379  00 20 30 40 50 58 60 68 70 68 60 58 50 40 30 20 
      62.  0E:8389  00 E0 D0 C0 B0 A0 98 90 88 90 98 A0 B0 C0 D0 E0 
      63.  0E:8399                      	db $00,$7F,$00,$80,$A0,$C0,$D8,$F0,$08,$20,$30,$40,$50,$60,$70,$78,$7C,$7F,$7C,$78,$70,$60,$50,$40,$30,$20,$08,$F0,$D8,$C0,$A0,$80	; Waveform 13
      63.  0E:8399  00 7F 00 80 A0 C0 D8 F0 08 20 30 40 50 60 70 78 
      63.  0E:83A9  7C 7F 7C 78 70 60 50 40 30 20 08 F0 D8 C0 A0 80 
      64.  0E:83B9                      	db $80,$B0,$C0,$10,$1A,$2A,$2C,$1A,$00,$E0,$D0,$E0,$22,$53,$70,$75,$70,$31,$EA,$80,$88,$8A,$8C,$8E,$00,$7F,$75,$73,$62,$00,$C0,$90	; Waveform 14
      64.  0E:83B9  80 B0 C0 10 1A 2A 2C 1A 00 E0 D0 E0 22 53 70 75 
      64.  0E:83C9  70 31 EA 80 88 8A 8C 8E 00 7F 75 73 62 00 C0 90 
      65.  0E:83D9                      	db $80,$8E,$A0,$C0,$E0,$00,$20,$3F,$3E,$3C,$3A,$37,$31,$29,$20,$1C,$10,$00,$E6,$C0,$D0,$00,$20,$3F,$10,$E0,$80,$C0,$00,$20,$00,$90	; Waveform 15
      65.  0E:83D9  80 8E A0 C0 E0 00 20 3F 3E 3C 3A 37 31 29 20 1C 
      65.  0E:83E9  10 00 E6 C0 D0 00 20 3F 10 E0 80 C0 00 20 00 90 
      66.  0E:83F9                      	db $01,$2A,$40,$50,$5C,$68,$70,$78,$7F,$78,$70,$68,$5C,$50,$40,$2A,$FF,$D6,$C0,$B0,$A4,$98,$90,$88,$81,$88,$90,$98,$A4,$B0,$C0,$D6	; Waveform 16
      66.  0E:83F9  01 2A 40 50 5C 68 70 78 7F 78 70 68 5C 50 40 2A 
      66.  0E:8409  FF D6 C0 B0 A4 98 90 88 81 88 90 98 A4 B0 C0 D6 
      67.  0E:8419                      	db $00,$40,$7F,$40,$01,$C0,$81,$C0,$01,$40,$7F,$40,$01,$C0,$01,$40,$01,$E0,$01,$20,$01,$F0,$01,$10,$01,$FF,$FF,$FF,$FF,$40,$40,$40	; Waveform 17
      67.  0E:8419  00 40 7F 40 01 C0 81 C0 01 40 7F 40 01 C0 01 40 
      67.  0E:8429  01 E0 01 20 01 F0 01 10 01 FF FF FF FF 40 40 40 
      68.  0E:8439                      	db $00,$40,$7F,$40,$01,$10,$20,$2D,$37,$44,$4E,$59,$63,$6C,$73,$78,$7C,$7F,$7C,$78,$73,$6C,$59,$4E,$44,$37,$2D,$20,$10,$03,$02,$01	; Waveform 18
      68.  0E:8439  00 40 7F 40 01 10 20 2D 37 44 4E 59 63 6C 73 78 
      68.  0E:8449  7C 7F 7C 78 73 6C 59 4E 44 37 2D 20 10 03 02 01 
      69.  0E:8459                      	db $00,$40,$7F,$40,$10,$01,$EA,$D6,$C3,$B9,$AF,$A4,$9C,$95,$8F,$8A,$86,$83,$81,$83,$86,$8A,$8F,$95,$9C,$A4,$AF,$B9,$C3,$D6,$EA,$FF	; Waveform 19
      69.  0E:8459  00 40 7F 40 10 01 EA D6 C3 B9 AF A4 9C 95 8F 8A 
      69.  0E:8469  86 83 81 83 86 8A 8F 95 9C A4 AF B9 C3 D6 EA FF 
      70.  0E:8479                      	db $00,$40,$7F,$40,$00,$C0,$FF,$C0,$05,$EB,$D6,$C3,$B9,$AF,$A4,$9C,$95,$8F,$89,$84,$81,$84,$89,$8F,$95,$9C,$A4,$AF,$B9,$C3,$D6,$EA	; Waveform 20
      70.  0E:8479  00 40 7F 40 00 C0 FF C0 05 EB D6 C3 B9 AF A4 9C 
      70.  0E:8489  95 8F 89 84 81 84 89 8F 95 9C A4 AF B9 C3 D6 EA 
      71.  0E:8499                      	db $00,$F0,$E0,$D0,$C0,$B0,$A0,$90,$80,$80,$80,$80,$80,$80,$80,$80,$80,$80,$80,$80,$80,$80,$80,$80,$7F,$70,$60,$50,$40,$30,$20,$10	; Waveform 21
      71.  0E:8499  00 F0 E0 D0 C0 B0 A0 90 80 80 80 80 80 80 80 80 
      71.  0E:84A9  80 80 80 80 80 80 80 80 7F 70 60 50 40 30 20 10 
      72.  0E:84B9                      	db $00,$30,$50,$60,$70,$60,$50,$30,$00,$D0,$B0,$A0,$90,$A0,$B0,$D0,$00,$40,$60,$70,$60,$40,$00,$C0,$A0,$90,$A0,$C0,$00,$70,$00,$90	; Waveform 22
      72.  0E:84B9  00 30 50 60 70 60 50 30 00 D0 B0 A0 90 A0 B0 D0 
      72.  0E:84C9  00 40 60 70 60 40 00 C0 A0 90 A0 C0 00 70 00 90 
      73.  0E:84D9                      	db $30,$50,$50,$30,$00,$00,$10,$40,$60,$70,$60,$30,$F0,$E0,$E0,$00,$20,$20,$10,$C0,$A0,$90,$A0,$C0,$00,$00,$D0,$B0,$B0,$D0,$00,$00	; Waveform 23
      73.  0E:84D9  30 50 50 30 00 00 10 40 60 70 60 30 F0 E0 E0 00 
      73.  0E:84E9  20 20 10 C0 A0 90 A0 C0 00 00 D0 B0 B0 D0 00 00 
      74.  0E:84F9                      	db $A0,$90,$90,$A0,$A0,$B0,$B0,$B0,$C0,$C0,$D0,$D0,$E0,$E0,$F0,$F0,$00,$00,$10,$10,$20,$20,$30,$30,$40,$40,$50,$50,$60,$60,$60,$50	; Waveform 24
      74.  0E:84F9  A0 90 90 A0 A0 B0 B0 B0 C0 C0 D0 D0 E0 E0 F0 F0 
      74.  0E:8509  00 00 10 10 20 20 30 30 40 40 50 50 60 60 60 50 
      75.  0E:8519                      	db $00,$7F,$00,$80,$A0,$C0,$D8,$F0,$08,$20,$30,$40,$50,$60,$70,$78,$7C,$7F,$7C,$78,$70,$60,$50,$40,$30,$20,$08,$F0,$D8,$C0,$A0,$80	; Waveform 25
      75.  0E:8519  00 7F 00 80 A0 C0 D8 F0 08 20 30 40 50 60 70 78 
      75.  0E:8529  7C 7F 7C 78 70 60 50 40 30 20 08 F0 D8 C0 A0 80 
      76.  0E:8539                      	db $7F,$80,$7F,$80,$7F,$80,$7F,$80,$7F,$80,$7F,$80,$7F,$80,$7F,$80,$7F,$80,$7F,$80,$7F,$80,$7F,$80,$7F,$80,$7F,$80,$7F,$80,$7F,$80	; Waveform 26
      76.  0E:8539  7F 80 7F 80 7F 80 7F 80 7F 80 7F 80 7F 80 7F 80 
      76.  0E:8549  7F 80 7F 80 7F 80 7F 80 7F 80 7F 80 7F 80 7F 80 
      77.  0E:8559                      	db $7F,$80,$7F,$80,$7F,$80,$7F,$80,$00,$00,$00,$00,$00,$00,$00,$00,$00,$00,$00,$00,$00,$00,$00,$00,$7F,$80,$7F,$80,$7F,$80,$7F,$80	; Waveform 27
      77.  0E:8559  7F 80 7F 80 7F 80 7F 80 00 00 00 00 00 00 00 00 
      77.  0E:8569  00 00 00 00 00 00 00 00 7F 80 7F 80 7F 80 7F 80 
      78.  0E:8579                      	db $00,$70,$50,$20,$50,$70,$30,$00,$50,$7F,$60,$10,$30,$40,$00,$B0,$10,$60,$00,$E0,$F0,$00,$B0,$90,$C0,$10,$E0,$A0,$C0,$F0,$C0,$A0	; Waveform 28
      78.  0E:8579  00 70 50 20 50 70 30 00 50 7F 60 10 30 40 00 B0 
      78.  0E:8589  10 60 00 E0 F0 00 B0 90 C0 10 E0 A0 C0 F0 C0 A0 
      79.  0E:8599                      	db $80,$88,$90,$98,$A0,$B0,$B0,$B8,$C0,$C8,$D0,$D8,$E0,$E8,$F0,$F8,$00,$08,$10,$18,$20,$28,$30,$38,$40,$48,$50,$58,$60,$68,$70,$78	; Waveform 29
      79.  0E:8599  80 88 90 98 A0 B0 B0 B8 C0 C8 D0 D8 E0 E8 F0 F8 
      79.  0E:85A9  00 08 10 18 20 28 30 38 40 48 50 58 60 68 70 78 
      80.  0E:85B9                      	db $00,$00,$00,$00,$00,$78,$78,$00,$00,$80,$80,$80,$00,$00,$00,$00,$78,$78,$78,$00,$80,$80,$00,$00,$00,$00,$78,$78,$00,$00,$80,$80	; Waveform 30
      80.  0E:85B9  00 00 00 00 00 78 78 00 00 80 80 80 00 00 00 00 
      80.  0E:85C9  78 78 78 00 80 80 00 00 00 00 78 78 00 00 80 80 
      81.  0E:85D9                      	db $00,$00,$00,$00,$00,$00,$00,$00,$00,$00,$00,$00,$00,$00,$00,$00,$00,$00,$00,$00,$00,$00,$00,$00,$00,$00,$00,$00,$00,$00,$00,$00	; Waveform 31
      81.  0E:85D9  00 00 00 00 00 00 00 00 00 00 00 00 00 00 00 00 
      81.  0E:85E9  00 00 00 00 00 00 00 00 00 00 00 00 00 00 00 00 
      82.  0E:85F9                      
      83.  0E:85F9                      .instrument_start:
      84.  0E:85F9                      	dw .ins_1,.ins_2,.ins_3,.ins_4,.ins_5,.ins_6,.ins_7,.ins_8,.ins_9,.ins_10,.ins_11,.ins_12,.ins_13,.ins_14,.ins_15,.ins_16,.ins_17,.ins_18,.ins_19,.ins_20,.ins_21,.ins_22,.ins_23,.ins_24,.ins_25,.ins_26,.ins_27,.ins_28,.ins_29,.ins_30,.ins_31
      84.  0E:85F9  37 86 6B 86 85 86 85 86 B5 86 E5 86 15 87 15 87 
      84.  0E:8609  15 87 15 87 15 87 15 87 15 87 15 87 49 87 49 87 
      84.  0E:8619  81 87 89 87 9B 87 AD 87 B3 87 C0 87 C8 87 C8 87 
      84.  0E:8629  C8 87 C8 87 C8 87 C8 87 C8 87 C8 87 C8 87 
      85.  0E:8637                      .ins_1:						; Violin          
      86.  0E:8637  01                  		db 1					; Waveform
      87.  0E:8638  12                  		db .rst_i1-(.ins_1 +2)		; Restart
      88.  0E:8639  11 0A               		db $11,$0A
      89.  0E:863B  11 0A               		db $11,$0A
      90.  0E:863D  11 0B               		db $11,$0B
      91.  0E:863F  11 0B               		db $11,$0B
      92.  0E:8641  11 0C               		db $11,$0C
      93.  0E:8643  11 0C               		db $11,$0C
      94.  0E:8645  11 0C               		db $11,$0C
      95.  0E:8647  11 0A               		db $11,$0A
      96.  0E:8649  11 09               		db $11,$09
      97.  0E:864B                      .rst_i1:
      98.  0E:864B  15 08 01 00         		db $15,$08,$01,$00
      99.  0E:864F  15 08 02 00         		db $15,$08,$02,$00
     100.  0E:8653  15 07 FE FF         		db $15,$07,$FE,$FF
     101.  0E:8657  15 07 FF FF         		db $15,$07,$FF,$FF
     102.  0E:865B  15 07 FF FF         		db $15,$07,$FF,$FF
     103.  0E:865F  15 07 FE FF         		db $15,$07,$FE,$FF
     104.  0E:8663  15 07 02 00         		db $15,$07,$02,$00
     105.  0E:8667  1D 07 01 00         		db $1D,$07,$01,$00
     106.  0E:866B                      .ins_2:						; Guitar          
     107.  0E:866B  02                  		db 2					; Waveform
     108.  0E:866C  12                  		db .rst_i2-(.ins_2 +2)		; Restart
     109.  0E:866D  11 0C               		db $11,$0C
     110.  0E:866F  11 0B               		db $11,$0B
     111.  0E:8671  11 0C               		db $11,$0C
     112.  0E:8673  11 0B               		db $11,$0B
     113.  0E:8675  11 0B               		db $11,$0B
     114.  0E:8677  11 0B               		db $11,$0B
     115.  0E:8679  11 0B               		db $11,$0B
     116.  0E:867B  11 0A               		db $11,$0A
     117.  0E:867D  11 09               		db $11,$09
     118.  0E:867F                      .rst_i2:
     119.  0E:867F  11 08               		db $11,$08
     120.  0E:8681  11 08               		db $11,$08
     121.  0E:8683  19 08               		db $19,$08
     122.  0E:8685                      .ins_3:						; Piano           
     123.  0E:8685                      .ins_4:						; Flute           
     124.  0E:8685  04                  		db 4					; Waveform
     125.  0E:8686  16                  		db .rst_i4-(.ins_4 +2)		; Restart
     126.  0E:8687  11 03               		db $11,$03
     127.  0E:8689  11 03               		db $11,$03
     128.  0E:868B  11 04               		db $11,$04
     129.  0E:868D  11 04               		db $11,$04
     130.  0E:868F  11 05               		db $11,$05
     131.  0E:8691  11 05               		db $11,$05
     132.  0E:8693  11 06               		db $11,$06
     133.  0E:8695  11 06               		db $11,$06
     134.  0E:8697  11 07               		db $11,$07
     135.  0E:8699  11 07               		db $11,$07
     136.  0E:869B  11 06               		db $11,$06
     137.  0E:869D                      .rst_i4:
     138.  0E:869D  15 05 01 00         		db $15,$05,$01,$00
     139.  0E:86A1  15 05 02 00         		db $15,$05,$02,$00
     140.  0E:86A5  15 05 FD FF         		db $15,$05,$FD,$FF
     141.  0E:86A9  15 05 FF FF         		db $15,$05,$FF,$FF
     142.  0E:86AD  15 05 FE FF         		db $15,$05,$FE,$FF
     143.  0E:86B1  1D 05 03 00         		db $1D,$05,$03,$00
     144.  0E:86B5                      .ins_5:						; Clarinet        
     145.  0E:86B5  05                  		db 5					; Waveform
     146.  0E:86B6  12                  		db .rst_i5-(.ins_5 +2)		; Restart
     147.  0E:86B7  11 0D               		db $11,$0D
     148.  0E:86B9  11 0A               		db $11,$0A
     149.  0E:86BB  11 0C               		db $11,$0C
     150.  0E:86BD  11 0B               		db $11,$0B
     151.  0E:86BF  11 0B               		db $11,$0B
     152.  0E:86C1  11 0B               		db $11,$0B
     153.  0E:86C3  11 0B               		db $11,$0B
     154.  0E:86C5  11 0A               		db $11,$0A
     155.  0E:86C7  11 09               		db $11,$09
     156.  0E:86C9                      .rst_i5:
     157.  0E:86C9  11 08               		db $11,$08
     158.  0E:86CB  11 08               		db $11,$08
     159.  0E:86CD  15 08 01 00         		db $15,$08,$01,$00
     160.  0E:86D1  15 08 02 00         		db $15,$08,$02,$00
     161.  0E:86D5  15 08 FD FF         		db $15,$08,$FD,$FF
     162.  0E:86D9  15 08 FF FF         		db $15,$08,$FF,$FF
     163.  0E:86DD  15 08 FE FF         		db $15,$08,$FE,$FF
     164.  0E:86E1  1D 08 03 00         		db $1D,$08,$03,$00
     165.  0E:86E5                      .ins_6:						; Oboe            
     166.  0E:86E5  06                  		db 6					; Waveform
     167.  0E:86E6  12                  		db .rst_i6-(.ins_6 +2)		; Restart
     168.  0E:86E7  11 0C               		db $11,$0C
     169.  0E:86E9  11 0A               		db $11,$0A
     170.  0E:86EB  11 0C               		db $11,$0C
     171.  0E:86ED  11 0B               		db $11,$0B
     172.  0E:86EF  11 0B               		db $11,$0B
     173.  0E:86F1  11 0B               		db $11,$0B
     174.  0E:86F3  11 0B               		db $11,$0B
     175.  0E:86F5  11 0A               		db $11,$0A
     176.  0E:86F7  11 09               		db $11,$09
     177.  0E:86F9                      .rst_i6:
     178.  0E:86F9  11 08               		db $11,$08
     179.  0E:86FB  11 08               		db $11,$08
     180.  0E:86FD  15 07 01 00         		db $15,$07,$01,$00
     181.  0E:8701  15 07 02 00         		db $15,$07,$02,$00
     182.  0E:8705  15 07 FD FF         		db $15,$07,$FD,$FF
     183.  0E:8709  15 07 FF FF         		db $15,$07,$FF,$FF
     184.  0E:870D  15 07 FE FF         		db $15,$07,$FE,$FF
     185.  0E:8711  1D 07 03 00         		db $1D,$07,$03,$00
     186.  0E:8715                      .ins_7:						; Trumpet         
     187.  0E:8715                      .ins_8:						; Organ           
     188.  0E:8715                      .ins_9:						; Horn            
     189.  0E:8715                      .ins_10:						; Synth           
     190.  0E:8715                      .ins_11:						; Harpsichord     
     191.  0E:8715                      .ins_12:						; Vibraphone      
     192.  0E:8715                      .ins_13:						; Synth Bass      
     193.  0E:8715                      .ins_14:						; Acoustic Bass   
     194.  0E:8715  0E                  		db 14					; Waveform
     195.  0E:8716  12                  		db .rst_i14-(.ins_14 +2)		; Restart
     196.  0E:8717  11 0C               		db $11,$0C
     197.  0E:8719  11 0B               		db $11,$0B
     198.  0E:871B  11 0C               		db $11,$0C
     199.  0E:871D  11 0B               		db $11,$0B
     200.  0E:871F  11 0B               		db $11,$0B
     201.  0E:8721  11 0B               		db $11,$0B
     202.  0E:8723  11 0B               		db $11,$0B
     203.  0E:8725  11 0A               		db $11,$0A
     204.  0E:8727  11 09               		db $11,$09
     205.  0E:8729                      .rst_i14:
     206.  0E:8729  15 08 01 00         		db $15,$08,$01,$00
     207.  0E:872D  15 08 02 00         		db $15,$08,$02,$00
     208.  0E:8731  15 07 FE FF         		db $15,$07,$FE,$FF
     209.  0E:8735  15 07 FF FF         		db $15,$07,$FF,$FF
     210.  0E:8739  15 07 FF FF         		db $15,$07,$FF,$FF
     211.  0E:873D  15 07 FE FF         		db $15,$07,$FE,$FF
     212.  0E:8741  15 07 02 00         		db $15,$07,$02,$00
     213.  0E:8745  1D 07 01 00         		db $1D,$07,$01,$00
     214.  0E:8749                      .ins_15:						; Electric Guitar 
     215.  0E:8749                      .ins_16:						; USER            
     216.  0E:8749  0E                  		db 14					; Waveform
     217.  0E:874A  16                  		db .rst_i16-(.ins_16 +2)		; Restart
     218.  0E:874B  15 0F 28 01         		db $15,$0F,$28,$01
     219.  0E:874F  15 0B D8 FE         		db $15,$0B,$D8,$FE
     220.  0E:8753  11 0C               		db $11,$0C
     221.  0E:8755  11 0B               		db $11,$0B
     222.  0E:8757  11 0B               		db $11,$0B
     223.  0E:8759  11 0B               		db $11,$0B
     224.  0E:875B  11 0B               		db $11,$0B
     225.  0E:875D  11 0A               		db $11,$0A
     226.  0E:875F  11 09               		db $11,$09
     227.  0E:8761                      .rst_i16:
     228.  0E:8761  15 08 01 00         		db $15,$08,$01,$00
     229.  0E:8765  15 08 02 00         		db $15,$08,$02,$00
     230.  0E:8769  15 07 FE FF         		db $15,$07,$FE,$FF
     231.  0E:876D  15 07 FF FF         		db $15,$07,$FF,$FF
     232.  0E:8771  15 07 FF FF         		db $15,$07,$FF,$FF
     233.  0E:8775  15 07 FE FF         		db $15,$07,$FE,$FF
     234.  0E:8779  15 07 02 00         		db $15,$07,$02,$00
     235.  0E:877D  1D 07 01 00         		db $1D,$07,$01,$00
     236.  0E:8781                      .ins_17:						; Bass drum       
     237.  0E:8781  1F                  		db 31					; Waveform
     238.  0E:8782  04                  		db .rst_i17-(.ins_17 +2)		; Restart
     239.  0E:8783  15 0F 28 01         		db $15,$0F,$28,$01
     240.  0E:8787                      .rst_i17:
     241.  0E:8787  09 00               		db $09,$00
     242.  0E:8789                      .ins_18:						; Snare drum      
     243.  0E:8789  1F                  		db 31					; Waveform
     244.  0E:878A  0E                  		db .rst_i18-(.ins_18 +2)		; Restart
     245.  0E:878B  91 0F               		db $91,$0F
     246.  0E:878D  91 0E               		db $91,$0E
     247.  0E:878F  81 0E               		db $81,$0E
     248.  0E:8791  81 0E               		db $81,$0E
     249.  0E:8793  81 0C               		db $81,$0C
     250.  0E:8795  81 0C               		db $81,$0C
     251.  0E:8797  81 0C               		db $81,$0C
     252.  0E:8799                      .rst_i18:
     253.  0E:8799  8B FF               		db $8B,$FF
     254.  0E:879B                      .ins_19:						; Tom             
     255.  0E:879B  1F                  		db 31					; Waveform
     256.  0E:879C  0C                  		db .rst_i19-(.ins_19 +2)		; Restart
     257.  0E:879D  15 0F 2F 00         		db $15,$0F,$2F,$00
     258.  0E:87A1  15 0E 2F 00         		db $15,$0E,$2F,$00
     259.  0E:87A5  15 0D 2F 00         		db $15,$0D,$2F,$00
     260.  0E:87A9                      .rst_i19:
     261.  0E:87A9  1F FF 2F 00         		db $1F,$FF,$2F,$00
     262.  0E:87AD                      .ins_20:						; Closed hi-hat   
     263.  0E:87AD  1F                  		db 31					; Waveform
     264.  0E:87AE  02                  		db .rst_i20-(.ins_20 +2)		; Restart
     265.  0E:87AF  81 0E               		db $81,$0E
     266.  0E:87B1                      .rst_i20:
     267.  0E:87B1  09 00               		db $09,$00
     268.  0E:87B3                      .ins_21:						; Cymbal          
     269.  0E:87B3  1F                  		db 31					; Waveform
     270.  0E:87B4  09                  		db .rst_i21-(.ins_21 +2)		; Restart
     271.  0E:87B5  E1 0E 01            		db $E1,$0E,$01
     272.  0E:87B8  E1 0B 01            		db $E1,$0B,$01
     273.  0E:87BB  E1 0B 01            		db $E1,$0B,$01
     274.  0E:87BE                      .rst_i21:
     275.  0E:87BE  8B FF               		db $8B,$FF
     276.  0E:87C0                      .ins_22:						; Open hi-hat     
     277.  0E:87C0  1F                  		db 31					; Waveform
     278.  0E:87C1  04                  		db .rst_i22-(.ins_22 +2)		; Restart
     279.  0E:87C2  81 0F               		db $81,$0F
     280.  0E:87C4  81 0D               		db $81,$0D
     281.  0E:87C6                      .rst_i22:
     282.  0E:87C6  8B FF               		db $8B,$FF
     283.  0E:87C8                      .ins_23:						;                 
     284.  0E:87C8                      .ins_24:						;                 
     285.  0E:87C8                      .ins_25:						;                 
     286.  0E:87C8                      .ins_26:						;                 
     287.  0E:87C8                      .ins_27:						;                 
     288.  0E:87C8                      .ins_28:						;                 
     289.  0E:87C8                      .ins_29:						;                 
     290.  0E:87C8                      .ins_30:						;                 
     291.  0E:87C8                      .ins_31:						;                 
     292.  0E:87C8  00                  		db 0					; Waveform
     293.  0E:87C9  00                  		db .rst_i31-(.ins_31 +2)		; Restart
     294.  0E:87CA                      .rst_i31:
     295.  0E:87CA  09 00               		db $09,$00
     296.  0E:87CC                      
     297.  0E:87CC                      ; [ Song track data ]
     298.  0E:87CC                      .track_0:
     299.  0E:87CC  34                  	db $34		;[Note] 53
     300.  0E:87CD  6F                  	db $6F		;[Volume] 15
     301.  0E:87CE  84                  	db $84		;[Instrument] 21
     302.  0E:87CF  CF                  	db $CF		;[Wait] 16
     303.  0E:87D0  26                  	db $26		;[Note] 39
     304.  0E:87D1  82                  	db $82		;[Instrument] 19
     305.  0E:87D2  C2                  	db $C2		;[Wait] 3
     306.  0E:87D3  26                  	db $26		;[Note] 39
     307.  0E:87D4  67                  	db $67		;[Volume] 7
     308.  0E:87D5                      				;[Skip delay] 3
     309.  0E:87D5  22                  	db $22		;[Note] 35
     310.  0E:87D6  6F                  	db $6F		;[Volume] 15
     311.  0E:87D7                      				;[Skip delay] 3
     312.  0E:87D7  22                  	db $22		;[Note] 35
     313.  0E:87D8  67                  	db $67		;[Volume] 7
     314.  0E:87D9                      				;[Skip delay] 3
     315.  0E:87D9  1E                  	db $1E		;[Note] 31
     316.  0E:87DA  6F                  	db $6F		;[Volume] 15
     317.  0E:87DB                      				;[Skip delay] 3
     318.  0E:87DB  1E                  	db $1E		;[Note] 31
     319.  0E:87DC  67                  	db $67		;[Volume] 7
     320.  0E:87DD  C0                  	db $C0		;[Wait] 1
     321.  0E:87DE  23                  	db $23		;[Note] 36
     322.  0E:87DF  6F                  	db $6F		;[Volume] 15
     323.  0E:87E0  84                  	db $84		;[Instrument] 21
     324.  0E:87E1  CF                  	db $CF		;[Wait] 16
     325.  0E:87E2  2A                  	db $2A		;[Note] 43
     326.  0E:87E3  82                  	db $82		;[Instrument] 19
     327.  0E:87E4  C1                  	db $C1		;[Wait] 2
     328.  0E:87E5  2A                  	db $2A		;[Note] 43
     329.  0E:87E6  C2                  	db $C2		;[Wait] 3
     330.  0E:87E7  2A                  	db $2A		;[Note] 43
     331.  0E:87E8  67                  	db $67		;[Volume] 7
     332.  0E:87E9  C0                  	db $C0		;[Wait] 1
     333.  0E:87EA  26                  	db $26		;[Note] 39
     334.  0E:87EB  6F                  	db $6F		;[Volume] 15
     335.  0E:87EC  C2                  	db $C2		;[Wait] 3
     336.  0E:87ED  26                  	db $26		;[Note] 39
     337.  0E:87EE  67                  	db $67		;[Volume] 7
     338.  0E:87EF  C0                  	db $C0		;[Wait] 1
     339.  0E:87F0  26                  	db $26		;[Note] 39
     340.  0E:87F1  6F                  	db $6F		;[Volume] 15
     341.  0E:87F2  C1                  	db $C1		;[Wait] 2
     342.  0E:87F3  22                  	db $22		;[Note] 35
     343.  0E:87F4  C2                  	db $C2		;[Wait] 3
     344.  0E:87F5  22                  	db $22		;[Note] 35
     345.  0E:87F6  67                  	db $67		;[Volume] 7
     346.  0E:87F7  C0                  	db $C0		;[Wait] 1
     347.  0E:87F8  BF                  	db $BF		;[End-Of-Track]
     348.  0E:87F9                      .track_1:
     349.  0E:87F9  17                  	db $17		;[Note] 24
     350.  0E:87FA  6E                  	db $6E		;[Volume] 14
     351.  0E:87FB  7D                  	db $7D		;[Instrument] 14
     352.  0E:87FC  CE                  	db $CE		;[Wait] 15
     353.  0E:87FD  60                  	db $60		;[Note] 97
     354.  0E:87FE  C0                  	db $C0		;[Wait] 1
     355.  0E:87FF  17                  	db $17		;[Note] 24
     356.  0E:8800  C4                  	db $C4		;[Wait] 5
     357.  0E:8801  60                  	db $60		;[Note] 97
     358.  0E:8802  C0                  	db $C0		;[Wait] 1
     359.  0E:8803  17                  	db $17		;[Note] 24
     360.  0E:8804  C1                  	db $C1		;[Wait] 2
     361.  0E:8805  23                  	db $23		;[Note] 36
     362.  0E:8806  83                  	db $83		;[Instrument] 20
     363.  0E:8807                      				;[Skip delay] 2
     364.  0E:8807  23                  	db $23		;[Note] 36
     365.  0E:8808                      				;[Skip delay] 2
     366.  0E:8808  17                  	db $17		;[Note] 24
     367.  0E:8809  7D                  	db $7D		;[Instrument] 14
     368.  0E:880A                      				;[Skip delay] 2
     369.  0E:880A  23                  	db $23		;[Note] 36
     370.  0E:880B  83                  	db $83		;[Instrument] 20
     371.  0E:880C                      				;[Skip delay] 2
     372.  0E:880C  19                  	db $19		;[Note] 26
     373.  0E:880D  7D                  	db $7D		;[Instrument] 14
     374.  0E:880E  CD                  	db $CD		;[Wait] 14
     375.  0E:880F  60                  	db $60		;[Note] 97
     376.  0E:8810  C1                  	db $C1		;[Wait] 2
     377.  0E:8811  19                  	db $19		;[Note] 26
     378.  0E:8812  C4                  	db $C4		;[Wait] 5
     379.  0E:8813  60                  	db $60		;[Note] 97
     380.  0E:8814  C0                  	db $C0		;[Wait] 1
     381.  0E:8815  1A                  	db $1A		;[Note] 27
     382.  0E:8816  C1                  	db $C1		;[Wait] 2
     383.  0E:8817  26                  	db $26		;[Note] 39
     384.  0E:8818  83                  	db $83		;[Instrument] 20
     385.  0E:8819  C3                  	db $C3		;[Wait] 4
     386.  0E:881A  1C                  	db $1C		;[Note] 29
     387.  0E:881B  7D                  	db $7D		;[Instrument] 14
     388.  0E:881C                      				;[Skip delay] 4
     389.  0E:881C  BF                  	db $BF		;[End-Of-Track]
     390.  0E:881D                      .track_2:
     391.  0E:881D  60                  	db $60		;[Note] 97
     392.  0E:881E  6F                  	db $6F		;[Volume] 15
     393.  0E:881F  70                  	db $70		;[Instrument] 1
     394.  0E:8820  9E 00               	db $9E, $00	; short arp
     395.  0E:8822  C2                  	db $C2		;[Wait] 3
     396.  0E:8823  2F                  	db $2F		;[Note] 48
     397.  0E:8824  67                  	db $67		;[Volume] 7
     398.  0E:8825  71                  	db $71		;[Instrument] 2
     399.  0E:8826  95 03               	db $95, $03	; track detune
     400.  0E:8828  C1                  	db $C1		;[Wait] 2
     401.  0E:8829  2A                  	db $2A		;[Note] 43
     402.  0E:882A                      				;[Skip delay] 2
     403.  0E:882A  26                  	db $26		;[Note] 39
     404.  0E:882B                      				;[Skip delay] 2
     405.  0E:882B  2A                  	db $2A		;[Note] 43
     406.  0E:882C                      				;[Skip delay] 2
     407.  0E:882C  2F                  	db $2F		;[Note] 48
     408.  0E:882D                      				;[Skip delay] 2
     409.  0E:882D  2A                  	db $2A		;[Note] 43
     410.  0E:882E                      				;[Skip delay] 2
     411.  0E:882E  2F                  	db $2F		;[Note] 48
     412.  0E:882F                      				;[Skip delay] 2
     413.  0E:882F  32                  	db $32		;[Note] 51
     414.  0E:8830                      				;[Skip delay] 2
     415.  0E:8830  2F                  	db $2F		;[Note] 48
     416.  0E:8831                      				;[Skip delay] 2
     417.  0E:8831  31                  	db $31		;[Note] 50
     418.  0E:8832                      				;[Skip delay] 2
     419.  0E:8832  2F                  	db $2F		;[Note] 48
     420.  0E:8833                      				;[Skip delay] 2
     421.  0E:8833  32                  	db $32		;[Note] 51
     422.  0E:8834                      				;[Skip delay] 2
     423.  0E:8834  36                  	db $36		;[Note] 55
     424.  0E:8835                      				;[Skip delay] 2
     425.  0E:8835  32                  	db $32		;[Note] 51
     426.  0E:8836                      				;[Skip delay] 2
     427.  0E:8836  34                  	db $34		;[Note] 53
     428.  0E:8837                      				;[Skip delay] 2
     429.  0E:8837  2F                  	db $2F		;[Note] 48
     430.  0E:8838                      				;[Skip delay] 2
     431.  0E:8838  31                  	db $31		;[Note] 50
     432.  0E:8839                      				;[Skip delay] 2
     433.  0E:8839  28                  	db $28		;[Note] 41
     434.  0E:883A                      				;[Skip delay] 2
     435.  0E:883A  2D                  	db $2D		;[Note] 46
     436.  0E:883B                      				;[Skip delay] 2
     437.  0E:883B  2F                  	db $2F		;[Note] 48
     438.  0E:883C                      				;[Skip delay] 2
     439.  0E:883C  31                  	db $31		;[Note] 50
     440.  0E:883D                      				;[Skip delay] 2
     441.  0E:883D  32                  	db $32		;[Note] 51
     442.  0E:883E                      				;[Skip delay] 2
     443.  0E:883E  34                  	db $34		;[Note] 53
     444.  0E:883F                      				;[Skip delay] 2
     445.  0E:883F  36                  	db $36		;[Note] 55
     446.  0E:8840                      				;[Skip delay] 2
     447.  0E:8840  31                  	db $31		;[Note] 50
     448.  0E:8841                      				;[Skip delay] 2
     449.  0E:8841  34                  	db $34		;[Note] 53
     450.  0E:8842                      				;[Skip delay] 2
     451.  0E:8842  31                  	db $31		;[Note] 50
     452.  0E:8843                      				;[Skip delay] 2
     453.  0E:8843  36                  	db $36		;[Note] 55
     454.  0E:8844                      				;[Skip delay] 2
     455.  0E:8844  39                  	db $39		;[Note] 58
     456.  0E:8845                      				;[Skip delay] 2
     457.  0E:8845  37                  	db $37		;[Note] 56
     458.  0E:8846                      				;[Skip delay] 2
     459.  0E:8846  32                  	db $32		;[Note] 51
     460.  0E:8847  C0                  	db $C0		;[Wait] 1
     461.  0E:8848  BF                  	db $BF		;[End-Of-Track]
     462.  0E:8849                      .track_3:
     463.  0E:8849  1E                  	db $1E		;[Note] 31
     464.  0E:884A  6F                  	db $6F		;[Volume] 15
     465.  0E:884B  74                  	db $74		;[Instrument] 5
     466.  0E:884C  CF                  	db $CF		;[Wait] 16
     467.  0E:884D  1E                  	db $1E		;[Note] 31
     468.  0E:884E  C5                  	db $C5		;[Wait] 6
     469.  0E:884F  21                  	db $21		;[Note] 34
     470.  0E:8850                      				;[Skip delay] 6
     471.  0E:8850  23                  	db $23		;[Note] 36
     472.  0E:8851  C3                  	db $C3		;[Wait] 4
     473.  0E:8852  21                  	db $21		;[Note] 34
     474.  0E:8853  CF                  	db $CF		;[Wait] 16
     475.  0E:8854  25                  	db $25		;[Note] 38
     476.  0E:8855  C5                  	db $C5		;[Wait] 6
     477.  0E:8856  21                  	db $21		;[Note] 34
     478.  0E:8857                      				;[Skip delay] 6
     479.  0E:8857  25                  	db $25		;[Note] 38
     480.  0E:8858  C3                  	db $C3		;[Wait] 4
     481.  0E:8859  BF                  	db $BF		;[End-Of-Track]
     482.  0E:885A                      .track_4:
     483.  0E:885A  2F                  	db $2F		;[Note] 48
     484.  0E:885B  6D                  	db $6D		;[Volume] 13
     485.  0E:885C  71                  	db $71		;[Instrument] 2
     486.  0E:885D  C1                  	db $C1		;[Wait] 2
     487.  0E:885E  2A                  	db $2A		;[Note] 43
     488.  0E:885F                      				;[Skip delay] 2
     489.  0E:885F  26                  	db $26		;[Note] 39
     490.  0E:8860                      				;[Skip delay] 2
     491.  0E:8860  2A                  	db $2A		;[Note] 43
     492.  0E:8861                      				;[Skip delay] 2
     493.  0E:8861  2F                  	db $2F		;[Note] 48
     494.  0E:8862                      				;[Skip delay] 2
     495.  0E:8862  2A                  	db $2A		;[Note] 43
     496.  0E:8863                      				;[Skip delay] 2
     497.  0E:8863  2F                  	db $2F		;[Note] 48
     498.  0E:8864                      				;[Skip delay] 2
     499.  0E:8864  32                  	db $32		;[Note] 51
     500.  0E:8865                      				;[Skip delay] 2
     501.  0E:8865  2F                  	db $2F		;[Note] 48
     502.  0E:8866                      				;[Skip delay] 2
     503.  0E:8866  31                  	db $31		;[Note] 50
     504.  0E:8867                      				;[Skip delay] 2
     505.  0E:8867  2F                  	db $2F		;[Note] 48
     506.  0E:8868                      				;[Skip delay] 2
     507.  0E:8868  32                  	db $32		;[Note] 51
     508.  0E:8869                      				;[Skip delay] 2
     509.  0E:8869  36                  	db $36		;[Note] 55
     510.  0E:886A                      				;[Skip delay] 2
     511.  0E:886A  32                  	db $32		;[Note] 51
     512.  0E:886B                      				;[Skip delay] 2
     513.  0E:886B  34                  	db $34		;[Note] 53
     514.  0E:886C                      				;[Skip delay] 2
     515.  0E:886C  2F                  	db $2F		;[Note] 48
     516.  0E:886D                      				;[Skip delay] 2
     517.  0E:886D  31                  	db $31		;[Note] 50
     518.  0E:886E                      				;[Skip delay] 2
     519.  0E:886E  28                  	db $28		;[Note] 41
     520.  0E:886F                      				;[Skip delay] 2
     521.  0E:886F  2D                  	db $2D		;[Note] 46
     522.  0E:8870                      				;[Skip delay] 2
     523.  0E:8870  2F                  	db $2F		;[Note] 48
     524.  0E:8871                      				;[Skip delay] 2
     525.  0E:8871  31                  	db $31		;[Note] 50
     526.  0E:8872                      				;[Skip delay] 2
     527.  0E:8872  32                  	db $32		;[Note] 51
     528.  0E:8873                      				;[Skip delay] 2
     529.  0E:8873  34                  	db $34		;[Note] 53
     530.  0E:8874                      				;[Skip delay] 2
     531.  0E:8874  36                  	db $36		;[Note] 55
     532.  0E:8875                      				;[Skip delay] 2
     533.  0E:8875  31                  	db $31		;[Note] 50
     534.  0E:8876                      				;[Skip delay] 2
     535.  0E:8876  34                  	db $34		;[Note] 53
     536.  0E:8877                      				;[Skip delay] 2
     537.  0E:8877  31                  	db $31		;[Note] 50
     538.  0E:8878                      				;[Skip delay] 2
     539.  0E:8878  36                  	db $36		;[Note] 55
     540.  0E:8879                      				;[Skip delay] 2
     541.  0E:8879  39                  	db $39		;[Note] 58
     542.  0E:887A                      				;[Skip delay] 2
     543.  0E:887A  37                  	db $37		;[Note] 56
     544.  0E:887B                      				;[Skip delay] 2
     545.  0E:887B  32                  	db $32		;[Note] 51
     546.  0E:887C                      				;[Skip delay] 2
     547.  0E:887C  34                  	db $34		;[Note] 53
     548.  0E:887D                      				;[Skip delay] 2
     549.  0E:887D  BF                  	db $BF		;[End-Of-Track]
     550.  0E:887E                      .track_5:
     551.  0E:887E  0B                  	db $0B		;[Note] 12
     552.  0E:887F  6E                  	db $6E		;[Volume] 14
     553.  0E:8880  7D                  	db $7D		;[Instrument] 14
     554.  0E:8881  CE                  	db $CE		;[Wait] 15
     555.  0E:8882  60                  	db $60		;[Note] 97
     556.  0E:8883  C0                  	db $C0		;[Wait] 1
     557.  0E:8884  0B                  	db $0B		;[Note] 12
     558.  0E:8885  C4                  	db $C4		;[Wait] 5
     559.  0E:8886  60                  	db $60		;[Note] 97
     560.  0E:8887  C0                  	db $C0		;[Wait] 1
     561.  0E:8888  0B                  	db $0B		;[Note] 12
     562.  0E:8889  C3                  	db $C3		;[Wait] 4
     563.  0E:888A  60                  	db $60		;[Note] 97
     564.  0E:888B  C1                  	db $C1		;[Wait] 2
     565.  0E:888C  0B                  	db $0B		;[Note] 12
     566.  0E:888D  C2                  	db $C2		;[Wait] 3
     567.  0E:888E  60                  	db $60		;[Note] 97
     568.  0E:888F  C0                  	db $C0		;[Wait] 1
     569.  0E:8890  0D                  	db $0D		;[Note] 14
     570.  0E:8891  CD                  	db $CD		;[Wait] 14
     571.  0E:8892  60                  	db $60		;[Note] 97
     572.  0E:8893  C1                  	db $C1		;[Wait] 2
     573.  0E:8894  0D                  	db $0D		;[Note] 14
     574.  0E:8895  C3                  	db $C3		;[Wait] 4
     575.  0E:8896  60                  	db $60		;[Note] 97
     576.  0E:8897  C1                  	db $C1		;[Wait] 2
     577.  0E:8898  0E                  	db $0E		;[Note] 15
     578.  0E:8899  C3                  	db $C3		;[Wait] 4
     579.  0E:889A  60                  	db $60		;[Note] 97
     580.  0E:889B  C1                  	db $C1		;[Wait] 2
     581.  0E:889C  10                  	db $10		;[Note] 17
     582.  0E:889D  C3                  	db $C3		;[Wait] 4
     583.  0E:889E  BF                  	db $BF		;[End-Of-Track]
     584.  0E:889F                      .track_6:
     585.  0E:889F  23                  	db $23		;[Note] 36
     586.  0E:88A0  6F                  	db $6F		;[Volume] 15
     587.  0E:88A1  74                  	db $74		;[Instrument] 5
     588.  0E:88A2  CF                  	db $CF		;[Wait] 16
     589.  0E:88A3  23                  	db $23		;[Note] 36
     590.  0E:88A4  C5                  	db $C5		;[Wait] 6
     591.  0E:88A5  25                  	db $25		;[Note] 38
     592.  0E:88A6                      				;[Skip delay] 6
     593.  0E:88A6  26                  	db $26		;[Note] 39
     594.  0E:88A7  C3                  	db $C3		;[Wait] 4
     595.  0E:88A8  25                  	db $25		;[Note] 38
     596.  0E:88A9  CF                  	db $CF		;[Wait] 16
     597.  0E:88AA  28                  	db $28		;[Note] 41
     598.  0E:88AB  C5                  	db $C5		;[Wait] 6
     599.  0E:88AC  25                  	db $25		;[Note] 38
     600.  0E:88AD                      				;[Skip delay] 6
     601.  0E:88AD  28                  	db $28		;[Note] 41
     602.  0E:88AE  C3                  	db $C3		;[Wait] 4
     603.  0E:88AF  BF                  	db $BF		;[End-Of-Track]
     604.  0E:88B0                      .track_7:
     605.  0E:88B0  66                  	db $66		;[Volume] 6
     606.  0E:88B1  74                  	db $74		;[Instrument] 5
     607.  0E:88B2  95 03               	db $95, $03	; track detune
     608.  0E:88B4  C2                  	db $C2		;[Wait] 3
     609.  0E:88B5  23                  	db $23		;[Note] 36
     610.  0E:88B6  CF                  	db $CF		;[Wait] 16
     611.  0E:88B7  23                  	db $23		;[Note] 36
     612.  0E:88B8  C5                  	db $C5		;[Wait] 6
     613.  0E:88B9  25                  	db $25		;[Note] 38
     614.  0E:88BA                      				;[Skip delay] 6
     615.  0E:88BA  26                  	db $26		;[Note] 39
     616.  0E:88BB  C3                  	db $C3		;[Wait] 4
     617.  0E:88BC  25                  	db $25		;[Note] 38
     618.  0E:88BD  CF                  	db $CF		;[Wait] 16
     619.  0E:88BE  28                  	db $28		;[Note] 41
     620.  0E:88BF  C5                  	db $C5		;[Wait] 6
     621.  0E:88C0  25                  	db $25		;[Note] 38
     622.  0E:88C1                      				;[Skip delay] 6
     623.  0E:88C1  28                  	db $28		;[Note] 41
     624.  0E:88C2  C0                  	db $C0		;[Wait] 1
     625.  0E:88C3  BF                  	db $BF		;[End-Of-Track]
     626.  0E:88C4                      .track_8:
     627.  0E:88C4  23                  	db $23		;[Note] 36
     628.  0E:88C5  6F                  	db $6F		;[Volume] 15
     629.  0E:88C6  84                  	db $84		;[Instrument] 21
     630.  0E:88C7  C7                  	db $C7		;[Wait] 8
     631.  0E:88C8  23                  	db $23		;[Note] 36
     632.  0E:88C9                      				;[Skip delay] 8
     633.  0E:88C9  23                  	db $23		;[Note] 36
     634.  0E:88CA                      				;[Skip delay] 8
     635.  0E:88CA  23                  	db $23		;[Note] 36
     636.  0E:88CB                      				;[Skip delay] 8
     637.  0E:88CB  23                  	db $23		;[Note] 36
     638.  0E:88CC  C5                  	db $C5		;[Wait] 6
     639.  0E:88CD  23                  	db $23		;[Note] 36
     640.  0E:88CE                      				;[Skip delay] 6
     641.  0E:88CE  23                  	db $23		;[Note] 36
     642.  0E:88CF                      				;[Skip delay] 6
     643.  0E:88CF  23                  	db $23		;[Note] 36
     644.  0E:88D0                      				;[Skip delay] 6
     645.  0E:88D0  23                  	db $23		;[Note] 36
     646.  0E:88D1  81                  	db $81		;[Instrument] 18
     647.  0E:88D2  C2                  	db $C2		;[Wait] 3
     648.  0E:88D3  23                  	db $23		;[Note] 36
     649.  0E:88D4  67                  	db $67		;[Volume] 7
     650.  0E:88D5  C0                  	db $C0		;[Wait] 1
     651.  0E:88D6  23                  	db $23		;[Note] 36
     652.  0E:88D7  6F                  	db $6F		;[Volume] 15
     653.  0E:88D8  84                  	db $84		;[Instrument] 21
     654.  0E:88D9  C3                  	db $C3		;[Wait] 4
     655.  0E:88DA  BF                  	db $BF		;[End-Of-Track]
     656.  0E:88DB                      .track_9:
     657.  0E:88DB  1E                  	db $1E		;[Note] 31
     658.  0E:88DC  7F                  	db $7F		;[Instrument] 16
     659.  0E:88DD  C3                  	db $C3		;[Wait] 4
     660.  0E:88DE  1E                  	db $1E		;[Note] 31
     661.  0E:88DF  7D                  	db $7D		;[Instrument] 14
     662.  0E:88E0  C1                  	db $C1		;[Wait] 2
     663.  0E:88E1  1E                  	db $1E		;[Note] 31
     664.  0E:88E2                      				;[Skip delay] 2
     665.  0E:88E2  1C                  	db $1C		;[Note] 29
     666.  0E:88E3  7F                  	db $7F		;[Instrument] 16
     667.  0E:88E4  C3                  	db $C3		;[Wait] 4
     668.  0E:88E5  1C                  	db $1C		;[Note] 29
     669.  0E:88E6  7D                  	db $7D		;[Instrument] 14
     670.  0E:88E7  C1                  	db $C1		;[Wait] 2
     671.  0E:88E8  1C                  	db $1C		;[Note] 29
     672.  0E:88E9                      				;[Skip delay] 2
     673.  0E:88E9  1A                  	db $1A		;[Note] 27
     674.  0E:88EA  7F                  	db $7F		;[Instrument] 16
     675.  0E:88EB  C3                  	db $C3		;[Wait] 4
     676.  0E:88EC  1A                  	db $1A		;[Note] 27
     677.  0E:88ED  7D                  	db $7D		;[Instrument] 14
     678.  0E:88EE  C1                  	db $C1		;[Wait] 2
     679.  0E:88EF  1A                  	db $1A		;[Note] 27
     680.  0E:88F0                      				;[Skip delay] 2
     681.  0E:88F0  19                  	db $19		;[Note] 26
     682.  0E:88F1  7F                  	db $7F		;[Instrument] 16
     683.  0E:88F2  C3                  	db $C3		;[Wait] 4
     684.  0E:88F3  19                  	db $19		;[Note] 26
     685.  0E:88F4  7D                  	db $7D		;[Instrument] 14
     686.  0E:88F5  C1                  	db $C1		;[Wait] 2
     687.  0E:88F6  19                  	db $19		;[Note] 26
     688.  0E:88F7                      				;[Skip delay] 2
     689.  0E:88F7  1F                  	db $1F		;[Note] 32
     690.  0E:88F8  7F                  	db $7F		;[Instrument] 16
     691.  0E:88F9  C3                  	db $C3		;[Wait] 4
     692.  0E:88FA  1F                  	db $1F		;[Note] 32
     693.  0E:88FB  7D                  	db $7D		;[Instrument] 14
     694.  0E:88FC  C1                  	db $C1		;[Wait] 2
     695.  0E:88FD  1F                  	db $1F		;[Note] 32
     696.  0E:88FE                      				;[Skip delay] 2
     697.  0E:88FE  1C                  	db $1C		;[Note] 29
     698.  0E:88FF  7F                  	db $7F		;[Instrument] 16
     699.  0E:8900  C3                  	db $C3		;[Wait] 4
     700.  0E:8901  1C                  	db $1C		;[Note] 29
     701.  0E:8902  7D                  	db $7D		;[Instrument] 14
     702.  0E:8903  C1                  	db $C1		;[Wait] 2
     703.  0E:8904  1C                  	db $1C		;[Note] 29
     704.  0E:8905                      				;[Skip delay] 2
     705.  0E:8905  21                  	db $21		;[Note] 34
     706.  0E:8906  7F                  	db $7F		;[Instrument] 16
     707.  0E:8907  C3                  	db $C3		;[Wait] 4
     708.  0E:8908  21                  	db $21		;[Note] 34
     709.  0E:8909  C1                  	db $C1		;[Wait] 2
     710.  0E:890A  21                  	db $21		;[Note] 34
     711.  0E:890B  7D                  	db $7D		;[Instrument] 14
     712.  0E:890C                      				;[Skip delay] 2
     713.  0E:890C  25                  	db $25		;[Note] 38
     714.  0E:890D  C3                  	db $C3		;[Wait] 4
     715.  0E:890E  25                  	db $25		;[Note] 38
     716.  0E:890F  C1                  	db $C1		;[Wait] 2
     717.  0E:8910  25                  	db $25		;[Note] 38
     718.  0E:8911                      				;[Skip delay] 2
     719.  0E:8911  BF                  	db $BF		;[End-Of-Track]
     720.  0E:8912                      .track_10:
     721.  0E:8912  C0                  	db $C0		;[Wait] 1
     722.  0E:8913  34                  	db $34		;[Note] 53
     723.  0E:8914  C1                  	db $C1		;[Wait] 2
     724.  0E:8915  36                  	db $36		;[Note] 55
     725.  0E:8916                      				;[Skip delay] 2
     726.  0E:8916  2D                  	db $2D		;[Note] 46
     727.  0E:8917                      				;[Skip delay] 2
     728.  0E:8917  31                  	db $31		;[Note] 50
     729.  0E:8918                      				;[Skip delay] 2
     730.  0E:8918  2D                  	db $2D		;[Note] 46
     731.  0E:8919                      				;[Skip delay] 2
     732.  0E:8919  36                  	db $36		;[Note] 55
     733.  0E:891A                      				;[Skip delay] 2
     734.  0E:891A  31                  	db $31		;[Note] 50
     735.  0E:891B                      				;[Skip delay] 2
     736.  0E:891B  36                  	db $36		;[Note] 55
     737.  0E:891C                      				;[Skip delay] 2
     738.  0E:891C  2D                  	db $2D		;[Note] 46
     739.  0E:891D                      				;[Skip delay] 2
     740.  0E:891D  2A                  	db $2A		;[Note] 43
     741.  0E:891E                      				;[Skip delay] 2
     742.  0E:891E  2D                  	db $2D		;[Note] 46
     743.  0E:891F                      				;[Skip delay] 2
     744.  0E:891F  31                  	db $31		;[Note] 50
     745.  0E:8920                      				;[Skip delay] 2
     746.  0E:8920  2D                  	db $2D		;[Note] 46
     747.  0E:8921                      				;[Skip delay] 2
     748.  0E:8921  31                  	db $31		;[Note] 50
     749.  0E:8922                      				;[Skip delay] 2
     750.  0E:8922  2D                  	db $2D		;[Note] 46
     751.  0E:8923                      				;[Skip delay] 2
     752.  0E:8923  36                  	db $36		;[Note] 55
     753.  0E:8924                      				;[Skip delay] 2
     754.  0E:8924  39                  	db $39		;[Note] 58
     755.  0E:8925                      				;[Skip delay] 2
     756.  0E:8925  37                  	db $37		;[Note] 56
     757.  0E:8926                      				;[Skip delay] 2
     758.  0E:8926  32                  	db $32		;[Note] 51
     759.  0E:8927                      				;[Skip delay] 2
     760.  0E:8927  2F                  	db $2F		;[Note] 48
     761.  0E:8928                      				;[Skip delay] 2
     762.  0E:8928  32                  	db $32		;[Note] 51
     763.  0E:8929                      				;[Skip delay] 2
     764.  0E:8929  37                  	db $37		;[Note] 56
     765.  0E:892A                      				;[Skip delay] 2
     766.  0E:892A  32                  	db $32		;[Note] 51
     767.  0E:892B                      				;[Skip delay] 2
     768.  0E:892B  37                  	db $37		;[Note] 56
     769.  0E:892C                      				;[Skip delay] 2
     770.  0E:892C  3B                  	db $3B		;[Note] 60
     771.  0E:892D                      				;[Skip delay] 2
     772.  0E:892D  39                  	db $39		;[Note] 58
     773.  0E:892E                      				;[Skip delay] 2
     774.  0E:892E  34                  	db $34		;[Note] 53
     775.  0E:892F                      				;[Skip delay] 2
     776.  0E:892F  31                  	db $31		;[Note] 50
     777.  0E:8930                      				;[Skip delay] 2
     778.  0E:8930  2D                  	db $2D		;[Note] 46
     779.  0E:8931                      				;[Skip delay] 2
     780.  0E:8931  31                  	db $31		;[Note] 50
     781.  0E:8932                      				;[Skip delay] 2
     782.  0E:8932  34                  	db $34		;[Note] 53
     783.  0E:8933                      				;[Skip delay] 2
     784.  0E:8933  39                  	db $39		;[Note] 58
     785.  0E:8934  C0                  	db $C0		;[Wait] 1
     786.  0E:8935  BF                  	db $BF		;[End-Of-Track]
     787.  0E:8936                      .track_11:
     788.  0E:8936  25                  	db $25		;[Note] 38
     789.  0E:8937  C1                  	db $C1		;[Wait] 2
     790.  0E:8938  60                  	db $60		;[Note] 97
     791.  0E:8939  C3                  	db $C3		;[Wait] 4
     792.  0E:893A  21                  	db $21		;[Note] 34
     793.  0E:893B  C1                  	db $C1		;[Wait] 2
     794.  0E:893C  25                  	db $25		;[Note] 38
     795.  0E:893D  CF                  	db $CF		;[Wait] 16
     796.  0E:893E  25                  	db $25		;[Note] 38
     797.  0E:893F  C2                  	db $C2		;[Wait] 3
     798.  0E:8940  25                  	db $25		;[Note] 38
     799.  0E:8941                      				;[Skip delay] 3
     800.  0E:8941  25                  	db $25		;[Note] 38
     801.  0E:8942  C1                  	db $C1		;[Wait] 2
     802.  0E:8943  26                  	db $26		;[Note] 39
     803.  0E:8944  CF                  	db $CF		;[Wait] 16
     804.  0E:8945  2A                  	db $2A		;[Note] 43
     805.  0E:8946  C7                  	db $C7		;[Wait] 8
     806.  0E:8947  2D                  	db $2D		;[Note] 46
     807.  0E:8948  C6                  	db $C6		;[Wait] 7
     808.  0E:8949  C0                  	db $C0		;[Wait] 1
     809.  0E:894A  BF                  	db $BF		;[End-Of-Track]
     810.  0E:894B                      .track_12:
     811.  0E:894B  36                  	db $36		;[Note] 55
     812.  0E:894C  C1                  	db $C1		;[Wait] 2
     813.  0E:894D  2D                  	db $2D		;[Note] 46
     814.  0E:894E                      				;[Skip delay] 2
     815.  0E:894E  31                  	db $31		;[Note] 50
     816.  0E:894F                      				;[Skip delay] 2
     817.  0E:894F  2D                  	db $2D		;[Note] 46
     818.  0E:8950                      				;[Skip delay] 2
     819.  0E:8950  36                  	db $36		;[Note] 55
     820.  0E:8951                      				;[Skip delay] 2
     821.  0E:8951  31                  	db $31		;[Note] 50
     822.  0E:8952                      				;[Skip delay] 2
     823.  0E:8952  36                  	db $36		;[Note] 55
     824.  0E:8953                      				;[Skip delay] 2
     825.  0E:8953  2D                  	db $2D		;[Note] 46
     826.  0E:8954                      				;[Skip delay] 2
     827.  0E:8954  2A                  	db $2A		;[Note] 43
     828.  0E:8955                      				;[Skip delay] 2
     829.  0E:8955  2D                  	db $2D		;[Note] 46
     830.  0E:8956                      				;[Skip delay] 2
     831.  0E:8956  31                  	db $31		;[Note] 50
     832.  0E:8957                      				;[Skip delay] 2
     833.  0E:8957  2D                  	db $2D		;[Note] 46
     834.  0E:8958                      				;[Skip delay] 2
     835.  0E:8958  31                  	db $31		;[Note] 50
     836.  0E:8959                      				;[Skip delay] 2
     837.  0E:8959  2D                  	db $2D		;[Note] 46
     838.  0E:895A                      				;[Skip delay] 2
     839.  0E:895A  36                  	db $36		;[Note] 55
     840.  0E:895B                      				;[Skip delay] 2
     841.  0E:895B  39                  	db $39		;[Note] 58
     842.  0E:895C                      				;[Skip delay] 2
     843.  0E:895C  37                  	db $37		;[Note] 56
     844.  0E:895D                      				;[Skip delay] 2
     845.  0E:895D  32                  	db $32		;[Note] 51
     846.  0E:895E                      				;[Skip delay] 2
     847.  0E:895E  2F                  	db $2F		;[Note] 48
     848.  0E:895F                      				;[Skip delay] 2
     849.  0E:895F  32                  	db $32		;[Note] 51
     850.  0E:8960                      				;[Skip delay] 2
     851.  0E:8960  37                  	db $37		;[Note] 56
     852.  0E:8961                      				;[Skip delay] 2
     853.  0E:8961  32                  	db $32		;[Note] 51
     854.  0E:8962                      				;[Skip delay] 2
     855.  0E:8962  37                  	db $37		;[Note] 56
     856.  0E:8963                      				;[Skip delay] 2
     857.  0E:8963  3B                  	db $3B		;[Note] 60
     858.  0E:8964                      				;[Skip delay] 2
     859.  0E:8964  39                  	db $39		;[Note] 58
     860.  0E:8965                      				;[Skip delay] 2
     861.  0E:8965  34                  	db $34		;[Note] 53
     862.  0E:8966                      				;[Skip delay] 2
     863.  0E:8966  31                  	db $31		;[Note] 50
     864.  0E:8967                      				;[Skip delay] 2
     865.  0E:8967  2D                  	db $2D		;[Note] 46
     866.  0E:8968                      				;[Skip delay] 2
     867.  0E:8968  31                  	db $31		;[Note] 50
     868.  0E:8969                      				;[Skip delay] 2
     869.  0E:8969  34                  	db $34		;[Note] 53
     870.  0E:896A                      				;[Skip delay] 2
     871.  0E:896A  39                  	db $39		;[Note] 58
     872.  0E:896B                      				;[Skip delay] 2
     873.  0E:896B  3D                  	db $3D		;[Note] 62
     874.  0E:896C                      				;[Skip delay] 2
     875.  0E:896C  BF                  	db $BF		;[End-Of-Track]
     876.  0E:896D                      .track_13:
     877.  0E:896D  12                  	db $12		;[Note] 19
     878.  0E:896E  C3                  	db $C3		;[Wait] 4
     879.  0E:896F  12                  	db $12		;[Note] 19
     880.  0E:8970  C1                  	db $C1		;[Wait] 2
     881.  0E:8971  12                  	db $12		;[Note] 19
     882.  0E:8972                      				;[Skip delay] 2
     883.  0E:8972  10                  	db $10		;[Note] 17
     884.  0E:8973  C3                  	db $C3		;[Wait] 4
     885.  0E:8974  10                  	db $10		;[Note] 17
     886.  0E:8975  C1                  	db $C1		;[Wait] 2
     887.  0E:8976  10                  	db $10		;[Note] 17
     888.  0E:8977                      				;[Skip delay] 2
     889.  0E:8977  0E                  	db $0E		;[Note] 15
     890.  0E:8978  C3                  	db $C3		;[Wait] 4
     891.  0E:8979  0E                  	db $0E		;[Note] 15
     892.  0E:897A  C1                  	db $C1		;[Wait] 2
     893.  0E:897B  0E                  	db $0E		;[Note] 15
     894.  0E:897C                      				;[Skip delay] 2
     895.  0E:897C  0D                  	db $0D		;[Note] 14
     896.  0E:897D  C3                  	db $C3		;[Wait] 4
     897.  0E:897E  0D                  	db $0D		;[Note] 14
     898.  0E:897F  C1                  	db $C1		;[Wait] 2
     899.  0E:8980  0D                  	db $0D		;[Note] 14
     900.  0E:8981                      				;[Skip delay] 2
     901.  0E:8981  13                  	db $13		;[Note] 20
     902.  0E:8982  C3                  	db $C3		;[Wait] 4
     903.  0E:8983  13                  	db $13		;[Note] 20
     904.  0E:8984  C1                  	db $C1		;[Wait] 2
     905.  0E:8985  13                  	db $13		;[Note] 20
     906.  0E:8986                      				;[Skip delay] 2
     907.  0E:8986  10                  	db $10		;[Note] 17
     908.  0E:8987  C3                  	db $C3		;[Wait] 4
     909.  0E:8988  10                  	db $10		;[Note] 17
     910.  0E:8989  C1                  	db $C1		;[Wait] 2
     911.  0E:898A  10                  	db $10		;[Note] 17
     912.  0E:898B                      				;[Skip delay] 2
     913.  0E:898B  15                  	db $15		;[Note] 22
     914.  0E:898C  C3                  	db $C3		;[Wait] 4
     915.  0E:898D  15                  	db $15		;[Note] 22
     916.  0E:898E  C1                  	db $C1		;[Wait] 2
     917.  0E:898F  15                  	db $15		;[Note] 22
     918.  0E:8990                      				;[Skip delay] 2
     919.  0E:8990  19                  	db $19		;[Note] 26
     920.  0E:8991  C3                  	db $C3		;[Wait] 4
     921.  0E:8992  19                  	db $19		;[Note] 26
     922.  0E:8993  C1                  	db $C1		;[Wait] 2
     923.  0E:8994  19                  	db $19		;[Note] 26
     924.  0E:8995                      				;[Skip delay] 2
     925.  0E:8995  BF                  	db $BF		;[End-Of-Track]
     926.  0E:8996                      .track_14:
     927.  0E:8996  2A                  	db $2A		;[Note] 43
     928.  0E:8997  C1                  	db $C1		;[Wait] 2
     929.  0E:8998  60                  	db $60		;[Note] 97
     930.  0E:8999  C3                  	db $C3		;[Wait] 4
     931.  0E:899A  25                  	db $25		;[Note] 38
     932.  0E:899B  C1                  	db $C1		;[Wait] 2
     933.  0E:899C  2A                  	db $2A		;[Note] 43
     934.  0E:899D  CF                  	db $CF		;[Wait] 16
     935.  0E:899E  2A                  	db $2A		;[Note] 43
     936.  0E:899F  C2                  	db $C2		;[Wait] 3
     937.  0E:89A0  28                  	db $28		;[Note] 41
     938.  0E:89A1                      				;[Skip delay] 3
     939.  0E:89A1  2A                  	db $2A		;[Note] 43
     940.  0E:89A2  C1                  	db $C1		;[Wait] 2
     941.  0E:89A3  2B                  	db $2B		;[Note] 44
     942.  0E:89A4  CF                  	db $CF		;[Wait] 16
     943.  0E:89A5  2D                  	db $2D		;[Note] 46
     944.  0E:89A6  C7                  	db $C7		;[Wait] 8
     945.  0E:89A7  31                  	db $31		;[Note] 50
     946.  0E:89A8                      				;[Skip delay] 8
     947.  0E:89A8  BF                  	db $BF		;[End-Of-Track]
     948.  0E:89A9                      .track_15:
     949.  0E:89A9  C2                  	db $C2		;[Wait] 3
     950.  0E:89AA  2A                  	db $2A		;[Note] 43
     951.  0E:89AB  C1                  	db $C1		;[Wait] 2
     952.  0E:89AC  60                  	db $60		;[Note] 97
     953.  0E:89AD  C3                  	db $C3		;[Wait] 4
     954.  0E:89AE  25                  	db $25		;[Note] 38
     955.  0E:89AF  C1                  	db $C1		;[Wait] 2
     956.  0E:89B0  2A                  	db $2A		;[Note] 43
     957.  0E:89B1  CF                  	db $CF		;[Wait] 16
     958.  0E:89B2  2A                  	db $2A		;[Note] 43
     959.  0E:89B3  C2                  	db $C2		;[Wait] 3
     960.  0E:89B4  28                  	db $28		;[Note] 41
     961.  0E:89B5                      				;[Skip delay] 3
     962.  0E:89B5  2A                  	db $2A		;[Note] 43
     963.  0E:89B6  C1                  	db $C1		;[Wait] 2
     964.  0E:89B7  2B                  	db $2B		;[Note] 44
     965.  0E:89B8  CF                  	db $CF		;[Wait] 16
     966.  0E:89B9  2D                  	db $2D		;[Note] 46
     967.  0E:89BA  C7                  	db $C7		;[Wait] 8
     968.  0E:89BB  31                  	db $31		;[Note] 50
     969.  0E:89BC  C4                  	db $C4		;[Wait] 5
     970.  0E:89BD  BF                  	db $BF		;[End-Of-Track]
     971.  0E:89BE                      .track_16:
     972.  0E:89BE  23                  	db $23		;[Note] 36
     973.  0E:89BF  6F                  	db $6F		;[Volume] 15
     974.  0E:89C0  83                  	db $83		;[Instrument] 20
     975.  0E:89C1  C3                  	db $C3		;[Wait] 4
     976.  0E:89C2  23                  	db $23		;[Note] 36
     977.  0E:89C3                      				;[Skip delay] 4
     978.  0E:89C3  23                  	db $23		;[Note] 36
     979.  0E:89C4  81                  	db $81		;[Instrument] 18
     980.  0E:89C5  C2                  	db $C2		;[Wait] 3
     981.  0E:89C6  23                  	db $23		;[Note] 36
     982.  0E:89C7  67                  	db $67		;[Volume] 7
     983.  0E:89C8  C0                  	db $C0		;[Wait] 1
     984.  0E:89C9  23                  	db $23		;[Note] 36
     985.  0E:89CA  6F                  	db $6F		;[Volume] 15
     986.  0E:89CB  83                  	db $83		;[Instrument] 20
     987.  0E:89CC  C1                  	db $C1		;[Wait] 2
     988.  0E:89CD  23                  	db $23		;[Note] 36
     989.  0E:89CE                      				;[Skip delay] 2
     990.  0E:89CE  23                  	db $23		;[Note] 36
     991.  0E:89CF  C3                  	db $C3		;[Wait] 4
     992.  0E:89D0  23                  	db $23		;[Note] 36
     993.  0E:89D1                      				;[Skip delay] 4
     994.  0E:89D1  23                  	db $23		;[Note] 36
     995.  0E:89D2  81                  	db $81		;[Instrument] 18
     996.  0E:89D3  C2                  	db $C2		;[Wait] 3
     997.  0E:89D4  23                  	db $23		;[Note] 36
     998.  0E:89D5  67                  	db $67		;[Volume] 7
     999.  0E:89D6  C4                  	db $C4		;[Wait] 5
    1000.  0E:89D7  23                  	db $23		;[Note] 36
    1001.  0E:89D8  6F                  	db $6F		;[Volume] 15
    1002.  0E:89D9  83                  	db $83		;[Instrument] 20
    1003.  0E:89DA  C3                  	db $C3		;[Wait] 4
    1004.  0E:89DB  23                  	db $23		;[Note] 36
    1005.  0E:89DC                      				;[Skip delay] 4
    1006.  0E:89DC  23                  	db $23		;[Note] 36
    1007.  0E:89DD  81                  	db $81		;[Instrument] 18
    1008.  0E:89DE  C2                  	db $C2		;[Wait] 3
    1009.  0E:89DF  23                  	db $23		;[Note] 36
    1010.  0E:89E0  67                  	db $67		;[Volume] 7
    1011.  0E:89E1  C0                  	db $C0		;[Wait] 1
    1012.  0E:89E2  23                  	db $23		;[Note] 36
    1013.  0E:89E3  6F                  	db $6F		;[Volume] 15
    1014.  0E:89E4  83                  	db $83		;[Instrument] 20
    1015.  0E:89E5  C1                  	db $C1		;[Wait] 2
    1016.  0E:89E6  23                  	db $23		;[Note] 36
    1017.  0E:89E7                      				;[Skip delay] 2
    1018.  0E:89E7  23                  	db $23		;[Note] 36
    1019.  0E:89E8  C3                  	db $C3		;[Wait] 4
    1020.  0E:89E9  23                  	db $23		;[Note] 36
    1021.  0E:89EA                      				;[Skip delay] 4
    1022.  0E:89EA  23                  	db $23		;[Note] 36
    1023.  0E:89EB  81                  	db $81		;[Instrument] 18
    1024.  0E:89EC  C2                  	db $C2		;[Wait] 3
    1025.  0E:89ED  23                  	db $23		;[Note] 36
    1026.  0E:89EE  67                  	db $67		;[Volume] 7
    1027.  0E:89EF  C4                  	db $C4		;[Wait] 5
    1028.  0E:89F0  BF                  	db $BF		;[End-Of-Track]
    1029.  0E:89F1                      .track_17:
    1030.  0E:89F1  17                  	db $17		;[Note] 24
    1031.  0E:89F2  7F                  	db $7F		;[Instrument] 16
    1032.  0E:89F3  C5                  	db $C5		;[Wait] 6
    1033.  0E:89F4  17                  	db $17		;[Note] 24
    1034.  0E:89F5  C1                  	db $C1		;[Wait] 2
    1035.  0E:89F6  23                  	db $23		;[Note] 36
    1036.  0E:89F7  C3                  	db $C3		;[Wait] 4
    1037.  0E:89F8  17                  	db $17		;[Note] 24
    1038.  0E:89F9                      				;[Skip delay] 4
    1039.  0E:89F9  23                  	db $23		;[Note] 36
    1040.  0E:89FA                      				;[Skip delay] 4
    1041.  0E:89FA  21                  	db $21		;[Note] 34
    1042.  0E:89FB  7D                  	db $7D		;[Instrument] 14
    1043.  0E:89FC  C1                  	db $C1		;[Wait] 2
    1044.  0E:89FD  21                  	db $21		;[Note] 34
    1045.  0E:89FE  80                  	db $80		;[Instrument] 17
    1046.  0E:89FF                      				;[Skip delay] 2
    1047.  0E:89FF  1E                  	db $1E		;[Note] 31
    1048.  0E:8A00  7D                  	db $7D		;[Instrument] 14
    1049.  0E:8A01  C3                  	db $C3		;[Wait] 4
    1050.  0E:8A02  23                  	db $23		;[Note] 36
    1051.  0E:8A03  7F                  	db $7F		;[Instrument] 16
    1052.  0E:8A04                      				;[Skip delay] 4
    1053.  0E:8A04  15                  	db $15		;[Note] 22
    1054.  0E:8A05  C5                  	db $C5		;[Wait] 6
    1055.  0E:8A06  15                  	db $15		;[Note] 22
    1056.  0E:8A07  C1                  	db $C1		;[Wait] 2
    1057.  0E:8A08  21                  	db $21		;[Note] 34
    1058.  0E:8A09  C3                  	db $C3		;[Wait] 4
    1059.  0E:8A0A  15                  	db $15		;[Note] 22
    1060.  0E:8A0B                      				;[Skip delay] 4
    1061.  0E:8A0B  21                  	db $21		;[Note] 34
    1062.  0E:8A0C                      				;[Skip delay] 4
    1063.  0E:8A0C  1F                  	db $1F		;[Note] 32
    1064.  0E:8A0D  C1                  	db $C1		;[Wait] 2
    1065.  0E:8A0E  21                  	db $21		;[Note] 34
    1066.  0E:8A0F  80                  	db $80		;[Instrument] 17
    1067.  0E:8A10                      				;[Skip delay] 2
    1068.  0E:8A10  1E                  	db $1E		;[Note] 31
    1069.  0E:8A11  7D                  	db $7D		;[Instrument] 14
    1070.  0E:8A12  C3                  	db $C3		;[Wait] 4
    1071.  0E:8A13  21                  	db $21		;[Note] 34
    1072.  0E:8A14                      				;[Skip delay] 4
    1073.  0E:8A14  BF                  	db $BF		;[End-Of-Track]
    1074.  0E:8A15                      .track_18:
    1075.  0E:8A15  23                  	db $23		;[Note] 36
    1076.  0E:8A16  6F                  	db $6F		;[Volume] 15
    1077.  0E:8A17  70                  	db $70		;[Instrument] 1
    1078.  0E:8A18  9E 00               	db $9E, $00	; short arp
    1079.  0E:8A1A  CB                  	db $CB		;[Wait] 12
    1080.  0E:8A1B  2D                  	db $2D		;[Note] 46
    1081.  0E:8A1C  C0                  	db $C0		;[Wait] 1
    1082.  0E:8A1D  60                  	db $60		;[Note] 97
    1083.  0E:8A1E                      				;[Skip delay] 1
    1084.  0E:8A1E  2F                  	db $2F		;[Note] 48
    1085.  0E:8A1F                      				;[Skip delay] 1
    1086.  0E:8A1F  60                  	db $60		;[Note] 97
    1087.  0E:8A20                      				;[Skip delay] 1
    1088.  0E:8A20  2D                  	db $2D		;[Note] 46
    1089.  0E:8A21  C4                  	db $C4		;[Wait] 5
    1090.  0E:8A22  60                  	db $60		;[Note] 97
    1091.  0E:8A23  C0                  	db $C0		;[Wait] 1
    1092.  0E:8A24  2A                  	db $2A		;[Note] 43
    1093.  0E:8A25  C4                  	db $C4		;[Wait] 5
    1094.  0E:8A26  60                  	db $60		;[Note] 97
    1095.  0E:8A27  C0                  	db $C0		;[Wait] 1
    1096.  0E:8A28  28                  	db $28		;[Note] 41
    1097.  0E:8A29  C3                  	db $C3		;[Wait] 4
    1098.  0E:8A2A  2A                  	db $2A		;[Note] 43
    1099.  0E:8A2B  C2                  	db $C2		;[Wait] 3
    1100.  0E:8A2C  60                  	db $60		;[Note] 97
    1101.  0E:8A2D                      				;[Skip delay] 3
    1102.  0E:8A2D  28                  	db $28		;[Note] 41
    1103.  0E:8A2E  C1                  	db $C1		;[Wait] 2
    1104.  0E:8A2F  2A                  	db $2A		;[Note] 43
    1105.  0E:8A30  D7                  	db $D7		;[Wait] 24
    1106.  0E:8A31  BF                  	db $BF		;[End-Of-Track]
    1107.  0E:8A32                      .track_19:
    1108.  0E:8A32  60                  	db $60		;[Note] 97
    1109.  0E:8A33  FE                  	db $FE		;[Wait] 63
    1110.  0E:8A34  C0                  	db $C0		;[Wait] 1
    1111.  0E:8A35  BF                  	db $BF		;[End-Of-Track]
    1112.  0E:8A36                      .track_20:
    1113.  0E:8A36  2F                  	db $2F		;[Note] 48
    1114.  0E:8A37  6D                  	db $6D		;[Volume] 13
    1115.  0E:8A38  73                  	db $73		;[Instrument] 4
    1116.  0E:8A39  CD                  	db $CD		;[Wait] 14
    1117.  0E:8A3A  60                  	db $60		;[Note] 97
    1118.  0E:8A3B  C1                  	db $C1		;[Wait] 2
    1119.  0E:8A3C  2F                  	db $2F		;[Note] 48
    1120.  0E:8A3D  C5                  	db $C5		;[Wait] 6
    1121.  0E:8A3E  3B                  	db $3B		;[Note] 60
    1122.  0E:8A3F                      				;[Skip delay] 6
    1123.  0E:8A3F  36                  	db $36		;[Note] 55
    1124.  0E:8A40  C3                  	db $C3		;[Wait] 4
    1125.  0E:8A41  39                  	db $39		;[Note] 58
    1126.  0E:8A42  CF                  	db $CF		;[Wait] 16
    1127.  0E:8A43  34                  	db $34		;[Note] 53
    1128.  0E:8A44                      				;[Skip delay] 16
    1129.  0E:8A44  BF                  	db $BF		;[End-Of-Track]
    1130.  0E:8A45                      .track_21:
    1131.  0E:8A45  0B                  	db $0B		;[Note] 12
    1132.  0E:8A46  C5                  	db $C5		;[Wait] 6
    1133.  0E:8A47  0B                  	db $0B		;[Note] 12
    1134.  0E:8A48  C1                  	db $C1		;[Wait] 2
    1135.  0E:8A49  17                  	db $17		;[Note] 24
    1136.  0E:8A4A  C3                  	db $C3		;[Wait] 4
    1137.  0E:8A4B  0B                  	db $0B		;[Note] 12
    1138.  0E:8A4C                      				;[Skip delay] 4
    1139.  0E:8A4C  17                  	db $17		;[Note] 24
    1140.  0E:8A4D                      				;[Skip delay] 4
    1141.  0E:8A4D  15                  	db $15		;[Note] 22
    1142.  0E:8A4E                      				;[Skip delay] 4
    1143.  0E:8A4E  12                  	db $12		;[Note] 19
    1144.  0E:8A4F                      				;[Skip delay] 4
    1145.  0E:8A4F  17                  	db $17		;[Note] 24
    1146.  0E:8A50                      				;[Skip delay] 4
    1147.  0E:8A50  09                  	db $09		;[Note] 10
    1148.  0E:8A51  C5                  	db $C5		;[Wait] 6
    1149.  0E:8A52  09                  	db $09		;[Note] 10
    1150.  0E:8A53  C1                  	db $C1		;[Wait] 2
    1151.  0E:8A54  15                  	db $15		;[Note] 22
    1152.  0E:8A55  C3                  	db $C3		;[Wait] 4
    1153.  0E:8A56  09                  	db $09		;[Note] 10
    1154.  0E:8A57                      				;[Skip delay] 4
    1155.  0E:8A57  15                  	db $15		;[Note] 22
    1156.  0E:8A58                      				;[Skip delay] 4
    1157.  0E:8A58  13                  	db $13		;[Note] 20
    1158.  0E:8A59                      				;[Skip delay] 4
    1159.  0E:8A59  12                  	db $12		;[Note] 19
    1160.  0E:8A5A                      				;[Skip delay] 4
    1161.  0E:8A5A  15                  	db $15		;[Note] 22
    1162.  0E:8A5B                      				;[Skip delay] 4
    1163.  0E:8A5B  BF                  	db $BF		;[End-Of-Track]
    1164.  0E:8A5C                      .track_22:
    1165.  0E:8A5C  23                  	db $23		;[Note] 36
    1166.  0E:8A5D  6F                  	db $6F		;[Volume] 15
    1167.  0E:8A5E  74                  	db $74		;[Instrument] 5
    1168.  0E:8A5F  CB                  	db $CB		;[Wait] 12
    1169.  0E:8A60  2D                  	db $2D		;[Note] 46
    1170.  0E:8A61  C0                  	db $C0		;[Wait] 1
    1171.  0E:8A62  60                  	db $60		;[Note] 97
    1172.  0E:8A63                      				;[Skip delay] 1
    1173.  0E:8A63  2F                  	db $2F		;[Note] 48
    1174.  0E:8A64                      				;[Skip delay] 1
    1175.  0E:8A64  60                  	db $60		;[Note] 97
    1176.  0E:8A65                      				;[Skip delay] 1
    1177.  0E:8A65  2D                  	db $2D		;[Note] 46
    1178.  0E:8A66  C4                  	db $C4		;[Wait] 5
    1179.  0E:8A67  60                  	db $60		;[Note] 97
    1180.  0E:8A68  C0                  	db $C0		;[Wait] 1
    1181.  0E:8A69  2A                  	db $2A		;[Note] 43
    1182.  0E:8A6A  C4                  	db $C4		;[Wait] 5
    1183.  0E:8A6B  60                  	db $60		;[Note] 97
    1184.  0E:8A6C  C0                  	db $C0		;[Wait] 1
    1185.  0E:8A6D  28                  	db $28		;[Note] 41
    1186.  0E:8A6E  C3                  	db $C3		;[Wait] 4
    1187.  0E:8A6F  2A                  	db $2A		;[Note] 43
    1188.  0E:8A70  C2                  	db $C2		;[Wait] 3
    1189.  0E:8A71  60                  	db $60		;[Note] 97
    1190.  0E:8A72                      				;[Skip delay] 3
    1191.  0E:8A72  28                  	db $28		;[Note] 41
    1192.  0E:8A73  C1                  	db $C1		;[Wait] 2
    1193.  0E:8A74  2A                  	db $2A		;[Note] 43
    1194.  0E:8A75  D7                  	db $D7		;[Wait] 24
    1195.  0E:8A76  BF                  	db $BF		;[End-Of-Track]
    1196.  0E:8A77                      .track_23:
    1197.  0E:8A77  60                  	db $60		;[Note] 97
    1198.  0E:8A78  C2                  	db $C2		;[Wait] 3
    1199.  0E:8A79  23                  	db $23		;[Note] 36
    1200.  0E:8A7A  66                  	db $66		;[Volume] 6
    1201.  0E:8A7B  74                  	db $74		;[Instrument] 5
    1202.  0E:8A7C  95 03               	db $95, $03	; track detune
    1203.  0E:8A7E  CB                  	db $CB		;[Wait] 12
    1204.  0E:8A7F  2D                  	db $2D		;[Note] 46
    1205.  0E:8A80  C0                  	db $C0		;[Wait] 1
    1206.  0E:8A81  60                  	db $60		;[Note] 97
    1207.  0E:8A82                      				;[Skip delay] 1
    1208.  0E:8A82  2F                  	db $2F		;[Note] 48
    1209.  0E:8A83                      				;[Skip delay] 1
    1210.  0E:8A83  60                  	db $60		;[Note] 97
    1211.  0E:8A84                      				;[Skip delay] 1
    1212.  0E:8A84  2D                  	db $2D		;[Note] 46
    1213.  0E:8A85  C4                  	db $C4		;[Wait] 5
    1214.  0E:8A86  60                  	db $60		;[Note] 97
    1215.  0E:8A87  C0                  	db $C0		;[Wait] 1
    1216.  0E:8A88  2A                  	db $2A		;[Note] 43
    1217.  0E:8A89  C4                  	db $C4		;[Wait] 5
    1218.  0E:8A8A  60                  	db $60		;[Note] 97
    1219.  0E:8A8B  C0                  	db $C0		;[Wait] 1
    1220.  0E:8A8C  28                  	db $28		;[Note] 41
    1221.  0E:8A8D  C3                  	db $C3		;[Wait] 4
    1222.  0E:8A8E  2A                  	db $2A		;[Note] 43
    1223.  0E:8A8F  C2                  	db $C2		;[Wait] 3
    1224.  0E:8A90  60                  	db $60		;[Note] 97
    1225.  0E:8A91                      				;[Skip delay] 3
    1226.  0E:8A91  28                  	db $28		;[Note] 41
    1227.  0E:8A92  C1                  	db $C1		;[Wait] 2
    1228.  0E:8A93  2A                  	db $2A		;[Note] 43
    1229.  0E:8A94  D4                  	db $D4		;[Wait] 21
    1230.  0E:8A95  BF                  	db $BF		;[End-Of-Track]
    1231.  0E:8A96                      .track_24:
    1232.  0E:8A96  13                  	db $13		;[Note] 20
    1233.  0E:8A97  7F                  	db $7F		;[Instrument] 16
    1234.  0E:8A98  C5                  	db $C5		;[Wait] 6
    1235.  0E:8A99  13                  	db $13		;[Note] 20
    1236.  0E:8A9A  C1                  	db $C1		;[Wait] 2
    1237.  0E:8A9B  1F                  	db $1F		;[Note] 32
    1238.  0E:8A9C  C3                  	db $C3		;[Wait] 4
    1239.  0E:8A9D  13                  	db $13		;[Note] 20
    1240.  0E:8A9E                      				;[Skip delay] 4
    1241.  0E:8A9E  1F                  	db $1F		;[Note] 32
    1242.  0E:8A9F                      				;[Skip delay] 4
    1243.  0E:8A9F  1E                  	db $1E		;[Note] 31
    1244.  0E:8AA0  7D                  	db $7D		;[Instrument] 14
    1245.  0E:8AA1  C1                  	db $C1		;[Wait] 2
    1246.  0E:8AA2  1E                  	db $1E		;[Note] 31
    1247.  0E:8AA3  80                  	db $80		;[Instrument] 17
    1248.  0E:8AA4                      				;[Skip delay] 2
    1249.  0E:8AA4  1C                  	db $1C		;[Note] 29
    1250.  0E:8AA5  7D                  	db $7D		;[Instrument] 14
    1251.  0E:8AA6  C3                  	db $C3		;[Wait] 4
    1252.  0E:8AA7  1F                  	db $1F		;[Note] 32
    1253.  0E:8AA8  7F                  	db $7F		;[Instrument] 16
    1254.  0E:8AA9                      				;[Skip delay] 4
    1255.  0E:8AA9  15                  	db $15		;[Note] 22
    1256.  0E:8AAA  C5                  	db $C5		;[Wait] 6
    1257.  0E:8AAB  15                  	db $15		;[Note] 22
    1258.  0E:8AAC  C1                  	db $C1		;[Wait] 2
    1259.  0E:8AAD  21                  	db $21		;[Note] 34
    1260.  0E:8AAE  C3                  	db $C3		;[Wait] 4
    1261.  0E:8AAF  15                  	db $15		;[Note] 22
    1262.  0E:8AB0                      				;[Skip delay] 4
    1263.  0E:8AB0  21                  	db $21		;[Note] 34
    1264.  0E:8AB1                      				;[Skip delay] 4
    1265.  0E:8AB1  23                  	db $23		;[Note] 36
    1266.  0E:8AB2  C1                  	db $C1		;[Wait] 2
    1267.  0E:8AB3  23                  	db $23		;[Note] 36
    1268.  0E:8AB4  80                  	db $80		;[Instrument] 17
    1269.  0E:8AB5                      				;[Skip delay] 2
    1270.  0E:8AB5  25                  	db $25		;[Note] 38
    1271.  0E:8AB6  7D                  	db $7D		;[Instrument] 14
    1272.  0E:8AB7  C3                  	db $C3		;[Wait] 4
    1273.  0E:8AB8  21                  	db $21		;[Note] 34
    1274.  0E:8AB9                      				;[Skip delay] 4
    1275.  0E:8AB9  BF                  	db $BF		;[End-Of-Track]
    1276.  0E:8ABA                      .track_25:
    1277.  0E:8ABA  28                  	db $28		;[Note] 41
    1278.  0E:8ABB  CB                  	db $CB		;[Wait] 12
    1279.  0E:8ABC  2A                  	db $2A		;[Note] 43
    1280.  0E:8ABD  C0                  	db $C0		;[Wait] 1
    1281.  0E:8ABE  60                  	db $60		;[Note] 97
    1282.  0E:8ABF                      				;[Skip delay] 1
    1283.  0E:8ABF  2B                  	db $2B		;[Note] 44
    1284.  0E:8AC0                      				;[Skip delay] 1
    1285.  0E:8AC0  60                  	db $60		;[Note] 97
    1286.  0E:8AC1                      				;[Skip delay] 1
    1287.  0E:8AC1  2A                  	db $2A		;[Note] 43
    1288.  0E:8AC2  C4                  	db $C4		;[Wait] 5
    1289.  0E:8AC3  60                  	db $60		;[Note] 97
    1290.  0E:8AC4  C0                  	db $C0		;[Wait] 1
    1291.  0E:8AC5  28                  	db $28		;[Note] 41
    1292.  0E:8AC6  C4                  	db $C4		;[Wait] 5
    1293.  0E:8AC7  60                  	db $60		;[Note] 97
    1294.  0E:8AC8  C0                  	db $C0		;[Wait] 1
    1295.  0E:8AC9  25                  	db $25		;[Note] 38
    1296.  0E:8ACA  C3                  	db $C3		;[Wait] 4
    1297.  0E:8ACB  26                  	db $26		;[Note] 39
    1298.  0E:8ACC  C7                  	db $C7		;[Wait] 8
    1299.  0E:8ACD  28                  	db $28		;[Note] 41
    1300.  0E:8ACE                      				;[Skip delay] 8
    1301.  0E:8ACE  2A                  	db $2A		;[Note] 43
    1302.  0E:8ACF                      				;[Skip delay] 8
    1303.  0E:8ACF  32                  	db $32		;[Note] 51
    1304.  0E:8AD0  6B                  	db $6B		;[Volume] 11
    1305.  0E:8AD1  84                  	db $84		;[Instrument] 21
    1306.  0E:8AD2                      				;[Skip delay] 8
    1307.  0E:8AD2  BF                  	db $BF		;[End-Of-Track]
    1308.  0E:8AD3                      .track_26:
    1309.  0E:8AD3  FE                  	db $FE		;[Wait] 63
    1310.  0E:8AD4  C0                  	db $C0		;[Wait] 1
    1311.  0E:8AD5  BF                  	db $BF		;[End-Of-Track]
    1312.  0E:8AD6                      .track_27:
    1313.  0E:8AD6  32                  	db $32		;[Note] 51
    1314.  0E:8AD7  CF                  	db $CF		;[Wait] 16
    1315.  0E:8AD8  2F                  	db $2F		;[Note] 48
    1316.  0E:8AD9                      				;[Skip delay] 16
    1317.  0E:8AD9  39                  	db $39		;[Note] 58
    1318.  0E:8ADA                      				;[Skip delay] 16
    1319.  0E:8ADA  34                  	db $34		;[Note] 53
    1320.  0E:8ADB                      				;[Skip delay] 16
    1321.  0E:8ADB  BF                  	db $BF		;[End-Of-Track]
    1322.  0E:8ADC                      .track_28:
    1323.  0E:8ADC  07                  	db $07		;[Note] 8
    1324.  0E:8ADD  C5                  	db $C5		;[Wait] 6
    1325.  0E:8ADE  07                  	db $07		;[Note] 8
    1326.  0E:8ADF  C1                  	db $C1		;[Wait] 2
    1327.  0E:8AE0  13                  	db $13		;[Note] 20
    1328.  0E:8AE1  C3                  	db $C3		;[Wait] 4
    1329.  0E:8AE2  07                  	db $07		;[Note] 8
    1330.  0E:8AE3                      				;[Skip delay] 4
    1331.  0E:8AE3  13                  	db $13		;[Note] 20
    1332.  0E:8AE4                      				;[Skip delay] 4
    1333.  0E:8AE4  12                  	db $12		;[Note] 19
    1334.  0E:8AE5                      				;[Skip delay] 4
    1335.  0E:8AE5  10                  	db $10		;[Note] 17
    1336.  0E:8AE6                      				;[Skip delay] 4
    1337.  0E:8AE6  13                  	db $13		;[Note] 20
    1338.  0E:8AE7                      				;[Skip delay] 4
    1339.  0E:8AE7  09                  	db $09		;[Note] 10
    1340.  0E:8AE8  C5                  	db $C5		;[Wait] 6
    1341.  0E:8AE9  09                  	db $09		;[Note] 10
    1342.  0E:8AEA  C1                  	db $C1		;[Wait] 2
    1343.  0E:8AEB  15                  	db $15		;[Note] 22
    1344.  0E:8AEC  C3                  	db $C3		;[Wait] 4
    1345.  0E:8AED  09                  	db $09		;[Note] 10
    1346.  0E:8AEE                      				;[Skip delay] 4
    1347.  0E:8AEE  15                  	db $15		;[Note] 22
    1348.  0E:8AEF                      				;[Skip delay] 4
    1349.  0E:8AEF  17                  	db $17		;[Note] 24
    1350.  0E:8AF0                      				;[Skip delay] 4
    1351.  0E:8AF0  19                  	db $19		;[Note] 26
    1352.  0E:8AF1                      				;[Skip delay] 4
    1353.  0E:8AF1  15                  	db $15		;[Note] 22
    1354.  0E:8AF2                      				;[Skip delay] 4
    1355.  0E:8AF2  BF                  	db $BF		;[End-Of-Track]
    1356.  0E:8AF3                      .track_29:
    1357.  0E:8AF3  28                  	db $28		;[Note] 41
    1358.  0E:8AF4  CB                  	db $CB		;[Wait] 12
    1359.  0E:8AF5  2A                  	db $2A		;[Note] 43
    1360.  0E:8AF6  C0                  	db $C0		;[Wait] 1
    1361.  0E:8AF7  60                  	db $60		;[Note] 97
    1362.  0E:8AF8                      				;[Skip delay] 1
    1363.  0E:8AF8  2B                  	db $2B		;[Note] 44
    1364.  0E:8AF9                      				;[Skip delay] 1
    1365.  0E:8AF9  60                  	db $60		;[Note] 97
    1366.  0E:8AFA                      				;[Skip delay] 1
    1367.  0E:8AFA  2A                  	db $2A		;[Note] 43
    1368.  0E:8AFB  C4                  	db $C4		;[Wait] 5
    1369.  0E:8AFC  60                  	db $60		;[Note] 97
    1370.  0E:8AFD  C0                  	db $C0		;[Wait] 1
    1371.  0E:8AFE  28                  	db $28		;[Note] 41
    1372.  0E:8AFF  C4                  	db $C4		;[Wait] 5
    1373.  0E:8B00  60                  	db $60		;[Note] 97
    1374.  0E:8B01  C0                  	db $C0		;[Wait] 1
    1375.  0E:8B02  25                  	db $25		;[Note] 38
    1376.  0E:8B03  C3                  	db $C3		;[Wait] 4
    1377.  0E:8B04  26                  	db $26		;[Note] 39
    1378.  0E:8B05  C7                  	db $C7		;[Wait] 8
    1379.  0E:8B06  28                  	db $28		;[Note] 41
    1380.  0E:8B07                      				;[Skip delay] 8
    1381.  0E:8B07  2A                  	db $2A		;[Note] 43
    1382.  0E:8B08  CF                  	db $CF		;[Wait] 16
    1383.  0E:8B09  BF                  	db $BF		;[End-Of-Track]
    1384.  0E:8B0A                      .track_30:
    1385.  0E:8B0A  C2                  	db $C2		;[Wait] 3
    1386.  0E:8B0B  28                  	db $28		;[Note] 41
    1387.  0E:8B0C  CB                  	db $CB		;[Wait] 12
    1388.  0E:8B0D  2A                  	db $2A		;[Note] 43
    1389.  0E:8B0E  C0                  	db $C0		;[Wait] 1
    1390.  0E:8B0F  60                  	db $60		;[Note] 97
    1391.  0E:8B10                      				;[Skip delay] 1
    1392.  0E:8B10  2B                  	db $2B		;[Note] 44
    1393.  0E:8B11                      				;[Skip delay] 1
    1394.  0E:8B11  60                  	db $60		;[Note] 97
    1395.  0E:8B12                      				;[Skip delay] 1
    1396.  0E:8B12  2A                  	db $2A		;[Note] 43
    1397.  0E:8B13  C4                  	db $C4		;[Wait] 5
    1398.  0E:8B14  60                  	db $60		;[Note] 97
    1399.  0E:8B15  C0                  	db $C0		;[Wait] 1
    1400.  0E:8B16  28                  	db $28		;[Note] 41
    1401.  0E:8B17  C4                  	db $C4		;[Wait] 5
    1402.  0E:8B18  60                  	db $60		;[Note] 97
    1403.  0E:8B19  C0                  	db $C0		;[Wait] 1
    1404.  0E:8B1A  25                  	db $25		;[Note] 38
    1405.  0E:8B1B  C3                  	db $C3		;[Wait] 4
    1406.  0E:8B1C  26                  	db $26		;[Note] 39
    1407.  0E:8B1D  C7                  	db $C7		;[Wait] 8
    1408.  0E:8B1E  28                  	db $28		;[Note] 41
    1409.  0E:8B1F                      				;[Skip delay] 8
    1410.  0E:8B1F  2A                  	db $2A		;[Note] 43
    1411.  0E:8B20  CC                  	db $CC		;[Wait] 13
    1412.  0E:8B21  BF                  	db $BF		;[End-Of-Track]
    1413.  0E:8B22                      .track_31:
    1414.  0E:8B22  17                  	db $17		;[Note] 24
    1415.  0E:8B23  7F                  	db $7F		;[Instrument] 16
    1416.  0E:8B24  C5                  	db $C5		;[Wait] 6
    1417.  0E:8B25  17                  	db $17		;[Note] 24
    1418.  0E:8B26  C1                  	db $C1		;[Wait] 2
    1419.  0E:8B27  23                  	db $23		;[Note] 36
    1420.  0E:8B28  C3                  	db $C3		;[Wait] 4
    1421.  0E:8B29  17                  	db $17		;[Note] 24
    1422.  0E:8B2A                      				;[Skip delay] 4
    1423.  0E:8B2A  23                  	db $23		;[Note] 36
    1424.  0E:8B2B                      				;[Skip delay] 4
    1425.  0E:8B2B  21                  	db $21		;[Note] 34
    1426.  0E:8B2C  7D                  	db $7D		;[Instrument] 14
    1427.  0E:8B2D  C1                  	db $C1		;[Wait] 2
    1428.  0E:8B2E  21                  	db $21		;[Note] 34
    1429.  0E:8B2F  80                  	db $80		;[Instrument] 17
    1430.  0E:8B30                      				;[Skip delay] 2
    1431.  0E:8B30  1E                  	db $1E		;[Note] 31
    1432.  0E:8B31  7D                  	db $7D		;[Instrument] 14
    1433.  0E:8B32  C3                  	db $C3		;[Wait] 4
    1434.  0E:8B33  23                  	db $23		;[Note] 36
    1435.  0E:8B34  7F                  	db $7F		;[Instrument] 16
    1436.  0E:8B35                      				;[Skip delay] 4
    1437.  0E:8B35  15                  	db $15		;[Note] 22
    1438.  0E:8B36  C5                  	db $C5		;[Wait] 6
    1439.  0E:8B37  15                  	db $15		;[Note] 22
    1440.  0E:8B38  C1                  	db $C1		;[Wait] 2
    1441.  0E:8B39  21                  	db $21		;[Note] 34
    1442.  0E:8B3A  C3                  	db $C3		;[Wait] 4
    1443.  0E:8B3B  15                  	db $15		;[Note] 22
    1444.  0E:8B3C                      				;[Skip delay] 4
    1445.  0E:8B3C  21                  	db $21		;[Note] 34
    1446.  0E:8B3D                      				;[Skip delay] 4
    1447.  0E:8B3D  1F                  	db $1F		;[Note] 32
    1448.  0E:8B3E  C1                  	db $C1		;[Wait] 2
    1449.  0E:8B3F  1F                  	db $1F		;[Note] 32
    1450.  0E:8B40  80                  	db $80		;[Instrument] 17
    1451.  0E:8B41                      				;[Skip delay] 2
    1452.  0E:8B41  1E                  	db $1E		;[Note] 31
    1453.  0E:8B42  7D                  	db $7D		;[Instrument] 14
    1454.  0E:8B43  C3                  	db $C3		;[Wait] 4
    1455.  0E:8B44  21                  	db $21		;[Note] 34
    1456.  0E:8B45                      				;[Skip delay] 4
    1457.  0E:8B45  BF                  	db $BF		;[End-Of-Track]
    1458.  0E:8B46                      .track_32:
    1459.  0E:8B46  23                  	db $23		;[Note] 36
    1460.  0E:8B47  6F                  	db $6F		;[Volume] 15
    1461.  0E:8B48  70                  	db $70		;[Instrument] 1
    1462.  0E:8B49  CB                  	db $CB		;[Wait] 12
    1463.  0E:8B4A  2D                  	db $2D		;[Note] 46
    1464.  0E:8B4B  C0                  	db $C0		;[Wait] 1
    1465.  0E:8B4C  60                  	db $60		;[Note] 97
    1466.  0E:8B4D                      				;[Skip delay] 1
    1467.  0E:8B4D  2F                  	db $2F		;[Note] 48
    1468.  0E:8B4E                      				;[Skip delay] 1
    1469.  0E:8B4E  60                  	db $60		;[Note] 97
    1470.  0E:8B4F                      				;[Skip delay] 1
    1471.  0E:8B4F  2D                  	db $2D		;[Note] 46
    1472.  0E:8B50  C4                  	db $C4		;[Wait] 5
    1473.  0E:8B51  60                  	db $60		;[Note] 97
    1474.  0E:8B52  C0                  	db $C0		;[Wait] 1
    1475.  0E:8B53  2A                  	db $2A		;[Note] 43
    1476.  0E:8B54  C4                  	db $C4		;[Wait] 5
    1477.  0E:8B55  60                  	db $60		;[Note] 97
    1478.  0E:8B56  C0                  	db $C0		;[Wait] 1
    1479.  0E:8B57  28                  	db $28		;[Note] 41
    1480.  0E:8B58  C3                  	db $C3		;[Wait] 4
    1481.  0E:8B59  2A                  	db $2A		;[Note] 43
    1482.  0E:8B5A  C2                  	db $C2		;[Wait] 3
    1483.  0E:8B5B  60                  	db $60		;[Note] 97
    1484.  0E:8B5C                      				;[Skip delay] 3
    1485.  0E:8B5C  28                  	db $28		;[Note] 41
    1486.  0E:8B5D  C1                  	db $C1		;[Wait] 2
    1487.  0E:8B5E  2A                  	db $2A		;[Note] 43
    1488.  0E:8B5F  D7                  	db $D7		;[Wait] 24
    1489.  0E:8B60  BF                  	db $BF		;[End-Of-Track]
    1490.  0E:8B61                      .track_33:
    1491.  0E:8B61  23                  	db $23		;[Note] 36
    1492.  0E:8B62  6F                  	db $6F		;[Volume] 15
    1493.  0E:8B63  CB                  	db $CB		;[Wait] 12
    1494.  0E:8B64  2D                  	db $2D		;[Note] 46
    1495.  0E:8B65  C0                  	db $C0		;[Wait] 1
    1496.  0E:8B66  60                  	db $60		;[Note] 97
    1497.  0E:8B67                      				;[Skip delay] 1
    1498.  0E:8B67  2F                  	db $2F		;[Note] 48
    1499.  0E:8B68                      				;[Skip delay] 1
    1500.  0E:8B68  60                  	db $60		;[Note] 97
    1501.  0E:8B69                      				;[Skip delay] 1
    1502.  0E:8B69  2D                  	db $2D		;[Note] 46
    1503.  0E:8B6A  C4                  	db $C4		;[Wait] 5
    1504.  0E:8B6B  60                  	db $60		;[Note] 97
    1505.  0E:8B6C  C0                  	db $C0		;[Wait] 1
    1506.  0E:8B6D  2A                  	db $2A		;[Note] 43
    1507.  0E:8B6E  C4                  	db $C4		;[Wait] 5
    1508.  0E:8B6F  60                  	db $60		;[Note] 97
    1509.  0E:8B70  C0                  	db $C0		;[Wait] 1
    1510.  0E:8B71  28                  	db $28		;[Note] 41
    1511.  0E:8B72  C3                  	db $C3		;[Wait] 4
    1512.  0E:8B73  2A                  	db $2A		;[Note] 43
    1513.  0E:8B74  C2                  	db $C2		;[Wait] 3
    1514.  0E:8B75  60                  	db $60		;[Note] 97
    1515.  0E:8B76                      				;[Skip delay] 3
    1516.  0E:8B76  28                  	db $28		;[Note] 41
    1517.  0E:8B77  C1                  	db $C1		;[Wait] 2
    1518.  0E:8B78  2A                  	db $2A		;[Note] 43
    1519.  0E:8B79  D7                  	db $D7		;[Wait] 24
    1520.  0E:8B7A  BF                  	db $BF		;[End-Of-Track]
    1521.  0E:8B7B                      .track_34:
    1522.  0E:8B7B  C2                  	db $C2		;[Wait] 3
    1523.  0E:8B7C  23                  	db $23		;[Note] 36
    1524.  0E:8B7D  66                  	db $66		;[Volume] 6
    1525.  0E:8B7E  CB                  	db $CB		;[Wait] 12
    1526.  0E:8B7F  2D                  	db $2D		;[Note] 46
    1527.  0E:8B80  C0                  	db $C0		;[Wait] 1
    1528.  0E:8B81  60                  	db $60		;[Note] 97
    1529.  0E:8B82                      				;[Skip delay] 1
    1530.  0E:8B82  2F                  	db $2F		;[Note] 48
    1531.  0E:8B83                      				;[Skip delay] 1
    1532.  0E:8B83  60                  	db $60		;[Note] 97
    1533.  0E:8B84                      				;[Skip delay] 1
    1534.  0E:8B84  2D                  	db $2D		;[Note] 46
    1535.  0E:8B85  C4                  	db $C4		;[Wait] 5
    1536.  0E:8B86  60                  	db $60		;[Note] 97
    1537.  0E:8B87  C0                  	db $C0		;[Wait] 1
    1538.  0E:8B88  2A                  	db $2A		;[Note] 43
    1539.  0E:8B89  C4                  	db $C4		;[Wait] 5
    1540.  0E:8B8A  60                  	db $60		;[Note] 97
    1541.  0E:8B8B  C0                  	db $C0		;[Wait] 1
    1542.  0E:8B8C  28                  	db $28		;[Note] 41
    1543.  0E:8B8D  C3                  	db $C3		;[Wait] 4
    1544.  0E:8B8E  2A                  	db $2A		;[Note] 43
    1545.  0E:8B8F  C2                  	db $C2		;[Wait] 3
    1546.  0E:8B90  60                  	db $60		;[Note] 97
    1547.  0E:8B91                      				;[Skip delay] 3
    1548.  0E:8B91  28                  	db $28		;[Note] 41
    1549.  0E:8B92  C1                  	db $C1		;[Wait] 2
    1550.  0E:8B93  2A                  	db $2A		;[Note] 43
    1551.  0E:8B94  D4                  	db $D4		;[Wait] 21
    1552.  0E:8B95  BF                  	db $BF		;[End-Of-Track]
    1553.  0E:8B96                      .track_35:
    1554.  0E:8B96  23                  	db $23		;[Note] 36
    1555.  0E:8B97  6F                  	db $6F		;[Volume] 15
    1556.  0E:8B98  83                  	db $83		;[Instrument] 20
    1557.  0E:8B99  C3                  	db $C3		;[Wait] 4
    1558.  0E:8B9A  23                  	db $23		;[Note] 36
    1559.  0E:8B9B                      				;[Skip delay] 4
    1560.  0E:8B9B  23                  	db $23		;[Note] 36
    1561.  0E:8B9C  81                  	db $81		;[Instrument] 18
    1562.  0E:8B9D  C2                  	db $C2		;[Wait] 3
    1563.  0E:8B9E  23                  	db $23		;[Note] 36
    1564.  0E:8B9F  67                  	db $67		;[Volume] 7
    1565.  0E:8BA0  C0                  	db $C0		;[Wait] 1
    1566.  0E:8BA1  23                  	db $23		;[Note] 36
    1567.  0E:8BA2  6F                  	db $6F		;[Volume] 15
    1568.  0E:8BA3  83                  	db $83		;[Instrument] 20
    1569.  0E:8BA4  C1                  	db $C1		;[Wait] 2
    1570.  0E:8BA5  23                  	db $23		;[Note] 36
    1571.  0E:8BA6                      				;[Skip delay] 2
    1572.  0E:8BA6  23                  	db $23		;[Note] 36
    1573.  0E:8BA7  C3                  	db $C3		;[Wait] 4
    1574.  0E:8BA8  23                  	db $23		;[Note] 36
    1575.  0E:8BA9                      				;[Skip delay] 4
    1576.  0E:8BA9  23                  	db $23		;[Note] 36
    1577.  0E:8BAA  81                  	db $81		;[Instrument] 18
    1578.  0E:8BAB  C2                  	db $C2		;[Wait] 3
    1579.  0E:8BAC  23                  	db $23		;[Note] 36
    1580.  0E:8BAD  67                  	db $67		;[Volume] 7
    1581.  0E:8BAE  C4                  	db $C4		;[Wait] 5
    1582.  0E:8BAF  23                  	db $23		;[Note] 36
    1583.  0E:8BB0  6F                  	db $6F		;[Volume] 15
    1584.  0E:8BB1  83                  	db $83		;[Instrument] 20
    1585.  0E:8BB2  C3                  	db $C3		;[Wait] 4
    1586.  0E:8BB3  23                  	db $23		;[Note] 36
    1587.  0E:8BB4                      				;[Skip delay] 4
    1588.  0E:8BB4  23                  	db $23		;[Note] 36
    1589.  0E:8BB5  81                  	db $81		;[Instrument] 18
    1590.  0E:8BB6  C2                  	db $C2		;[Wait] 3
    1591.  0E:8BB7  23                  	db $23		;[Note] 36
    1592.  0E:8BB8  67                  	db $67		;[Volume] 7
    1593.  0E:8BB9  C0                  	db $C0		;[Wait] 1
    1594.  0E:8BBA  23                  	db $23		;[Note] 36
    1595.  0E:8BBB  6F                  	db $6F		;[Volume] 15
    1596.  0E:8BBC  83                  	db $83		;[Instrument] 20
    1597.  0E:8BBD  C1                  	db $C1		;[Wait] 2
    1598.  0E:8BBE  23                  	db $23		;[Note] 36
    1599.  0E:8BBF                      				;[Skip delay] 2
    1600.  0E:8BBF  2A                  	db $2A		;[Note] 43
    1601.  0E:8BC0  82                  	db $82		;[Instrument] 19
    1602.  0E:8BC1                      				;[Skip delay] 2
    1603.  0E:8BC1  2A                  	db $2A		;[Note] 43
    1604.  0E:8BC2  C2                  	db $C2		;[Wait] 3
    1605.  0E:8BC3  29                  	db $29		;[Note] 42
    1606.  0E:8BC4  67                  	db $67		;[Volume] 7
    1607.  0E:8BC5  C0                  	db $C0		;[Wait] 1
    1608.  0E:8BC6  26                  	db $26		;[Note] 39
    1609.  0E:8BC7  6F                  	db $6F		;[Volume] 15
    1610.  0E:8BC8  C2                  	db $C2		;[Wait] 3
    1611.  0E:8BC9  26                  	db $26		;[Note] 39
    1612.  0E:8BCA  67                  	db $67		;[Volume] 7
    1613.  0E:8BCB  C0                  	db $C0		;[Wait] 1
    1614.  0E:8BCC  26                  	db $26		;[Note] 39
    1615.  0E:8BCD  6F                  	db $6F		;[Volume] 15
    1616.  0E:8BCE  C1                  	db $C1		;[Wait] 2
    1617.  0E:8BCF  22                  	db $22		;[Note] 35
    1618.  0E:8BD0  C2                  	db $C2		;[Wait] 3
    1619.  0E:8BD1  22                  	db $22		;[Note] 35
    1620.  0E:8BD2  67                  	db $67		;[Volume] 7
    1621.  0E:8BD3  C0                  	db $C0		;[Wait] 1
    1622.  0E:8BD4  BF                  	db $BF		;[End-Of-Track]
    1623.  0E:8BD5                      .track_36:
    1624.  0E:8BD5  13                  	db $13		;[Note] 20
    1625.  0E:8BD6  7F                  	db $7F		;[Instrument] 16
    1626.  0E:8BD7  C5                  	db $C5		;[Wait] 6
    1627.  0E:8BD8  13                  	db $13		;[Note] 20
    1628.  0E:8BD9  C1                  	db $C1		;[Wait] 2
    1629.  0E:8BDA  1F                  	db $1F		;[Note] 32
    1630.  0E:8BDB  C3                  	db $C3		;[Wait] 4
    1631.  0E:8BDC  13                  	db $13		;[Note] 20
    1632.  0E:8BDD                      				;[Skip delay] 4
    1633.  0E:8BDD  1F                  	db $1F		;[Note] 32
    1634.  0E:8BDE                      				;[Skip delay] 4
    1635.  0E:8BDE  1E                  	db $1E		;[Note] 31
    1636.  0E:8BDF  7D                  	db $7D		;[Instrument] 14
    1637.  0E:8BE0  C1                  	db $C1		;[Wait] 2
    1638.  0E:8BE1  1E                  	db $1E		;[Note] 31
    1639.  0E:8BE2  80                  	db $80		;[Instrument] 17
    1640.  0E:8BE3                      				;[Skip delay] 2
    1641.  0E:8BE3  1C                  	db $1C		;[Note] 29
    1642.  0E:8BE4  7D                  	db $7D		;[Instrument] 14
    1643.  0E:8BE5  C3                  	db $C3		;[Wait] 4
    1644.  0E:8BE6  1F                  	db $1F		;[Note] 32
    1645.  0E:8BE7  7F                  	db $7F		;[Instrument] 16
    1646.  0E:8BE8                      				;[Skip delay] 4
    1647.  0E:8BE8  17                  	db $17		;[Note] 24
    1648.  0E:8BE9  C5                  	db $C5		;[Wait] 6
    1649.  0E:8BEA  17                  	db $17		;[Note] 24
    1650.  0E:8BEB  C1                  	db $C1		;[Wait] 2
    1651.  0E:8BEC  23                  	db $23		;[Note] 36
    1652.  0E:8BED  C3                  	db $C3		;[Wait] 4
    1653.  0E:8BEE  17                  	db $17		;[Note] 24
    1654.  0E:8BEF                      				;[Skip delay] 4
    1655.  0E:8BEF  23                  	db $23		;[Note] 36
    1656.  0E:8BF0                      				;[Skip delay] 4
    1657.  0E:8BF0  25                  	db $25		;[Note] 38
    1658.  0E:8BF1                      				;[Skip delay] 4
    1659.  0E:8BF1  26                  	db $26		;[Note] 39
    1660.  0E:8BF2  7D                  	db $7D		;[Instrument] 14
    1661.  0E:8BF3                      				;[Skip delay] 4
    1662.  0E:8BF3  23                  	db $23		;[Note] 36
    1663.  0E:8BF4                      				;[Skip delay] 4
    1664.  0E:8BF4  BF                  	db $BF		;[End-Of-Track]
    1665.  0E:8BF5                      .track_37:
    1666.  0E:8BF5  26                  	db $26		;[Note] 39
    1667.  0E:8BF6  CB                  	db $CB		;[Wait] 12
    1668.  0E:8BF7  28                  	db $28		;[Note] 41
    1669.  0E:8BF8  C0                  	db $C0		;[Wait] 1
    1670.  0E:8BF9  60                  	db $60		;[Note] 97
    1671.  0E:8BFA                      				;[Skip delay] 1
    1672.  0E:8BFA  2A                  	db $2A		;[Note] 43
    1673.  0E:8BFB                      				;[Skip delay] 1
    1674.  0E:8BFB  60                  	db $60		;[Note] 97
    1675.  0E:8BFC                      				;[Skip delay] 1
    1676.  0E:8BFC  28                  	db $28		;[Note] 41
    1677.  0E:8BFD  C4                  	db $C4		;[Wait] 5
    1678.  0E:8BFE  60                  	db $60		;[Note] 97
    1679.  0E:8BFF  C0                  	db $C0		;[Wait] 1
    1680.  0E:8C00  26                  	db $26		;[Note] 39
    1681.  0E:8C01  C4                  	db $C4		;[Wait] 5
    1682.  0E:8C02  60                  	db $60		;[Note] 97
    1683.  0E:8C03  C0                  	db $C0		;[Wait] 1
    1684.  0E:8C04  25                  	db $25		;[Note] 38
    1685.  0E:8C05  C3                  	db $C3		;[Wait] 4
    1686.  0E:8C06  23                  	db $23		;[Note] 36
    1687.  0E:8C07  DF                  	db $DF		;[Wait] 32
    1688.  0E:8C08  BF                  	db $BF		;[End-Of-Track]
    1689.  0E:8C09                      .track_38:
    1690.  0E:8C09  32                  	db $32		;[Note] 51
    1691.  0E:8C0A  CB                  	db $CB		;[Wait] 12
    1692.  0E:8C0B  34                  	db $34		;[Note] 53
    1693.  0E:8C0C  C0                  	db $C0		;[Wait] 1
    1694.  0E:8C0D  60                  	db $60		;[Note] 97
    1695.  0E:8C0E                      				;[Skip delay] 1
    1696.  0E:8C0E  36                  	db $36		;[Note] 55
    1697.  0E:8C0F                      				;[Skip delay] 1
    1698.  0E:8C0F  60                  	db $60		;[Note] 97
    1699.  0E:8C10                      				;[Skip delay] 1
    1700.  0E:8C10  34                  	db $34		;[Note] 53
    1701.  0E:8C11  C4                  	db $C4		;[Wait] 5
    1702.  0E:8C12  60                  	db $60		;[Note] 97
    1703.  0E:8C13  C0                  	db $C0		;[Wait] 1
    1704.  0E:8C14  32                  	db $32		;[Note] 51
    1705.  0E:8C15  C4                  	db $C4		;[Wait] 5
    1706.  0E:8C16  60                  	db $60		;[Note] 97
    1707.  0E:8C17  C0                  	db $C0		;[Wait] 1
    1708.  0E:8C18  31                  	db $31		;[Note] 50
    1709.  0E:8C19  C3                  	db $C3		;[Wait] 4
    1710.  0E:8C1A  2F                  	db $2F		;[Note] 48
    1711.  0E:8C1B  DF                  	db $DF		;[Wait] 32
    1712.  0E:8C1C  BF                  	db $BF		;[End-Of-Track]
    1713.  0E:8C1D                      .track_39:
    1714.  0E:8C1D  07                  	db $07		;[Note] 8
    1715.  0E:8C1E  C5                  	db $C5		;[Wait] 6
    1716.  0E:8C1F  07                  	db $07		;[Note] 8
    1717.  0E:8C20  C1                  	db $C1		;[Wait] 2
    1718.  0E:8C21  13                  	db $13		;[Note] 20
    1719.  0E:8C22  C3                  	db $C3		;[Wait] 4
    1720.  0E:8C23  07                  	db $07		;[Note] 8
    1721.  0E:8C24                      				;[Skip delay] 4
    1722.  0E:8C24  13                  	db $13		;[Note] 20
    1723.  0E:8C25                      				;[Skip delay] 4
    1724.  0E:8C25  12                  	db $12		;[Note] 19
    1725.  0E:8C26                      				;[Skip delay] 4
    1726.  0E:8C26  10                  	db $10		;[Note] 17
    1727.  0E:8C27                      				;[Skip delay] 4
    1728.  0E:8C27  13                  	db $13		;[Note] 20
    1729.  0E:8C28                      				;[Skip delay] 4
    1730.  0E:8C28  0B                  	db $0B		;[Note] 12
    1731.  0E:8C29  C5                  	db $C5		;[Wait] 6
    1732.  0E:8C2A  0B                  	db $0B		;[Note] 12
    1733.  0E:8C2B  C1                  	db $C1		;[Wait] 2
    1734.  0E:8C2C  17                  	db $17		;[Note] 24
    1735.  0E:8C2D  C3                  	db $C3		;[Wait] 4
    1736.  0E:8C2E  0B                  	db $0B		;[Note] 12
    1737.  0E:8C2F                      				;[Skip delay] 4
    1738.  0E:8C2F  17                  	db $17		;[Note] 24
    1739.  0E:8C30                      				;[Skip delay] 4
    1740.  0E:8C30  19                  	db $19		;[Note] 26
    1741.  0E:8C31                      				;[Skip delay] 4
    1742.  0E:8C31  1A                  	db $1A		;[Note] 27
    1743.  0E:8C32                      				;[Skip delay] 4
    1744.  0E:8C32  17                  	db $17		;[Note] 24
    1745.  0E:8C33                      				;[Skip delay] 4
    1746.  0E:8C33  BF                  	db $BF		;[End-Of-Track]
    1747.  0E:8C34                      .track_40:
    1748.  0E:8C34  C2                  	db $C2		;[Wait] 3
    1749.  0E:8C35  26                  	db $26		;[Note] 39
    1750.  0E:8C36  CB                  	db $CB		;[Wait] 12
    1751.  0E:8C37  28                  	db $28		;[Note] 41
    1752.  0E:8C38  C0                  	db $C0		;[Wait] 1
    1753.  0E:8C39  60                  	db $60		;[Note] 97
    1754.  0E:8C3A                      				;[Skip delay] 1
    1755.  0E:8C3A  2A                  	db $2A		;[Note] 43
    1756.  0E:8C3B                      				;[Skip delay] 1
    1757.  0E:8C3B  60                  	db $60		;[Note] 97
    1758.  0E:8C3C                      				;[Skip delay] 1
    1759.  0E:8C3C  28                  	db $28		;[Note] 41
    1760.  0E:8C3D  C4                  	db $C4		;[Wait] 5
    1761.  0E:8C3E  60                  	db $60		;[Note] 97
    1762.  0E:8C3F  C0                  	db $C0		;[Wait] 1
    1763.  0E:8C40  26                  	db $26		;[Note] 39
    1764.  0E:8C41  C4                  	db $C4		;[Wait] 5
    1765.  0E:8C42  60                  	db $60		;[Note] 97
    1766.  0E:8C43  C0                  	db $C0		;[Wait] 1
    1767.  0E:8C44  25                  	db $25		;[Note] 38
    1768.  0E:8C45  C3                  	db $C3		;[Wait] 4
    1769.  0E:8C46  23                  	db $23		;[Note] 36
    1770.  0E:8C47  DC                  	db $DC		;[Wait] 29
    1771.  0E:8C48  BF                  	db $BF		;[End-Of-Track]
    1772.  0E:8C49                      .track_41:
    1773.  0E:8C49  23                  	db $23		;[Note] 36
    1774.  0E:8C4A  6F                  	db $6F		;[Volume] 15
    1775.  0E:8C4B  CA                  	db $CA		;[Wait] 11
    1776.  0E:8C4C  60                  	db $60		;[Note] 97
    1777.  0E:8C4D  C0                  	db $C0		;[Wait] 1
    1778.  0E:8C4E  2D                  	db $2D		;[Note] 46
    1779.  0E:8C4F                      				;[Skip delay] 1
    1780.  0E:8C4F  60                  	db $60		;[Note] 97
    1781.  0E:8C50                      				;[Skip delay] 1
    1782.  0E:8C50  2F                  	db $2F		;[Note] 48
    1783.  0E:8C51                      				;[Skip delay] 1
    1784.  0E:8C51  60                  	db $60		;[Note] 97
    1785.  0E:8C52                      				;[Skip delay] 1
    1786.  0E:8C52  2D                  	db $2D		;[Note] 46
    1787.  0E:8C53  C4                  	db $C4		;[Wait] 5
    1788.  0E:8C54  60                  	db $60		;[Note] 97
    1789.  0E:8C55  C0                  	db $C0		;[Wait] 1
    1790.  0E:8C56  2A                  	db $2A		;[Note] 43
    1791.  0E:8C57  C4                  	db $C4		;[Wait] 5
    1792.  0E:8C58  60                  	db $60		;[Note] 97
    1793.  0E:8C59  C0                  	db $C0		;[Wait] 1
    1794.  0E:8C5A  28                  	db $28		;[Note] 41
    1795.  0E:8C5B  C3                  	db $C3		;[Wait] 4
    1796.  0E:8C5C  2A                  	db $2A		;[Note] 43
    1797.  0E:8C5D  C2                  	db $C2		;[Wait] 3
    1798.  0E:8C5E  60                  	db $60		;[Note] 97
    1799.  0E:8C5F                      				;[Skip delay] 3
    1800.  0E:8C5F  28                  	db $28		;[Note] 41
    1801.  0E:8C60  C1                  	db $C1		;[Wait] 2
    1802.  0E:8C61  2A                  	db $2A		;[Note] 43
    1803.  0E:8C62  D7                  	db $D7		;[Wait] 24
    1804.  0E:8C63  BF                  	db $BF		;[End-Of-Track]
    1805.  0E:8C64                      .track_42:
    1806.  0E:8C64  60                  	db $60		;[Note] 97
    1807.  0E:8C65  EB                  	db $EB		;[Wait] 44
    1808.  0E:8C66  23                  	db $23		;[Note] 36
    1809.  0E:8C67  6E                  	db $6E		;[Volume] 14
    1810.  0E:8C68  75                  	db $75		;[Instrument] 6
    1811.  0E:8C69  C1                  	db $C1		;[Wait] 2
    1812.  0E:8C6A  26                  	db $26		;[Note] 39
    1813.  0E:8C6B                      				;[Skip delay] 2
    1814.  0E:8C6B  2D                  	db $2D		;[Note] 46
    1815.  0E:8C6C  C3                  	db $C3		;[Wait] 4
    1816.  0E:8C6D  2A                  	db $2A		;[Note] 43
    1817.  0E:8C6E                      				;[Skip delay] 4
    1818.  0E:8C6E  26                  	db $26		;[Note] 39
    1819.  0E:8C6F                      				;[Skip delay] 4
    1820.  0E:8C6F  2A                  	db $2A		;[Note] 43
    1821.  0E:8C70  C2                  	db $C2		;[Wait] 3
    1822.  0E:8C71  C0                  	db $C0		;[Wait] 1
    1823.  0E:8C72  BF                  	db $BF		;[End-Of-Track]
    1824.  0E:8C73                      .track_43:
    1825.  0E:8C73  C2                  	db $C2		;[Wait] 3
    1826.  0E:8C74  23                  	db $23		;[Note] 36
    1827.  0E:8C75  66                  	db $66		;[Volume] 6
    1828.  0E:8C76  CA                  	db $CA		;[Wait] 11
    1829.  0E:8C77  60                  	db $60		;[Note] 97
    1830.  0E:8C78  C0                  	db $C0		;[Wait] 1
    1831.  0E:8C79  2D                  	db $2D		;[Note] 46
    1832.  0E:8C7A                      				;[Skip delay] 1
    1833.  0E:8C7A  60                  	db $60		;[Note] 97
    1834.  0E:8C7B                      				;[Skip delay] 1
    1835.  0E:8C7B  2F                  	db $2F		;[Note] 48
    1836.  0E:8C7C                      				;[Skip delay] 1
    1837.  0E:8C7C  60                  	db $60		;[Note] 97
    1838.  0E:8C7D                      				;[Skip delay] 1
    1839.  0E:8C7D  2D                  	db $2D		;[Note] 46
    1840.  0E:8C7E  C4                  	db $C4		;[Wait] 5
    1841.  0E:8C7F  60                  	db $60		;[Note] 97
    1842.  0E:8C80  C0                  	db $C0		;[Wait] 1
    1843.  0E:8C81  2A                  	db $2A		;[Note] 43
    1844.  0E:8C82  C4                  	db $C4		;[Wait] 5
    1845.  0E:8C83  60                  	db $60		;[Note] 97
    1846.  0E:8C84  C0                  	db $C0		;[Wait] 1
    1847.  0E:8C85  28                  	db $28		;[Note] 41
    1848.  0E:8C86  C3                  	db $C3		;[Wait] 4
    1849.  0E:8C87  2A                  	db $2A		;[Note] 43
    1850.  0E:8C88  C2                  	db $C2		;[Wait] 3
    1851.  0E:8C89  60                  	db $60		;[Note] 97
    1852.  0E:8C8A                      				;[Skip delay] 3
    1853.  0E:8C8A  28                  	db $28		;[Note] 41
    1854.  0E:8C8B  C1                  	db $C1		;[Wait] 2
    1855.  0E:8C8C  2A                  	db $2A		;[Note] 43
    1856.  0E:8C8D  D4                  	db $D4		;[Wait] 21
    1857.  0E:8C8E  BF                  	db $BF		;[End-Of-Track]
    1858.  0E:8C8F                      .track_44:
    1859.  0E:8C8F  13                  	db $13		;[Note] 20
    1860.  0E:8C90  7F                  	db $7F		;[Instrument] 16
    1861.  0E:8C91  C5                  	db $C5		;[Wait] 6
    1862.  0E:8C92  13                  	db $13		;[Note] 20
    1863.  0E:8C93  C1                  	db $C1		;[Wait] 2
    1864.  0E:8C94  1F                  	db $1F		;[Note] 32
    1865.  0E:8C95  C3                  	db $C3		;[Wait] 4
    1866.  0E:8C96  13                  	db $13		;[Note] 20
    1867.  0E:8C97                      				;[Skip delay] 4
    1868.  0E:8C97  1F                  	db $1F		;[Note] 32
    1869.  0E:8C98                      				;[Skip delay] 4
    1870.  0E:8C98  1E                  	db $1E		;[Note] 31
    1871.  0E:8C99  7D                  	db $7D		;[Instrument] 14
    1872.  0E:8C9A  C1                  	db $C1		;[Wait] 2
    1873.  0E:8C9B  1E                  	db $1E		;[Note] 31
    1874.  0E:8C9C  80                  	db $80		;[Instrument] 17
    1875.  0E:8C9D                      				;[Skip delay] 2
    1876.  0E:8C9D  1C                  	db $1C		;[Note] 29
    1877.  0E:8C9E  7D                  	db $7D		;[Instrument] 14
    1878.  0E:8C9F  C3                  	db $C3		;[Wait] 4
    1879.  0E:8CA0  1F                  	db $1F		;[Note] 32
    1880.  0E:8CA1  7F                  	db $7F		;[Instrument] 16
    1881.  0E:8CA2                      				;[Skip delay] 4
    1882.  0E:8CA2  15                  	db $15		;[Note] 22
    1883.  0E:8CA3  C5                  	db $C5		;[Wait] 6
    1884.  0E:8CA4  15                  	db $15		;[Note] 22
    1885.  0E:8CA5  C1                  	db $C1		;[Wait] 2
    1886.  0E:8CA6  21                  	db $21		;[Note] 34
    1887.  0E:8CA7  C3                  	db $C3		;[Wait] 4
    1888.  0E:8CA8  15                  	db $15		;[Note] 22
    1889.  0E:8CA9                      				;[Skip delay] 4
    1890.  0E:8CA9  21                  	db $21		;[Note] 34
    1891.  0E:8CAA                      				;[Skip delay] 4
    1892.  0E:8CAA  23                  	db $23		;[Note] 36
    1893.  0E:8CAB                      				;[Skip delay] 4
    1894.  0E:8CAB  25                  	db $25		;[Note] 38
    1895.  0E:8CAC  7D                  	db $7D		;[Instrument] 14
    1896.  0E:8CAD                      				;[Skip delay] 4
    1897.  0E:8CAD  21                  	db $21		;[Note] 34
    1898.  0E:8CAE                      				;[Skip delay] 4
    1899.  0E:8CAE  BF                  	db $BF		;[End-Of-Track]
    1900.  0E:8CAF                      .track_45:
    1901.  0E:8CAF  28                  	db $28		;[Note] 41
    1902.  0E:8CB0  CB                  	db $CB		;[Wait] 12
    1903.  0E:8CB1  2A                  	db $2A		;[Note] 43
    1904.  0E:8CB2  C0                  	db $C0		;[Wait] 1
    1905.  0E:8CB3  60                  	db $60		;[Note] 97
    1906.  0E:8CB4                      				;[Skip delay] 1
    1907.  0E:8CB4  2B                  	db $2B		;[Note] 44
    1908.  0E:8CB5                      				;[Skip delay] 1
    1909.  0E:8CB5  60                  	db $60		;[Note] 97
    1910.  0E:8CB6                      				;[Skip delay] 1
    1911.  0E:8CB6  2A                  	db $2A		;[Note] 43
    1912.  0E:8CB7  C4                  	db $C4		;[Wait] 5
    1913.  0E:8CB8  60                  	db $60		;[Note] 97
    1914.  0E:8CB9  C0                  	db $C0		;[Wait] 1
    1915.  0E:8CBA  28                  	db $28		;[Note] 41
    1916.  0E:8CBB  C5                  	db $C5		;[Wait] 6
    1917.  0E:8CBC  25                  	db $25		;[Note] 38
    1918.  0E:8CBD  C3                  	db $C3		;[Wait] 4
    1919.  0E:8CBE  26                  	db $26		;[Note] 39
    1920.  0E:8CBF  C7                  	db $C7		;[Wait] 8
    1921.  0E:8CC0  28                  	db $28		;[Note] 41
    1922.  0E:8CC1                      				;[Skip delay] 8
    1923.  0E:8CC1  2A                  	db $2A		;[Note] 43
    1924.  0E:8CC2                      				;[Skip delay] 8
    1925.  0E:8CC2  32                  	db $32		;[Note] 51
    1926.  0E:8CC3  6B                  	db $6B		;[Volume] 11
    1927.  0E:8CC4  84                  	db $84		;[Instrument] 21
    1928.  0E:8CC5                      				;[Skip delay] 8
    1929.  0E:8CC5  BF                  	db $BF		;[End-Of-Track]
    1930.  0E:8CC6                      .track_46:
    1931.  0E:8CC6  60                  	db $60		;[Note] 97
    1932.  0E:8CC7  DF                  	db $DF		;[Wait] 32
    1933.  0E:8CC8  23                  	db $23		;[Note] 36
    1934.  0E:8CC9  6F                  	db $6F		;[Volume] 15
    1935.  0E:8CCA  74                  	db $74		;[Instrument] 5
    1936.  0E:8CCB  C7                  	db $C7		;[Wait] 8
    1937.  0E:8CCC  25                  	db $25		;[Note] 38
    1938.  0E:8CCD                      				;[Skip delay] 8
    1939.  0E:8CCD  26                  	db $26		;[Note] 39
    1940.  0E:8CCE  CE                  	db $CE		;[Wait] 15
    1941.  0E:8CCF  C0                  	db $C0		;[Wait] 1
    1942.  0E:8CD0  BF                  	db $BF		;[End-Of-Track]
    1943.  0E:8CD1                      .track_47:
    1944.  0E:8CD1  28                  	db $28		;[Note] 41
    1945.  0E:8CD2  CB                  	db $CB		;[Wait] 12
    1946.  0E:8CD3  2A                  	db $2A		;[Note] 43
    1947.  0E:8CD4  C0                  	db $C0		;[Wait] 1
    1948.  0E:8CD5  60                  	db $60		;[Note] 97
    1949.  0E:8CD6                      				;[Skip delay] 1
    1950.  0E:8CD6  2B                  	db $2B		;[Note] 44
    1951.  0E:8CD7                      				;[Skip delay] 1
    1952.  0E:8CD7  60                  	db $60		;[Note] 97
    1953.  0E:8CD8                      				;[Skip delay] 1
    1954.  0E:8CD8  2A                  	db $2A		;[Note] 43
    1955.  0E:8CD9  C4                  	db $C4		;[Wait] 5
    1956.  0E:8CDA  60                  	db $60		;[Note] 97
    1957.  0E:8CDB  C0                  	db $C0		;[Wait] 1
    1958.  0E:8CDC  28                  	db $28		;[Note] 41
    1959.  0E:8CDD  C5                  	db $C5		;[Wait] 6
    1960.  0E:8CDE  25                  	db $25		;[Note] 38
    1961.  0E:8CDF  C3                  	db $C3		;[Wait] 4
    1962.  0E:8CE0  26                  	db $26		;[Note] 39
    1963.  0E:8CE1  C7                  	db $C7		;[Wait] 8
    1964.  0E:8CE2  28                  	db $28		;[Note] 41
    1965.  0E:8CE3                      				;[Skip delay] 8
    1966.  0E:8CE3  2A                  	db $2A		;[Note] 43
    1967.  0E:8CE4  CF                  	db $CF		;[Wait] 16
    1968.  0E:8CE5  BF                  	db $BF		;[End-Of-Track]
    1969.  0E:8CE6                      .track_48:
    1970.  0E:8CE6  C2                  	db $C2		;[Wait] 3
    1971.  0E:8CE7  28                  	db $28		;[Note] 41
    1972.  0E:8CE8  CB                  	db $CB		;[Wait] 12
    1973.  0E:8CE9  2A                  	db $2A		;[Note] 43
    1974.  0E:8CEA  C0                  	db $C0		;[Wait] 1
    1975.  0E:8CEB  60                  	db $60		;[Note] 97
    1976.  0E:8CEC                      				;[Skip delay] 1
    1977.  0E:8CEC  2B                  	db $2B		;[Note] 44
    1978.  0E:8CED                      				;[Skip delay] 1
    1979.  0E:8CED  60                  	db $60		;[Note] 97
    1980.  0E:8CEE                      				;[Skip delay] 1
    1981.  0E:8CEE  2A                  	db $2A		;[Note] 43
    1982.  0E:8CEF  C4                  	db $C4		;[Wait] 5
    1983.  0E:8CF0  60                  	db $60		;[Note] 97
    1984.  0E:8CF1  C0                  	db $C0		;[Wait] 1
    1985.  0E:8CF2  28                  	db $28		;[Note] 41
    1986.  0E:8CF3  C5                  	db $C5		;[Wait] 6
    1987.  0E:8CF4  25                  	db $25		;[Note] 38
    1988.  0E:8CF5  C3                  	db $C3		;[Wait] 4
    1989.  0E:8CF6  26                  	db $26		;[Note] 39
    1990.  0E:8CF7  C7                  	db $C7		;[Wait] 8
    1991.  0E:8CF8  28                  	db $28		;[Note] 41
    1992.  0E:8CF9                      				;[Skip delay] 8
    1993.  0E:8CF9  2A                  	db $2A		;[Note] 43
    1994.  0E:8CFA  CC                  	db $CC		;[Wait] 13
    1995.  0E:8CFB  BF                  	db $BF		;[End-Of-Track]
    1996.  0E:8CFC                      .track_49:
    1997.  0E:8CFC  23                  	db $23		;[Note] 36
    1998.  0E:8CFD  6F                  	db $6F		;[Volume] 15
    1999.  0E:8CFE  70                  	db $70		;[Instrument] 1
    2000.  0E:8CFF  CB                  	db $CB		;[Wait] 12
    2001.  0E:8D00  2D                  	db $2D		;[Note] 46
    2002.  0E:8D01  C0                  	db $C0		;[Wait] 1
    2003.  0E:8D02  60                  	db $60		;[Note] 97
    2004.  0E:8D03                      				;[Skip delay] 1
    2005.  0E:8D03  2F                  	db $2F		;[Note] 48
    2006.  0E:8D04                      				;[Skip delay] 1
    2007.  0E:8D04  60                  	db $60		;[Note] 97
    2008.  0E:8D05                      				;[Skip delay] 1
    2009.  0E:8D05  2D                  	db $2D		;[Note] 46
    2010.  0E:8D06  C4                  	db $C4		;[Wait] 5
    2011.  0E:8D07  60                  	db $60		;[Note] 97
    2012.  0E:8D08  C0                  	db $C0		;[Wait] 1
    2013.  0E:8D09  2F                  	db $2F		;[Note] 48
    2014.  0E:8D0A  C4                  	db $C4		;[Wait] 5
    2015.  0E:8D0B  60                  	db $60		;[Note] 97
    2016.  0E:8D0C  C0                  	db $C0		;[Wait] 1
    2017.  0E:8D0D  31                  	db $31		;[Note] 50
    2018.  0E:8D0E  C3                  	db $C3		;[Wait] 4
    2019.  0E:8D0F  2F                  	db $2F		;[Note] 48
    2020.  0E:8D10  C2                  	db $C2		;[Wait] 3
    2021.  0E:8D11  60                  	db $60		;[Note] 97
    2022.  0E:8D12                      				;[Skip delay] 3
    2023.  0E:8D12  2A                  	db $2A		;[Note] 43
    2024.  0E:8D13  C1                  	db $C1		;[Wait] 2
    2025.  0E:8D14  2A                  	db $2A		;[Note] 43
    2026.  0E:8D15  D7                  	db $D7		;[Wait] 24
    2027.  0E:8D16  BF                  	db $BF		;[End-Of-Track]
    2028.  0E:8D17                      .track_50:
    2029.  0E:8D17  60                  	db $60		;[Note] 97
    2030.  0E:8D18  EF                  	db $EF		;[Wait] 48
    2031.  0E:8D19  23                  	db $23		;[Note] 36
    2032.  0E:8D1A  6E                  	db $6E		;[Volume] 14
    2033.  0E:8D1B  75                  	db $75		;[Instrument] 6
    2034.  0E:8D1C  C1                  	db $C1		;[Wait] 2
    2035.  0E:8D1D  26                  	db $26		;[Note] 39
    2036.  0E:8D1E                      				;[Skip delay] 2
    2037.  0E:8D1E  28                  	db $28		;[Note] 41
    2038.  0E:8D1F                      				;[Skip delay] 2
    2039.  0E:8D1F  2A                  	db $2A		;[Note] 43
    2040.  0E:8D20                      				;[Skip delay] 2
    2041.  0E:8D20  2F                  	db $2F		;[Note] 48
    2042.  0E:8D21                      				;[Skip delay] 2
    2043.  0E:8D21  2D                  	db $2D		;[Note] 46
    2044.  0E:8D22                      				;[Skip delay] 2
    2045.  0E:8D22  2B                  	db $2B		;[Note] 44
    2046.  0E:8D23                      				;[Skip delay] 2
    2047.  0E:8D23  2A                  	db $2A		;[Note] 43
    2048.  0E:8D24                      				;[Skip delay] 2
    2049.  0E:8D24  BF                  	db $BF		;[End-Of-Track]
    2050.  0E:8D25                      .track_51:
    2051.  0E:8D25  2F                  	db $2F		;[Note] 48
    2052.  0E:8D26  6D                  	db $6D		;[Volume] 13
    2053.  0E:8D27  73                  	db $73		;[Instrument] 4
    2054.  0E:8D28  D5                  	db $D5		;[Wait] 22
    2055.  0E:8D29  3B                  	db $3B		;[Note] 60
    2056.  0E:8D2A  C5                  	db $C5		;[Wait] 6
    2057.  0E:8D2B  36                  	db $36		;[Note] 55
    2058.  0E:8D2C  C3                  	db $C3		;[Wait] 4
    2059.  0E:8D2D  39                  	db $39		;[Note] 58
    2060.  0E:8D2E  CF                  	db $CF		;[Wait] 16
    2061.  0E:8D2F  3D                  	db $3D		;[Note] 62
    2062.  0E:8D30                      				;[Skip delay] 16
    2063.  0E:8D30  BF                  	db $BF		;[End-Of-Track]
    2064.  0E:8D31                      .track_52:
    2065.  0E:8D31  23                  	db $23		;[Note] 36
    2066.  0E:8D32  6F                  	db $6F		;[Volume] 15
    2067.  0E:8D33  CB                  	db $CB		;[Wait] 12
    2068.  0E:8D34  2D                  	db $2D		;[Note] 46
    2069.  0E:8D35  C0                  	db $C0		;[Wait] 1
    2070.  0E:8D36  60                  	db $60		;[Note] 97
    2071.  0E:8D37                      				;[Skip delay] 1
    2072.  0E:8D37  2F                  	db $2F		;[Note] 48
    2073.  0E:8D38                      				;[Skip delay] 1
    2074.  0E:8D38  60                  	db $60		;[Note] 97
    2075.  0E:8D39                      				;[Skip delay] 1
    2076.  0E:8D39  2D                  	db $2D		;[Note] 46
    2077.  0E:8D3A  C4                  	db $C4		;[Wait] 5
    2078.  0E:8D3B  60                  	db $60		;[Note] 97
    2079.  0E:8D3C  C0                  	db $C0		;[Wait] 1
    2080.  0E:8D3D  2F                  	db $2F		;[Note] 48
    2081.  0E:8D3E  C4                  	db $C4		;[Wait] 5
    2082.  0E:8D3F  60                  	db $60		;[Note] 97
    2083.  0E:8D40  C0                  	db $C0		;[Wait] 1
    2084.  0E:8D41  31                  	db $31		;[Note] 50
    2085.  0E:8D42  C3                  	db $C3		;[Wait] 4
    2086.  0E:8D43  2F                  	db $2F		;[Note] 48
    2087.  0E:8D44  C2                  	db $C2		;[Wait] 3
    2088.  0E:8D45  60                  	db $60		;[Note] 97
    2089.  0E:8D46                      				;[Skip delay] 3
    2090.  0E:8D46  2A                  	db $2A		;[Note] 43
    2091.  0E:8D47  C1                  	db $C1		;[Wait] 2
    2092.  0E:8D48  2A                  	db $2A		;[Note] 43
    2093.  0E:8D49  D7                  	db $D7		;[Wait] 24
    2094.  0E:8D4A  BF                  	db $BF		;[End-Of-Track]
    2095.  0E:8D4B                      .track_53:
    2096.  0E:8D4B  C2                  	db $C2		;[Wait] 3
    2097.  0E:8D4C  23                  	db $23		;[Note] 36
    2098.  0E:8D4D  66                  	db $66		;[Volume] 6
    2099.  0E:8D4E  CB                  	db $CB		;[Wait] 12
    2100.  0E:8D4F  2D                  	db $2D		;[Note] 46
    2101.  0E:8D50  C0                  	db $C0		;[Wait] 1
    2102.  0E:8D51  60                  	db $60		;[Note] 97
    2103.  0E:8D52                      				;[Skip delay] 1
    2104.  0E:8D52  2F                  	db $2F		;[Note] 48
    2105.  0E:8D53                      				;[Skip delay] 1
    2106.  0E:8D53  60                  	db $60		;[Note] 97
    2107.  0E:8D54                      				;[Skip delay] 1
    2108.  0E:8D54  2D                  	db $2D		;[Note] 46
    2109.  0E:8D55  C4                  	db $C4		;[Wait] 5
    2110.  0E:8D56  60                  	db $60		;[Note] 97
    2111.  0E:8D57  C0                  	db $C0		;[Wait] 1
    2112.  0E:8D58  2F                  	db $2F		;[Note] 48
    2113.  0E:8D59  C4                  	db $C4		;[Wait] 5
    2114.  0E:8D5A  60                  	db $60		;[Note] 97
    2115.  0E:8D5B  C0                  	db $C0		;[Wait] 1
    2116.  0E:8D5C  31                  	db $31		;[Note] 50
    2117.  0E:8D5D  C3                  	db $C3		;[Wait] 4
    2118.  0E:8D5E  2F                  	db $2F		;[Note] 48
    2119.  0E:8D5F  C2                  	db $C2		;[Wait] 3
    2120.  0E:8D60  60                  	db $60		;[Note] 97
    2121.  0E:8D61                      				;[Skip delay] 3
    2122.  0E:8D61  2A                  	db $2A		;[Note] 43
    2123.  0E:8D62  C1                  	db $C1		;[Wait] 2
    2124.  0E:8D63  2A                  	db $2A		;[Note] 43
    2125.  0E:8D64  D4                  	db $D4		;[Wait] 21
    2126.  0E:8D65  BF                  	db $BF		;[End-Of-Track]
    2127.  0E:8D66                      .track_54:
    2128.  0E:8D66  2A                  	db $2A		;[Note] 43
    2129.  0E:8D67  6F                  	db $6F		;[Volume] 15
    2130.  0E:8D68  82                  	db $82		;[Instrument] 19
    2131.  0E:8D69  C2                  	db $C2		;[Wait] 3
    2132.  0E:8D6A  2A                  	db $2A		;[Note] 43
    2133.  0E:8D6B  67                  	db $67		;[Volume] 7
    2134.  0E:8D6C                      				;[Skip delay] 3
    2135.  0E:8D6C  22                  	db $22		;[Note] 35
    2136.  0E:8D6D  6F                  	db $6F		;[Volume] 15
    2137.  0E:8D6E                      				;[Skip delay] 3
    2138.  0E:8D6E  22                  	db $22		;[Note] 35
    2139.  0E:8D6F  67                  	db $67		;[Volume] 7
    2140.  0E:8D70                      				;[Skip delay] 3
    2141.  0E:8D70  39                  	db $39		;[Note] 58
    2142.  0E:8D71  6F                  	db $6F		;[Volume] 15
    2143.  0E:8D72  84                  	db $84		;[Instrument] 21
    2144.  0E:8D73  C3                  	db $C3		;[Wait] 4
    2145.  0E:8D74  26                  	db $26		;[Note] 39
    2146.  0E:8D75  82                  	db $82		;[Instrument] 19
    2147.  0E:8D76  C2                  	db $C2		;[Wait] 3
    2148.  0E:8D77  26                  	db $26		;[Note] 39
    2149.  0E:8D78  67                  	db $67		;[Volume] 7
    2150.  0E:8D79                      				;[Skip delay] 3
    2151.  0E:8D79  1E                  	db $1E		;[Note] 31
    2152.  0E:8D7A  6F                  	db $6F		;[Volume] 15
    2153.  0E:8D7B                      				;[Skip delay] 3
    2154.  0E:8D7B  1E                  	db $1E		;[Note] 31
    2155.  0E:8D7C  67                  	db $67		;[Volume] 7
    2156.  0E:8D7D                      				;[Skip delay] 3
    2157.  0E:8D7D  39                  	db $39		;[Note] 58
    2158.  0E:8D7E  6F                  	db $6F		;[Volume] 15
    2159.  0E:8D7F  84                  	db $84		;[Instrument] 21
    2160.  0E:8D80  C3                  	db $C3		;[Wait] 4
    2161.  0E:8D81  23                  	db $23		;[Note] 36
    2162.  0E:8D82  83                  	db $83		;[Instrument] 20
    2163.  0E:8D83                      				;[Skip delay] 4
    2164.  0E:8D83  23                  	db $23		;[Note] 36
    2165.  0E:8D84                      				;[Skip delay] 4
    2166.  0E:8D84  23                  	db $23		;[Note] 36
    2167.  0E:8D85  81                  	db $81		;[Instrument] 18
    2168.  0E:8D86  C2                  	db $C2		;[Wait] 3
    2169.  0E:8D87  23                  	db $23		;[Note] 36
    2170.  0E:8D88  67                  	db $67		;[Volume] 7
    2171.  0E:8D89  C0                  	db $C0		;[Wait] 1
    2172.  0E:8D8A  23                  	db $23		;[Note] 36
    2173.  0E:8D8B  6F                  	db $6F		;[Volume] 15
    2174.  0E:8D8C  83                  	db $83		;[Instrument] 20
    2175.  0E:8D8D  C1                  	db $C1		;[Wait] 2
    2176.  0E:8D8E  23                  	db $23		;[Note] 36
    2177.  0E:8D8F                      				;[Skip delay] 2
    2178.  0E:8D8F  2A                  	db $2A		;[Note] 43
    2179.  0E:8D90  82                  	db $82		;[Instrument] 19
    2180.  0E:8D91                      				;[Skip delay] 2
    2181.  0E:8D91  2A                  	db $2A		;[Note] 43
    2182.  0E:8D92  C2                  	db $C2		;[Wait] 3
    2183.  0E:8D93  2A                  	db $2A		;[Note] 43
    2184.  0E:8D94  67                  	db $67		;[Volume] 7
    2185.  0E:8D95  C0                  	db $C0		;[Wait] 1
    2186.  0E:8D96  2A                  	db $2A		;[Note] 43
    2187.  0E:8D97  6F                  	db $6F		;[Volume] 15
    2188.  0E:8D98  C2                  	db $C2		;[Wait] 3
    2189.  0E:8D99  2A                  	db $2A		;[Note] 43
    2190.  0E:8D9A  67                  	db $67		;[Volume] 7
    2191.  0E:8D9B  C0                  	db $C0		;[Wait] 1
    2192.  0E:8D9C  2A                  	db $2A		;[Note] 43
    2193.  0E:8D9D  6F                  	db $6F		;[Volume] 15
    2194.  0E:8D9E  C1                  	db $C1		;[Wait] 2
    2195.  0E:8D9F  26                  	db $26		;[Note] 39
    2196.  0E:8DA0                      				;[Skip delay] 2
    2197.  0E:8DA0  22                  	db $22		;[Note] 35
    2198.  0E:8DA1                      				;[Skip delay] 2
    2199.  0E:8DA1  BF                  	db $BF		;[End-Of-Track]
    2200.  0E:8DA2                      .track_55:
    2201.  0E:8DA2  13                  	db $13		;[Note] 20
    2202.  0E:8DA3  7D                  	db $7D		;[Instrument] 14
    2203.  0E:8DA4  C5                  	db $C5		;[Wait] 6
    2204.  0E:8DA5  13                  	db $13		;[Note] 20
    2205.  0E:8DA6  C1                  	db $C1		;[Wait] 2
    2206.  0E:8DA7  1F                  	db $1F		;[Note] 32
    2207.  0E:8DA8  C3                  	db $C3		;[Wait] 4
    2208.  0E:8DA9  13                  	db $13		;[Note] 20
    2209.  0E:8DAA                      				;[Skip delay] 4
    2210.  0E:8DAA  15                  	db $15		;[Note] 22
    2211.  0E:8DAB  C5                  	db $C5		;[Wait] 6
    2212.  0E:8DAC  15                  	db $15		;[Note] 22
    2213.  0E:8DAD  C1                  	db $C1		;[Wait] 2
    2214.  0E:8DAE  21                  	db $21		;[Note] 34
    2215.  0E:8DAF  C3                  	db $C3		;[Wait] 4
    2216.  0E:8DB0  15                  	db $15		;[Note] 22
    2217.  0E:8DB1                      				;[Skip delay] 4
    2218.  0E:8DB1  17                  	db $17		;[Note] 24
    2219.  0E:8DB2  7F                  	db $7F		;[Instrument] 16
    2220.  0E:8DB3  C5                  	db $C5		;[Wait] 6
    2221.  0E:8DB4  17                  	db $17		;[Note] 24
    2222.  0E:8DB5  C1                  	db $C1		;[Wait] 2
    2223.  0E:8DB6  23                  	db $23		;[Note] 36
    2224.  0E:8DB7  C3                  	db $C3		;[Wait] 4
    2225.  0E:8DB8  17                  	db $17		;[Note] 24
    2226.  0E:8DB9                      				;[Skip delay] 4
    2227.  0E:8DB9  23                  	db $23		;[Note] 36
    2228.  0E:8DBA                      				;[Skip delay] 4
    2229.  0E:8DBA  1E                  	db $1E		;[Note] 31
    2230.  0E:8DBB                      				;[Skip delay] 4
    2231.  0E:8DBB  21                  	db $21		;[Note] 34
    2232.  0E:8DBC                      				;[Skip delay] 4
    2233.  0E:8DBC  1E                  	db $1E		;[Note] 31
    2234.  0E:8DBD                      				;[Skip delay] 4
    2235.  0E:8DBD  BF                  	db $BF		;[End-Of-Track]
    2236.  0E:8DBE                      .track_56:
    2237.  0E:8DBE  2B                  	db $2B		;[Note] 44
    2238.  0E:8DBF  C5                  	db $C5		;[Wait] 6
    2239.  0E:8DC0  2F                  	db $2F		;[Note] 48
    2240.  0E:8DC1                      				;[Skip delay] 6
    2241.  0E:8DC1  2B                  	db $2B		;[Note] 44
    2242.  0E:8DC2  C3                  	db $C3		;[Wait] 4
    2243.  0E:8DC3  2D                  	db $2D		;[Note] 46
    2244.  0E:8DC4  C5                  	db $C5		;[Wait] 6
    2245.  0E:8DC5  2F                  	db $2F		;[Note] 48
    2246.  0E:8DC6                      				;[Skip delay] 6
    2247.  0E:8DC6  31                  	db $31		;[Note] 50
    2248.  0E:8DC7  C3                  	db $C3		;[Wait] 4
    2249.  0E:8DC8  2F                  	db $2F		;[Note] 48
    2250.  0E:8DC9  DF                  	db $DF		;[Wait] 32
    2251.  0E:8DCA  BF                  	db $BF		;[End-Of-Track]
    2252.  0E:8DCB                      .track_57:
    2253.  0E:8DCB  23                  	db $23		;[Note] 36
    2254.  0E:8DCC  6F                  	db $6F		;[Volume] 15
    2255.  0E:8DCD  74                  	db $74		;[Instrument] 5
    2256.  0E:8DCE  C5                  	db $C5		;[Wait] 6
    2257.  0E:8DCF  2A                  	db $2A		;[Note] 43
    2258.  0E:8DD0                      				;[Skip delay] 6
    2259.  0E:8DD0  28                  	db $28		;[Note] 41
    2260.  0E:8DD1  C3                  	db $C3		;[Wait] 4
    2261.  0E:8DD2  2A                  	db $2A		;[Note] 43
    2262.  0E:8DD3  C5                  	db $C5		;[Wait] 6
    2263.  0E:8DD4  2A                  	db $2A		;[Note] 43
    2264.  0E:8DD5                      				;[Skip delay] 6
    2265.  0E:8DD5  2D                  	db $2D		;[Note] 46
    2266.  0E:8DD6  C3                  	db $C3		;[Wait] 4
    2267.  0E:8DD7  2A                  	db $2A		;[Note] 43
    2268.  0E:8DD8  DE                  	db $DE		;[Wait] 31
    2269.  0E:8DD9  C0                  	db $C0		;[Wait] 1
    2270.  0E:8DDA  BF                  	db $BF		;[End-Of-Track]
    2271.  0E:8DDB                      .track_58:
    2272.  0E:8DDB  37                  	db $37		;[Note] 56
    2273.  0E:8DDC  C5                  	db $C5		;[Wait] 6
    2274.  0E:8DDD  3B                  	db $3B		;[Note] 60
    2275.  0E:8DDE                      				;[Skip delay] 6
    2276.  0E:8DDE  37                  	db $37		;[Note] 56
    2277.  0E:8DDF  C3                  	db $C3		;[Wait] 4
    2278.  0E:8DE0  39                  	db $39		;[Note] 58
    2279.  0E:8DE1  C5                  	db $C5		;[Wait] 6
    2280.  0E:8DE2  3B                  	db $3B		;[Note] 60
    2281.  0E:8DE3                      				;[Skip delay] 6
    2282.  0E:8DE3  3D                  	db $3D		;[Note] 62
    2283.  0E:8DE4  C3                  	db $C3		;[Wait] 4
    2284.  0E:8DE5  3B                  	db $3B		;[Note] 60
    2285.  0E:8DE6  DF                  	db $DF		;[Wait] 32
    2286.  0E:8DE7  BF                  	db $BF		;[End-Of-Track]
    2287.  0E:8DE8                      .track_59:
    2288.  0E:8DE8  07                  	db $07		;[Note] 8
    2289.  0E:8DE9  C5                  	db $C5		;[Wait] 6
    2290.  0E:8DEA  07                  	db $07		;[Note] 8
    2291.  0E:8DEB  C1                  	db $C1		;[Wait] 2
    2292.  0E:8DEC  13                  	db $13		;[Note] 20
    2293.  0E:8DED  C3                  	db $C3		;[Wait] 4
    2294.  0E:8DEE  07                  	db $07		;[Note] 8
    2295.  0E:8DEF                      				;[Skip delay] 4
    2296.  0E:8DEF  09                  	db $09		;[Note] 10
    2297.  0E:8DF0  C5                  	db $C5		;[Wait] 6
    2298.  0E:8DF1  09                  	db $09		;[Note] 10
    2299.  0E:8DF2  C1                  	db $C1		;[Wait] 2
    2300.  0E:8DF3  15                  	db $15		;[Note] 22
    2301.  0E:8DF4  C3                  	db $C3		;[Wait] 4
    2302.  0E:8DF5  09                  	db $09		;[Note] 10
    2303.  0E:8DF6                      				;[Skip delay] 4
    2304.  0E:8DF6  0B                  	db $0B		;[Note] 12
    2305.  0E:8DF7  C5                  	db $C5		;[Wait] 6
    2306.  0E:8DF8  0B                  	db $0B		;[Note] 12
    2307.  0E:8DF9  C1                  	db $C1		;[Wait] 2
    2308.  0E:8DFA  17                  	db $17		;[Note] 24
    2309.  0E:8DFB  C3                  	db $C3		;[Wait] 4
    2310.  0E:8DFC  0B                  	db $0B		;[Note] 12
    2311.  0E:8DFD                      				;[Skip delay] 4
    2312.  0E:8DFD  17                  	db $17		;[Note] 24
    2313.  0E:8DFE                      				;[Skip delay] 4
    2314.  0E:8DFE  12                  	db $12		;[Note] 19
    2315.  0E:8DFF                      				;[Skip delay] 4
    2316.  0E:8DFF  15                  	db $15		;[Note] 22
    2317.  0E:8E00                      				;[Skip delay] 4
    2318.  0E:8E00  12                  	db $12		;[Note] 19
    2319.  0E:8E01                      				;[Skip delay] 4
    2320.  0E:8E01  BF                  	db $BF		;[End-Of-Track]
    2321.  0E:8E02                      .track_60:
    2322.  0E:8E02  C2                  	db $C2		;[Wait] 3
    2323.  0E:8E03  2B                  	db $2B		;[Note] 44
    2324.  0E:8E04  C5                  	db $C5		;[Wait] 6
    2325.  0E:8E05  2F                  	db $2F		;[Note] 48
    2326.  0E:8E06                      				;[Skip delay] 6
    2327.  0E:8E06  2B                  	db $2B		;[Note] 44
    2328.  0E:8E07  C3                  	db $C3		;[Wait] 4
    2329.  0E:8E08  2D                  	db $2D		;[Note] 46
    2330.  0E:8E09  C5                  	db $C5		;[Wait] 6
    2331.  0E:8E0A  2F                  	db $2F		;[Note] 48
    2332.  0E:8E0B                      				;[Skip delay] 6
    2333.  0E:8E0B  31                  	db $31		;[Note] 50
    2334.  0E:8E0C  C3                  	db $C3		;[Wait] 4
    2335.  0E:8E0D  2F                  	db $2F		;[Note] 48
    2336.  0E:8E0E  DC                  	db $DC		;[Wait] 29
    2337.  0E:8E0F  BF                  	db $BF		;[End-Of-Track]
    2338.  0E:8E10                      .track_61:
    2339.  0E:8E10  23                  	db $23		;[Note] 36
    2340.  0E:8E11  6F                  	db $6F		;[Volume] 15
    2341.  0E:8E12  83                  	db $83		;[Instrument] 20
    2342.  0E:8E13  C1                  	db $C1		;[Wait] 2
    2343.  0E:8E14  23                  	db $23		;[Note] 36
    2344.  0E:8E15  C3                  	db $C3		;[Wait] 4
    2345.  0E:8E16  23                  	db $23		;[Note] 36
    2346.  0E:8E17  81                  	db $81		;[Instrument] 18
    2347.  0E:8E18  C2                  	db $C2		;[Wait] 3
    2348.  0E:8E19  23                  	db $23		;[Note] 36
    2349.  0E:8E1A  67                  	db $67		;[Volume] 7
    2350.  0E:8E1B  C0                  	db $C0		;[Wait] 1
    2351.  0E:8E1C  23                  	db $23		;[Note] 36
    2352.  0E:8E1D  6F                  	db $6F		;[Volume] 15
    2353.  0E:8E1E  83                  	db $83		;[Instrument] 20
    2354.  0E:8E1F  C1                  	db $C1		;[Wait] 2
    2355.  0E:8E20  23                  	db $23		;[Note] 36
    2356.  0E:8E21  81                  	db $81		;[Instrument] 18
    2357.  0E:8E22  C2                  	db $C2		;[Wait] 3
    2358.  0E:8E23  23                  	db $23		;[Note] 36
    2359.  0E:8E24  67                  	db $67		;[Volume] 7
    2360.  0E:8E25                      				;[Skip delay] 3
    2361.  0E:8E25  23                  	db $23		;[Note] 36
    2362.  0E:8E26  6F                  	db $6F		;[Volume] 15
    2363.  0E:8E27  83                  	db $83		;[Instrument] 20
    2364.  0E:8E28  C5                  	db $C5		;[Wait] 6
    2365.  0E:8E29  23                  	db $23		;[Note] 36
    2366.  0E:8E2A  81                  	db $81		;[Instrument] 18
    2367.  0E:8E2B  C2                  	db $C2		;[Wait] 3
    2368.  0E:8E2C  23                  	db $23		;[Note] 36
    2369.  0E:8E2D  67                  	db $67		;[Volume] 7
    2370.  0E:8E2E  CA                  	db $CA		;[Wait] 11
    2371.  0E:8E2F  23                  	db $23		;[Note] 36
    2372.  0E:8E30  6F                  	db $6F		;[Volume] 15
    2373.  0E:8E31  C2                  	db $C2		;[Wait] 3
    2374.  0E:8E32  23                  	db $23		;[Note] 36
    2375.  0E:8E33  67                  	db $67		;[Volume] 7
    2376.  0E:8E34  CC                  	db $CC		;[Wait] 13
    2377.  0E:8E35  23                  	db $23		;[Note] 36
    2378.  0E:8E36  6F                  	db $6F		;[Volume] 15
    2379.  0E:8E37  C2                  	db $C2		;[Wait] 3
    2380.  0E:8E38  23                  	db $23		;[Note] 36
    2381.  0E:8E39  67                  	db $67		;[Volume] 7
    2382.  0E:8E3A  C6                  	db $C6		;[Wait] 7
    2383.  0E:8E3B  BF                  	db $BF		;[End-Of-Track]
    2384.  0E:8E3C                      .track_62:
    2385.  0E:8E3C  1E                  	db $1E		;[Note] 31
    2386.  0E:8E3D  6F                  	db $6F		;[Volume] 15
    2387.  0E:8E3E  7F                  	db $7F		;[Instrument] 16
    2388.  0E:8E3F  C1                  	db $C1		;[Wait] 2
    2389.  0E:8E40  1F                  	db $1F		;[Note] 32
    2390.  0E:8E41                      				;[Skip delay] 2
    2391.  0E:8E41  60                  	db $60		;[Note] 97
    2392.  0E:8E42                      				;[Skip delay] 2
    2393.  0E:8E42  1F                  	db $1F		;[Note] 32
    2394.  0E:8E43  7D                  	db $7D		;[Instrument] 14
    2395.  0E:8E44  C3                  	db $C3		;[Wait] 4
    2396.  0E:8E45  1E                  	db $1E		;[Note] 31
    2397.  0E:8E46  7F                  	db $7F		;[Instrument] 16
    2398.  0E:8E47  C1                  	db $C1		;[Wait] 2
    2399.  0E:8E48  1F                  	db $1F		;[Note] 32
    2400.  0E:8E49  7D                  	db $7D		;[Instrument] 14
    2401.  0E:8E4A                      				;[Skip delay] 2
    2402.  0E:8E4A  60                  	db $60		;[Note] 97
    2403.  0E:8E4B  C5                  	db $C5		;[Wait] 6
    2404.  0E:8E4C  1F                  	db $1F		;[Note] 32
    2405.  0E:8E4D  80                  	db $80		;[Instrument] 17
    2406.  0E:8E4E  C1                  	db $C1		;[Wait] 2
    2407.  0E:8E4F  1F                  	db $1F		;[Note] 32
    2408.  0E:8E50  C5                  	db $C5		;[Wait] 6
    2409.  0E:8E51  21                  	db $21		;[Note] 34
    2410.  0E:8E52  C3                  	db $C3		;[Wait] 4
    2411.  0E:8E53  21                  	db $21		;[Note] 34
    2412.  0E:8E54  7F                  	db $7F		;[Instrument] 16
    2413.  0E:8E55  C5                  	db $C5		;[Wait] 6
    2414.  0E:8E56  23                  	db $23		;[Note] 36
    2415.  0E:8E57  7D                  	db $7D		;[Instrument] 14
    2416.  0E:8E58                      				;[Skip delay] 6
    2417.  0E:8E58  25                  	db $25		;[Note] 38
    2418.  0E:8E59  7F                  	db $7F		;[Instrument] 16
    2419.  0E:8E5A  C3                  	db $C3		;[Wait] 4
    2420.  0E:8E5B  26                  	db $26		;[Note] 39
    2421.  0E:8E5C  C5                  	db $C5		;[Wait] 6
    2422.  0E:8E5D  25                  	db $25		;[Note] 38
    2423.  0E:8E5E  7D                  	db $7D		;[Instrument] 14
    2424.  0E:8E5F                      				;[Skip delay] 6
    2425.  0E:8E5F  21                  	db $21		;[Note] 34
    2426.  0E:8E60  7F                  	db $7F		;[Instrument] 16
    2427.  0E:8E61  C3                  	db $C3		;[Wait] 4
    2428.  0E:8E62  BF                  	db $BF		;[End-Of-Track]
    2429.  0E:8E63                      .track_63:
    2430.  0E:8E63  2B                  	db $2B		;[Note] 44
    2431.  0E:8E64  6F                  	db $6F		;[Volume] 15
    2432.  0E:8E65  70                  	db $70		;[Instrument] 1
    2433.  0E:8E66  C5                  	db $C5		;[Wait] 6
    2434.  0E:8E67  3B                  	db $3B		;[Note] 60
    2435.  0E:8E68  6B                  	db $6B		;[Volume] 11
    2436.  0E:8E69  84                  	db $84		;[Instrument] 21
    2437.  0E:8E6A  C9                  	db $C9		;[Wait] 10
    2438.  0E:8E6B  2B                  	db $2B		;[Note] 44
    2439.  0E:8E6C  6F                  	db $6F		;[Volume] 15
    2440.  0E:8E6D  70                  	db $70		;[Instrument] 1
    2441.  0E:8E6E  C5                  	db $C5		;[Wait] 6
    2442.  0E:8E6F  2D                  	db $2D		;[Note] 46
    2443.  0E:8E70                      				;[Skip delay] 6
    2444.  0E:8E70  2F                  	db $2F		;[Note] 48
    2445.  0E:8E71  C3                  	db $C3		;[Wait] 4
    2446.  0E:8E72  31                  	db $31		;[Note] 50
    2447.  0E:8E73  C5                  	db $C5		;[Wait] 6
    2448.  0E:8E74  3B                  	db $3B		;[Note] 60
    2449.  0E:8E75  6B                  	db $6B		;[Volume] 11
    2450.  0E:8E76  84                  	db $84		;[Instrument] 21
    2451.  0E:8E77  C9                  	db $C9		;[Wait] 10
    2452.  0E:8E78  2D                  	db $2D		;[Note] 46
    2453.  0E:8E79  6F                  	db $6F		;[Volume] 15
    2454.  0E:8E7A  70                  	db $70		;[Instrument] 1
    2455.  0E:8E7B  C5                  	db $C5		;[Wait] 6
    2456.  0E:8E7C  3B                  	db $3B		;[Note] 60
    2457.  0E:8E7D  6B                  	db $6B		;[Volume] 11
    2458.  0E:8E7E  84                  	db $84		;[Instrument] 21
    2459.  0E:8E7F  C9                  	db $C9		;[Wait] 10
    2460.  0E:8E80  BF                  	db $BF		;[End-Of-Track]
    2461.  0E:8E81                      .track_64:
    2462.  0E:8E81  37                  	db $37		;[Note] 56
    2463.  0E:8E82  6B                  	db $6B		;[Volume] 11
    2464.  0E:8E83  73                  	db $73		;[Instrument] 4
    2465.  0E:8E84  CF                  	db $CF		;[Wait] 16
    2466.  0E:8E85  34                  	db $34		;[Note] 53
    2467.  0E:8E86                      				;[Skip delay] 16
    2468.  0E:8E86  39                  	db $39		;[Note] 58
    2469.  0E:8E87                      				;[Skip delay] 16
    2470.  0E:8E87  3D                  	db $3D		;[Note] 62
    2471.  0E:8E88                      				;[Skip delay] 16
    2472.  0E:8E88  BF                  	db $BF		;[End-Of-Track]
    2473.  0E:8E89                      .track_65:
    2474.  0E:8E89  12                  	db $12		;[Note] 19
    2475.  0E:8E8A  C1                  	db $C1		;[Wait] 2
    2476.  0E:8E8B  13                  	db $13		;[Note] 20
    2477.  0E:8E8C                      				;[Skip delay] 2
    2478.  0E:8E8C  60                  	db $60		;[Note] 97
    2479.  0E:8E8D                      				;[Skip delay] 2
    2480.  0E:8E8D  13                  	db $13		;[Note] 20
    2481.  0E:8E8E  C3                  	db $C3		;[Wait] 4
    2482.  0E:8E8F  12                  	db $12		;[Note] 19
    2483.  0E:8E90  C1                  	db $C1		;[Wait] 2
    2484.  0E:8E91  13                  	db $13		;[Note] 20
    2485.  0E:8E92                      				;[Skip delay] 2
    2486.  0E:8E92  60                  	db $60		;[Note] 97
    2487.  0E:8E93  D1                  	db $D1		;[Wait] 18
    2488.  0E:8E94  15                  	db $15		;[Note] 22
    2489.  0E:8E95  C5                  	db $C5		;[Wait] 6
    2490.  0E:8E96  17                  	db $17		;[Note] 24
    2491.  0E:8E97                      				;[Skip delay] 6
    2492.  0E:8E97  19                  	db $19		;[Note] 26
    2493.  0E:8E98  C3                  	db $C3		;[Wait] 4
    2494.  0E:8E99  1A                  	db $1A		;[Note] 27
    2495.  0E:8E9A  C5                  	db $C5		;[Wait] 6
    2496.  0E:8E9B  19                  	db $19		;[Note] 26
    2497.  0E:8E9C                      				;[Skip delay] 6
    2498.  0E:8E9C  15                  	db $15		;[Note] 22
    2499.  0E:8E9D  C3                  	db $C3		;[Wait] 4
    2500.  0E:8E9E  BF                  	db $BF		;[End-Of-Track]
    2501.  0E:8E9F                      .track_66:
    2502.  0E:8E9F  2B                  	db $2B		;[Note] 44
    2503.  0E:8EA0  CF                  	db $CF		;[Wait] 16
    2504.  0E:8EA1  2B                  	db $2B		;[Note] 44
    2505.  0E:8EA2  C5                  	db $C5		;[Wait] 6
    2506.  0E:8EA3  2D                  	db $2D		;[Note] 46
    2507.  0E:8EA4                      				;[Skip delay] 6
    2508.  0E:8EA4  2F                  	db $2F		;[Note] 48
    2509.  0E:8EA5  C3                  	db $C3		;[Wait] 4
    2510.  0E:8EA6  31                  	db $31		;[Note] 50
    2511.  0E:8EA7  CF                  	db $CF		;[Wait] 16
    2512.  0E:8EA8  2D                  	db $2D		;[Note] 46
    2513.  0E:8EA9                      				;[Skip delay] 16
    2514.  0E:8EA9  BF                  	db $BF		;[End-Of-Track]
    2515.  0E:8EAA                      .track_67:
    2516.  0E:8EAA  C2                  	db $C2		;[Wait] 3
    2517.  0E:8EAB  2B                  	db $2B		;[Note] 44
    2518.  0E:8EAC  CF                  	db $CF		;[Wait] 16
    2519.  0E:8EAD  2B                  	db $2B		;[Note] 44
    2520.  0E:8EAE  C5                  	db $C5		;[Wait] 6
    2521.  0E:8EAF  2D                  	db $2D		;[Note] 46
    2522.  0E:8EB0                      				;[Skip delay] 6
    2523.  0E:8EB0  2F                  	db $2F		;[Note] 48
    2524.  0E:8EB1  C3                  	db $C3		;[Wait] 4
    2525.  0E:8EB2  31                  	db $31		;[Note] 50
    2526.  0E:8EB3  CF                  	db $CF		;[Wait] 16
    2527.  0E:8EB4  2D                  	db $2D		;[Note] 46
    2528.  0E:8EB5  CC                  	db $CC		;[Wait] 13
    2529.  0E:8EB6  BF                  	db $BF		;[End-Of-Track]
    2530.  0E:8EB7                      .track_68:
    2531.  0E:8EB7  23                  	db $23		;[Note] 36
    2532.  0E:8EB8  6F                  	db $6F		;[Volume] 15
    2533.  0E:8EB9  83                  	db $83		;[Instrument] 20
    2534.  0E:8EBA  C1                  	db $C1		;[Wait] 2
    2535.  0E:8EBB  23                  	db $23		;[Note] 36
    2536.  0E:8EBC  C3                  	db $C3		;[Wait] 4
    2537.  0E:8EBD  23                  	db $23		;[Note] 36
    2538.  0E:8EBE  81                  	db $81		;[Instrument] 18
    2539.  0E:8EBF  C2                  	db $C2		;[Wait] 3
    2540.  0E:8EC0  23                  	db $23		;[Note] 36
    2541.  0E:8EC1  67                  	db $67		;[Volume] 7
    2542.  0E:8EC2  C0                  	db $C0		;[Wait] 1
    2543.  0E:8EC3  23                  	db $23		;[Note] 36
    2544.  0E:8EC4  6F                  	db $6F		;[Volume] 15
    2545.  0E:8EC5  83                  	db $83		;[Instrument] 20
    2546.  0E:8EC6  C1                  	db $C1		;[Wait] 2
    2547.  0E:8EC7  23                  	db $23		;[Note] 36
    2548.  0E:8EC8  81                  	db $81		;[Instrument] 18
    2549.  0E:8EC9  C2                  	db $C2		;[Wait] 3
    2550.  0E:8ECA  23                  	db $23		;[Note] 36
    2551.  0E:8ECB  67                  	db $67		;[Volume] 7
    2552.  0E:8ECC                      				;[Skip delay] 3
    2553.  0E:8ECC  23                  	db $23		;[Note] 36
    2554.  0E:8ECD  6F                  	db $6F		;[Volume] 15
    2555.  0E:8ECE  83                  	db $83		;[Instrument] 20
    2556.  0E:8ECF  C5                  	db $C5		;[Wait] 6
    2557.  0E:8ED0  23                  	db $23		;[Note] 36
    2558.  0E:8ED1  81                  	db $81		;[Instrument] 18
    2559.  0E:8ED2  C2                  	db $C2		;[Wait] 3
    2560.  0E:8ED3  23                  	db $23		;[Note] 36
    2561.  0E:8ED4  67                  	db $67		;[Volume] 7
    2562.  0E:8ED5  C4                  	db $C4		;[Wait] 5
    2563.  0E:8ED6  26                  	db $26		;[Note] 39
    2564.  0E:8ED7  6F                  	db $6F		;[Volume] 15
    2565.  0E:8ED8  82                  	db $82		;[Instrument] 19
    2566.  0E:8ED9  C2                  	db $C2		;[Wait] 3
    2567.  0E:8EDA  26                  	db $26		;[Note] 39
    2568.  0E:8EDB  67                  	db $67		;[Volume] 7
    2569.  0E:8EDC                      				;[Skip delay] 3
    2570.  0E:8EDC  1E                  	db $1E		;[Note] 31
    2571.  0E:8EDD  6F                  	db $6F		;[Volume] 15
    2572.  0E:8EDE                      				;[Skip delay] 3
    2573.  0E:8EDE  1E                  	db $1E		;[Note] 31
    2574.  0E:8EDF  67                  	db $67		;[Volume] 7
    2575.  0E:8EE0                      				;[Skip delay] 3
    2576.  0E:8EE0  23                  	db $23		;[Note] 36
    2577.  0E:8EE1  6F                  	db $6F		;[Volume] 15
    2578.  0E:8EE2  83                  	db $83		;[Instrument] 20
    2579.  0E:8EE3  C3                  	db $C3		;[Wait] 4
    2580.  0E:8EE4  22                  	db $22		;[Note] 35
    2581.  0E:8EE5  82                  	db $82		;[Instrument] 19
    2582.  0E:8EE6  C2                  	db $C2		;[Wait] 3
    2583.  0E:8EE7  22                  	db $22		;[Note] 35
    2584.  0E:8EE8  67                  	db $67		;[Volume] 7
    2585.  0E:8EE9                      				;[Skip delay] 3
    2586.  0E:8EE9  1E                  	db $1E		;[Note] 31
    2587.  0E:8EEA  6F                  	db $6F		;[Volume] 15
    2588.  0E:8EEB                      				;[Skip delay] 3
    2589.  0E:8EEB  1E                  	db $1E		;[Note] 31
    2590.  0E:8EEC  67                  	db $67		;[Volume] 7
    2591.  0E:8EED                      				;[Skip delay] 3
    2592.  0E:8EED  23                  	db $23		;[Note] 36
    2593.  0E:8EEE  6F                  	db $6F		;[Volume] 15
    2594.  0E:8EEF  83                  	db $83		;[Instrument] 20
    2595.  0E:8EF0  C3                  	db $C3		;[Wait] 4
    2596.  0E:8EF1  BF                  	db $BF		;[End-Of-Track]
    2597.  0E:8EF2                      .track_69:
    2598.  0E:8EF2  1C                  	db $1C		;[Note] 29
    2599.  0E:8EF3  6F                  	db $6F		;[Volume] 15
    2600.  0E:8EF4  7F                  	db $7F		;[Instrument] 16
    2601.  0E:8EF5  C1                  	db $C1		;[Wait] 2
    2602.  0E:8EF6  1E                  	db $1E		;[Note] 31
    2603.  0E:8EF7                      				;[Skip delay] 2
    2604.  0E:8EF7  60                  	db $60		;[Note] 97
    2605.  0E:8EF8                      				;[Skip delay] 2
    2606.  0E:8EF8  1E                  	db $1E		;[Note] 31
    2607.  0E:8EF9  7D                  	db $7D		;[Instrument] 14
    2608.  0E:8EFA  C3                  	db $C3		;[Wait] 4
    2609.  0E:8EFB  1C                  	db $1C		;[Note] 29
    2610.  0E:8EFC  7F                  	db $7F		;[Instrument] 16
    2611.  0E:8EFD  C1                  	db $C1		;[Wait] 2
    2612.  0E:8EFE  1E                  	db $1E		;[Note] 31
    2613.  0E:8EFF  7D                  	db $7D		;[Instrument] 14
    2614.  0E:8F00                      				;[Skip delay] 2
    2615.  0E:8F00  60                  	db $60		;[Note] 97
    2616.  0E:8F01  C5                  	db $C5		;[Wait] 6
    2617.  0E:8F02  1F                  	db $1F		;[Note] 32
    2618.  0E:8F03  80                  	db $80		;[Instrument] 17
    2619.  0E:8F04  C1                  	db $C1		;[Wait] 2
    2620.  0E:8F05  1F                  	db $1F		;[Note] 32
    2621.  0E:8F06  C5                  	db $C5		;[Wait] 6
    2622.  0E:8F07  21                  	db $21		;[Note] 34
    2623.  0E:8F08  C3                  	db $C3		;[Wait] 4
    2624.  0E:8F09  1F                  	db $1F		;[Note] 32
    2625.  0E:8F0A  7F                  	db $7F		;[Instrument] 16
    2626.  0E:8F0B                      				;[Skip delay] 4
    2627.  0E:8F0B  1A                  	db $1A		;[Note] 27
    2628.  0E:8F0C  7D                  	db $7D		;[Instrument] 14
    2629.  0E:8F0D                      				;[Skip delay] 4
    2630.  0E:8F0D  1E                  	db $1E		;[Note] 31
    2631.  0E:8F0E                      				;[Skip delay] 4
    2632.  0E:8F0E  1F                  	db $1F		;[Note] 32
    2633.  0E:8F0F  7F                  	db $7F		;[Instrument] 16
    2634.  0E:8F10                      				;[Skip delay] 4
    2635.  0E:8F10  1E                  	db $1E		;[Note] 31
    2636.  0E:8F11                      				;[Skip delay] 4
    2637.  0E:8F11  1A                  	db $1A		;[Note] 27
    2638.  0E:8F12  C1                  	db $C1		;[Wait] 2
    2639.  0E:8F13  7D                  	db $7D		;[Instrument] 14
    2640.  0E:8F14                      				;[Skip delay] 2
    2641.  0E:8F14  1C                  	db $1C		;[Note] 29
    2642.  0E:8F15  C3                  	db $C3		;[Wait] 4
    2643.  0E:8F16  1E                  	db $1E		;[Note] 31
    2644.  0E:8F17  7F                  	db $7F		;[Instrument] 16
    2645.  0E:8F18                      				;[Skip delay] 4
    2646.  0E:8F18  BF                  	db $BF		;[End-Of-Track]
    2647.  0E:8F19                      .track_70:
    2648.  0E:8F19  2A                  	db $2A		;[Note] 43
    2649.  0E:8F1A  6F                  	db $6F		;[Volume] 15
    2650.  0E:8F1B  70                  	db $70		;[Instrument] 1
    2651.  0E:8F1C  CF                  	db $CF		;[Wait] 16
    2652.  0E:8F1D  2A                  	db $2A		;[Note] 43
    2653.  0E:8F1E  C5                  	db $C5		;[Wait] 6
    2654.  0E:8F1F  2B                  	db $2B		;[Note] 44
    2655.  0E:8F20                      				;[Skip delay] 6
    2656.  0E:8F20  2D                  	db $2D		;[Note] 46
    2657.  0E:8F21  C3                  	db $C3		;[Wait] 4
    2658.  0E:8F22  2B                  	db $2B		;[Note] 44
    2659.  0E:8F23  C7                  	db $C7		;[Wait] 8
    2660.  0E:8F24  3B                  	db $3B		;[Note] 60
    2661.  0E:8F25  84                  	db $84		;[Instrument] 21
    2662.  0E:8F26                      				;[Skip delay] 8
    2663.  0E:8F26  2A                  	db $2A		;[Note] 43
    2664.  0E:8F27                      				;[Skip delay] 8
    2665.  0E:8F27  3B                  	db $3B		;[Note] 60
    2666.  0E:8F28                      				;[Skip delay] 8
    2667.  0E:8F28  BF                  	db $BF		;[End-Of-Track]
    2668.  0E:8F29                      .track_71:
    2669.  0E:8F29  36                  	db $36		;[Note] 55
    2670.  0E:8F2A  CF                  	db $CF		;[Wait] 16
    2671.  0E:8F2B  32                  	db $32		;[Note] 51
    2672.  0E:8F2C                      				;[Skip delay] 16
    2673.  0E:8F2C  37                  	db $37		;[Note] 56
    2674.  0E:8F2D                      				;[Skip delay] 16
    2675.  0E:8F2D  36                  	db $36		;[Note] 55
    2676.  0E:8F2E                      				;[Skip delay] 16
    2677.  0E:8F2E  BF                  	db $BF		;[End-Of-Track]
    2678.  0E:8F2F                      .track_72:
    2679.  0E:8F2F  10                  	db $10		;[Note] 17
    2680.  0E:8F30  C1                  	db $C1		;[Wait] 2
    2681.  0E:8F31  12                  	db $12		;[Note] 19
    2682.  0E:8F32                      				;[Skip delay] 2
    2683.  0E:8F32  60                  	db $60		;[Note] 97
    2684.  0E:8F33                      				;[Skip delay] 2
    2685.  0E:8F33  12                  	db $12		;[Note] 19
    2686.  0E:8F34  C3                  	db $C3		;[Wait] 4
    2687.  0E:8F35  10                  	db $10		;[Note] 17
    2688.  0E:8F36  C1                  	db $C1		;[Wait] 2
    2689.  0E:8F37  12                  	db $12		;[Note] 19
    2690.  0E:8F38                      				;[Skip delay] 2
    2691.  0E:8F38  60                  	db $60		;[Note] 97
    2692.  0E:8F39  D1                  	db $D1		;[Wait] 18
    2693.  0E:8F3A  13                  	db $13		;[Note] 20
    2694.  0E:8F3B  C3                  	db $C3		;[Wait] 4
    2695.  0E:8F3C  0E                  	db $0E		;[Note] 15
    2696.  0E:8F3D                      				;[Skip delay] 4
    2697.  0E:8F3D  12                  	db $12		;[Note] 19
    2698.  0E:8F3E                      				;[Skip delay] 4
    2699.  0E:8F3E  13                  	db $13		;[Note] 20
    2700.  0E:8F3F                      				;[Skip delay] 4
    2701.  0E:8F3F  12                  	db $12		;[Note] 19
    2702.  0E:8F40                      				;[Skip delay] 4
    2703.  0E:8F40  0E                  	db $0E		;[Note] 15
    2704.  0E:8F41                      				;[Skip delay] 4
    2705.  0E:8F41  10                  	db $10		;[Note] 17
    2706.  0E:8F42                      				;[Skip delay] 4
    2707.  0E:8F42  12                  	db $12		;[Note] 19
    2708.  0E:8F43                      				;[Skip delay] 4
    2709.  0E:8F43  BF                  	db $BF		;[End-Of-Track]
    2710.  0E:8F44                      .track_73:
    2711.  0E:8F44  2A                  	db $2A		;[Note] 43
    2712.  0E:8F45  CF                  	db $CF		;[Wait] 16
    2713.  0E:8F46  2A                  	db $2A		;[Note] 43
    2714.  0E:8F47  C5                  	db $C5		;[Wait] 6
    2715.  0E:8F48  2B                  	db $2B		;[Note] 44
    2716.  0E:8F49                      				;[Skip delay] 6
    2717.  0E:8F49  2D                  	db $2D		;[Note] 46
    2718.  0E:8F4A  C3                  	db $C3		;[Wait] 4
    2719.  0E:8F4B  2B                  	db $2B		;[Note] 44
    2720.  0E:8F4C  CF                  	db $CF		;[Wait] 16
    2721.  0E:8F4D  2A                  	db $2A		;[Note] 43
    2722.  0E:8F4E                      				;[Skip delay] 16
    2723.  0E:8F4E  BF                  	db $BF		;[End-Of-Track]
    2724.  0E:8F4F                      .track_74:
    2725.  0E:8F4F  C2                  	db $C2		;[Wait] 3
    2726.  0E:8F50  2A                  	db $2A		;[Note] 43
    2727.  0E:8F51  CF                  	db $CF		;[Wait] 16
    2728.  0E:8F52  2A                  	db $2A		;[Note] 43
    2729.  0E:8F53  C5                  	db $C5		;[Wait] 6
    2730.  0E:8F54  2B                  	db $2B		;[Note] 44
    2731.  0E:8F55                      				;[Skip delay] 6
    2732.  0E:8F55  2D                  	db $2D		;[Note] 46
    2733.  0E:8F56  C3                  	db $C3		;[Wait] 4
    2734.  0E:8F57  2B                  	db $2B		;[Note] 44
    2735.  0E:8F58  CF                  	db $CF		;[Wait] 16
    2736.  0E:8F59  2A                  	db $2A		;[Note] 43
    2737.  0E:8F5A  CC                  	db $CC		;[Wait] 13
    2738.  0E:8F5B  BF                  	db $BF		;[End-Of-Track]
    2739.  0E:8F5C                      .track_75:
    2740.  0E:8F5C  2F                  	db $2F		;[Note] 48
    2741.  0E:8F5D  83                  	db $83		;[Instrument] 20
    2742.  0E:8F5E  C5                  	db $C5		;[Wait] 6
    2743.  0E:8F5F  2F                  	db $2F		;[Note] 48
    2744.  0E:8F60                      				;[Skip delay] 6
    2745.  0E:8F60  23                  	db $23		;[Note] 36
    2746.  0E:8F61  6F                  	db $6F		;[Volume] 15
    2747.  0E:8F62  81                  	db $81		;[Instrument] 18
    2748.  0E:8F63  C2                  	db $C2		;[Wait] 3
    2749.  0E:8F64  23                  	db $23		;[Note] 36
    2750.  0E:8F65  67                  	db $67		;[Volume] 7
    2751.  0E:8F66  C4                  	db $C4		;[Wait] 5
    2752.  0E:8F67  26                  	db $26		;[Note] 39
    2753.  0E:8F68  6F                  	db $6F		;[Volume] 15
    2754.  0E:8F69  82                  	db $82		;[Instrument] 19
    2755.  0E:8F6A  C2                  	db $C2		;[Wait] 3
    2756.  0E:8F6B  26                  	db $26		;[Note] 39
    2757.  0E:8F6C  67                  	db $67		;[Volume] 7
    2758.  0E:8F6D  C0                  	db $C0		;[Wait] 1
    2759.  0E:8F6E  22                  	db $22		;[Note] 35
    2760.  0E:8F6F  6F                  	db $6F		;[Volume] 15
    2761.  0E:8F70  C2                  	db $C2		;[Wait] 3
    2762.  0E:8F71  22                  	db $22		;[Note] 35
    2763.  0E:8F72  67                  	db $67		;[Volume] 7
    2764.  0E:8F73  C0                  	db $C0		;[Wait] 1
    2765.  0E:8F74  1E                  	db $1E		;[Note] 31
    2766.  0E:8F75  6F                  	db $6F		;[Volume] 15
    2767.  0E:8F76  C2                  	db $C2		;[Wait] 3
    2768.  0E:8F77  1E                  	db $1E		;[Note] 31
    2769.  0E:8F78  67                  	db $67		;[Volume] 7
    2770.  0E:8F79  C0                  	db $C0		;[Wait] 1
    2771.  0E:8F7A  2F                  	db $2F		;[Note] 48
    2772.  0E:8F7B  6F                  	db $6F		;[Volume] 15
    2773.  0E:8F7C  83                  	db $83		;[Instrument] 20
    2774.  0E:8F7D  C5                  	db $C5		;[Wait] 6
    2775.  0E:8F7E  2F                  	db $2F		;[Note] 48
    2776.  0E:8F7F                      				;[Skip delay] 6
    2777.  0E:8F7F  23                  	db $23		;[Note] 36
    2778.  0E:8F80  81                  	db $81		;[Instrument] 18
    2779.  0E:8F81  C2                  	db $C2		;[Wait] 3
    2780.  0E:8F82  23                  	db $23		;[Note] 36
    2781.  0E:8F83  67                  	db $67		;[Volume] 7
    2782.  0E:8F84  C4                  	db $C4		;[Wait] 5
    2783.  0E:8F85  2F                  	db $2F		;[Note] 48
    2784.  0E:8F86  83                  	db $83		;[Instrument] 20
    2785.  0E:8F87  C3                  	db $C3		;[Wait] 4
    2786.  0E:8F88  23                  	db $23		;[Note] 36
    2787.  0E:8F89  6F                  	db $6F		;[Volume] 15
    2788.  0E:8F8A  81                  	db $81		;[Instrument] 18
    2789.  0E:8F8B  C2                  	db $C2		;[Wait] 3
    2790.  0E:8F8C  23                  	db $23		;[Note] 36
    2791.  0E:8F8D  67                  	db $67		;[Volume] 7
    2792.  0E:8F8E  C0                  	db $C0		;[Wait] 1
    2793.  0E:8F8F  2F                  	db $2F		;[Note] 48
    2794.  0E:8F90  6F                  	db $6F		;[Volume] 15
    2795.  0E:8F91  83                  	db $83		;[Instrument] 20
    2796.  0E:8F92  C3                  	db $C3		;[Wait] 4
    2797.  0E:8F93  BF                  	db $BF		;[End-Of-Track]
    2798.  0E:8F94                      .track_76:
    2799.  0E:8F94  1C                  	db $1C		;[Note] 29
    2800.  0E:8F95  7D                  	db $7D		;[Instrument] 14
    2801.  0E:8F96  C5                  	db $C5		;[Wait] 6
    2802.  0E:8F97  1C                  	db $1C		;[Note] 29
    2803.  0E:8F98  74                  	db $74		;[Instrument] 5
    2804.  0E:8F99  C1                  	db $C1		;[Wait] 2
    2805.  0E:8F9A  60                  	db $60		;[Note] 97
    2806.  0E:8F9B  C3                  	db $C3		;[Wait] 4
    2807.  0E:8F9C  1C                  	db $1C		;[Note] 29
    2808.  0E:8F9D  70                  	db $70		;[Instrument] 1
    2809.  0E:8F9E  C7                  	db $C7		;[Wait] 8
    2810.  0E:8F9F  1A                  	db $1A		;[Note] 27
    2811.  0E:8FA0  C3                  	db $C3		;[Wait] 4
    2812.  0E:8FA1  19                  	db $19		;[Note] 26
    2813.  0E:8FA2                      				;[Skip delay] 4
    2814.  0E:8FA2  1C                  	db $1C		;[Note] 29
    2815.  0E:8FA3                      				;[Skip delay] 4
    2816.  0E:8FA3  1D                  	db $1D		;[Note] 30
    2817.  0E:8FA4  C5                  	db $C5		;[Wait] 6
    2818.  0E:8FA5  1D                  	db $1D		;[Note] 30
    2819.  0E:8FA6  C1                  	db $C1		;[Wait] 2
    2820.  0E:8FA7  60                  	db $60		;[Note] 97
    2821.  0E:8FA8  C3                  	db $C3		;[Wait] 4
    2822.  0E:8FA9  1D                  	db $1D		;[Note] 30
    2823.  0E:8FAA  C7                  	db $C7		;[Wait] 8
    2824.  0E:8FAB  1A                  	db $1A		;[Note] 27
    2825.  0E:8FAC  7F                  	db $7F		;[Instrument] 16
    2826.  0E:8FAD  C1                  	db $C1		;[Wait] 2
    2827.  0E:8FAE  1A                  	db $1A		;[Note] 27
    2828.  0E:8FAF  80                  	db $80		;[Instrument] 17
    2829.  0E:8FB0                      				;[Skip delay] 2
    2830.  0E:8FB0  19                  	db $19		;[Note] 26
    2831.  0E:8FB1  7D                  	db $7D		;[Instrument] 14
    2832.  0E:8FB2  C3                  	db $C3		;[Wait] 4
    2833.  0E:8FB3  1D                  	db $1D		;[Note] 30
    2834.  0E:8FB4                      				;[Skip delay] 4
    2835.  0E:8FB4  BF                  	db $BF		;[End-Of-Track]
    2836.  0E:8FB5                      .track_77:
    2837.  0E:8FB5  28                  	db $28		;[Note] 41
    2838.  0E:8FB6  70                  	db $70		;[Instrument] 1
    2839.  0E:8FB7  CB                  	db $CB		;[Wait] 12
    2840.  0E:8FB8  3B                  	db $3B		;[Note] 60
    2841.  0E:8FB9  6B                  	db $6B		;[Volume] 11
    2842.  0E:8FBA  84                  	db $84		;[Instrument] 21
    2843.  0E:8FBB  C3                  	db $C3		;[Wait] 4
    2844.  0E:8FBC  25                  	db $25		;[Note] 38
    2845.  0E:8FBD  6F                  	db $6F		;[Volume] 15
    2846.  0E:8FBE  70                  	db $70		;[Instrument] 1
    2847.  0E:8FBF  C7                  	db $C7		;[Wait] 8
    2848.  0E:8FC0  39                  	db $39		;[Note] 58
    2849.  0E:8FC1  84                  	db $84		;[Instrument] 21
    2850.  0E:8FC2                      				;[Skip delay] 8
    2851.  0E:8FC2  29                  	db $29		;[Note] 42
    2852.  0E:8FC3  70                  	db $70		;[Instrument] 1
    2853.  0E:8FC4  CB                  	db $CB		;[Wait] 12
    2854.  0E:8FC5  39                  	db $39		;[Note] 58
    2855.  0E:8FC6  6B                  	db $6B		;[Volume] 11
    2856.  0E:8FC7  84                  	db $84		;[Instrument] 21
    2857.  0E:8FC8  C3                  	db $C3		;[Wait] 4
    2858.  0E:8FC9  25                  	db $25		;[Note] 38
    2859.  0E:8FCA  6F                  	db $6F		;[Volume] 15
    2860.  0E:8FCB  70                  	db $70		;[Instrument] 1
    2861.  0E:8FCC  C7                  	db $C7		;[Wait] 8
    2862.  0E:8FCD  39                  	db $39		;[Note] 58
    2863.  0E:8FCE  84                  	db $84		;[Instrument] 21
    2864.  0E:8FCF                      				;[Skip delay] 8
    2865.  0E:8FCF  BF                  	db $BF		;[End-Of-Track]
    2866.  0E:8FD0                      .track_78:
    2867.  0E:8FD0  34                  	db $34		;[Note] 53
    2868.  0E:8FD1  D3                  	db $D3		;[Wait] 20
    2869.  0E:8FD2  32                  	db $32		;[Note] 51
    2870.  0E:8FD3  C3                  	db $C3		;[Wait] 4
    2871.  0E:8FD4  31                  	db $31		;[Note] 50
    2872.  0E:8FD5                      				;[Skip delay] 4
    2873.  0E:8FD5  2F                  	db $2F		;[Note] 48
    2874.  0E:8FD6                      				;[Skip delay] 4
    2875.  0E:8FD6  35                  	db $35		;[Note] 54
    2876.  0E:8FD7  D3                  	db $D3		;[Wait] 20
    2877.  0E:8FD8  31                  	db $31		;[Note] 50
    2878.  0E:8FD9  C3                  	db $C3		;[Wait] 4
    2879.  0E:8FDA  30                  	db $30		;[Note] 49
    2880.  0E:8FDB                      				;[Skip delay] 4
    2881.  0E:8FDB  35                  	db $35		;[Note] 54
    2882.  0E:8FDC                      				;[Skip delay] 4
    2883.  0E:8FDC  BF                  	db $BF		;[End-Of-Track]
    2884.  0E:8FDD                      .track_79:
    2885.  0E:8FDD  10                  	db $10		;[Note] 17
    2886.  0E:8FDE  C5                  	db $C5		;[Wait] 6
    2887.  0E:8FDF  10                  	db $10		;[Note] 17
    2888.  0E:8FE0  C1                  	db $C1		;[Wait] 2
    2889.  0E:8FE1  60                  	db $60		;[Note] 97
    2890.  0E:8FE2  C3                  	db $C3		;[Wait] 4
    2891.  0E:8FE3  10                  	db $10		;[Note] 17
    2892.  0E:8FE4  C7                  	db $C7		;[Wait] 8
    2893.  0E:8FE5  0E                  	db $0E		;[Note] 15
    2894.  0E:8FE6  C3                  	db $C3		;[Wait] 4
    2895.  0E:8FE7  0D                  	db $0D		;[Note] 14
    2896.  0E:8FE8                      				;[Skip delay] 4
    2897.  0E:8FE8  10                  	db $10		;[Note] 17
    2898.  0E:8FE9                      				;[Skip delay] 4
    2899.  0E:8FE9  11                  	db $11		;[Note] 18
    2900.  0E:8FEA  C5                  	db $C5		;[Wait] 6
    2901.  0E:8FEB  11                  	db $11		;[Note] 18
    2902.  0E:8FEC  C1                  	db $C1		;[Wait] 2
    2903.  0E:8FED  60                  	db $60		;[Note] 97
    2904.  0E:8FEE  C3                  	db $C3		;[Wait] 4
    2905.  0E:8FEF  11                  	db $11		;[Note] 18
    2906.  0E:8FF0  C7                  	db $C7		;[Wait] 8
    2907.  0E:8FF1  0E                  	db $0E		;[Note] 15
    2908.  0E:8FF2  C3                  	db $C3		;[Wait] 4
    2909.  0E:8FF3  0D                  	db $0D		;[Note] 14
    2910.  0E:8FF4                      				;[Skip delay] 4
    2911.  0E:8FF4  11                  	db $11		;[Note] 18
    2912.  0E:8FF5                      				;[Skip delay] 4
    2913.  0E:8FF5  BF                  	db $BF		;[End-Of-Track]
    2914.  0E:8FF6                      .track_80:
    2915.  0E:8FF6  28                  	db $28		;[Note] 41
    2916.  0E:8FF7  CF                  	db $CF		;[Wait] 16
    2917.  0E:8FF8  25                  	db $25		;[Note] 38
    2918.  0E:8FF9                      				;[Skip delay] 16
    2919.  0E:8FF9  29                  	db $29		;[Note] 42
    2920.  0E:8FFA                      				;[Skip delay] 16
    2921.  0E:8FFA  25                  	db $25		;[Note] 38
    2922.  0E:8FFB                      				;[Skip delay] 16
    2923.  0E:8FFB  BF                  	db $BF		;[End-Of-Track]
    2924.  0E:8FFC                      .track_81:
    2925.  0E:8FFC  C2                  	db $C2		;[Wait] 3
    2926.  0E:8FFD  28                  	db $28		;[Note] 41
    2927.  0E:8FFE  CF                  	db $CF		;[Wait] 16
    2928.  0E:8FFF  25                  	db $25		;[Note] 38
    2929.  0E:9000                      				;[Skip delay] 16
    2930.  0E:9000  29                  	db $29		;[Note] 42
    2931.  0E:9001                      				;[Skip delay] 16
    2932.  0E:9001  25                  	db $25		;[Note] 38
    2933.  0E:9002  CC                  	db $CC		;[Wait] 13
    2934.  0E:9003  BF                  	db $BF		;[End-Of-Track]
    2935.  0E:9004                      .track_82:
    2936.  0E:9004  2F                  	db $2F		;[Note] 48
    2937.  0E:9005  6F                  	db $6F		;[Volume] 15
    2938.  0E:9006  83                  	db $83		;[Instrument] 20
    2939.  0E:9007  C7                  	db $C7		;[Wait] 8
    2940.  0E:9008  2F                  	db $2F		;[Note] 48
    2941.  0E:9009                      				;[Skip delay] 8
    2942.  0E:9009  2F                  	db $2F		;[Note] 48
    2943.  0E:900A                      				;[Skip delay] 8
    2944.  0E:900A  2F                  	db $2F		;[Note] 48
    2945.  0E:900B                      				;[Skip delay] 8
    2946.  0E:900B  2F                  	db $2F		;[Note] 48
    2947.  0E:900C  C3                  	db $C3		;[Wait] 4
    2948.  0E:900D  2A                  	db $2A		;[Note] 43
    2949.  0E:900E  82                  	db $82		;[Instrument] 19
    2950.  0E:900F  C2                  	db $C2		;[Wait] 3
    2951.  0E:9010  2A                  	db $2A		;[Note] 43
    2952.  0E:9011  67                  	db $67		;[Volume] 7
    2953.  0E:9012                      				;[Skip delay] 3
    2954.  0E:9012  22                  	db $22		;[Note] 35
    2955.  0E:9013  6F                  	db $6F		;[Volume] 15
    2956.  0E:9014                      				;[Skip delay] 3
    2957.  0E:9014  22                  	db $22		;[Note] 35
    2958.  0E:9015  67                  	db $67		;[Volume] 7
    2959.  0E:9016                      				;[Skip delay] 3
    2960.  0E:9016  26                  	db $26		;[Note] 39
    2961.  0E:9017  6F                  	db $6F		;[Volume] 15
    2962.  0E:9018  C1                  	db $C1		;[Wait] 2
    2963.  0E:9019  26                  	db $26		;[Note] 39
    2964.  0E:901A  C2                  	db $C2		;[Wait] 3
    2965.  0E:901B  26                  	db $26		;[Note] 39
    2966.  0E:901C  67                  	db $67		;[Volume] 7
    2967.  0E:901D  C0                  	db $C0		;[Wait] 1
    2968.  0E:901E  1E                  	db $1E		;[Note] 31
    2969.  0E:901F  6F                  	db $6F		;[Volume] 15
    2970.  0E:9020  C1                  	db $C1		;[Wait] 2
    2971.  0E:9021  2F                  	db $2F		;[Note] 48
    2972.  0E:9022  83                  	db $83		;[Instrument] 20
    2973.  0E:9023                      				;[Skip delay] 2
    2974.  0E:9023  2F                  	db $2F		;[Note] 48
    2975.  0E:9024                      				;[Skip delay] 2
    2976.  0E:9024  23                  	db $23		;[Note] 36
    2977.  0E:9025  81                  	db $81		;[Instrument] 18
    2978.  0E:9026  C2                  	db $C2		;[Wait] 3
    2979.  0E:9027  23                  	db $23		;[Note] 36
    2980.  0E:9028  67                  	db $67		;[Volume] 7
    2981.  0E:9029  C0                  	db $C0		;[Wait] 1
    2982.  0E:902A  BF                  	db $BF		;[End-Of-Track]
    2983.  0E:902B                      .track_83:
    2984.  0E:902B  1E                  	db $1E		;[Note] 31
    2985.  0E:902C  7F                  	db $7F		;[Instrument] 16
    2986.  0E:902D  C3                  	db $C3		;[Wait] 4
    2987.  0E:902E  1E                  	db $1E		;[Note] 31
    2988.  0E:902F  7D                  	db $7D		;[Instrument] 14
    2989.  0E:9030  C0                  	db $C0		;[Wait] 1
    2990.  0E:9031  60                  	db $60		;[Note] 97
    2991.  0E:9032                      				;[Skip delay] 1
    2992.  0E:9032  1E                  	db $1E		;[Note] 31
    2993.  0E:9033                      				;[Skip delay] 1
    2994.  0E:9033  60                  	db $60		;[Note] 97
    2995.  0E:9034                      				;[Skip delay] 1
    2996.  0E:9034  1E                  	db $1E		;[Note] 31
    2997.  0E:9035  7F                  	db $7F		;[Instrument] 16
    2998.  0E:9036  C3                  	db $C3		;[Wait] 4
    2999.  0E:9037  1E                  	db $1E		;[Note] 31
    3000.  0E:9038  7D                  	db $7D		;[Instrument] 14
    3001.  0E:9039  C0                  	db $C0		;[Wait] 1
    3002.  0E:903A  60                  	db $60		;[Note] 97
    3003.  0E:903B                      				;[Skip delay] 1
    3004.  0E:903B  1E                  	db $1E		;[Note] 31
    3005.  0E:903C                      				;[Skip delay] 1
    3006.  0E:903C  60                  	db $60		;[Note] 97
    3007.  0E:903D                      				;[Skip delay] 1
    3008.  0E:903D  1E                  	db $1E		;[Note] 31
    3009.  0E:903E  7F                  	db $7F		;[Instrument] 16
    3010.  0E:903F  C3                  	db $C3		;[Wait] 4
    3011.  0E:9040  1E                  	db $1E		;[Note] 31
    3012.  0E:9041  7D                  	db $7D		;[Instrument] 14
    3013.  0E:9042  C0                  	db $C0		;[Wait] 1
    3014.  0E:9043  60                  	db $60		;[Note] 97
    3015.  0E:9044                      				;[Skip delay] 1
    3016.  0E:9044  1E                  	db $1E		;[Note] 31
    3017.  0E:9045                      				;[Skip delay] 1
    3018.  0E:9045  60                  	db $60		;[Note] 97
    3019.  0E:9046                      				;[Skip delay] 1
    3020.  0E:9046  1E                  	db $1E		;[Note] 31
    3021.  0E:9047  7F                  	db $7F		;[Instrument] 16
    3022.  0E:9048  C3                  	db $C3		;[Wait] 4
    3023.  0E:9049  1E                  	db $1E		;[Note] 31
    3024.  0E:904A  7D                  	db $7D		;[Instrument] 14
    3025.  0E:904B  C0                  	db $C0		;[Wait] 1
    3026.  0E:904C  60                  	db $60		;[Note] 97
    3027.  0E:904D                      				;[Skip delay] 1
    3028.  0E:904D  1E                  	db $1E		;[Note] 31
    3029.  0E:904E                      				;[Skip delay] 1
    3030.  0E:904E  60                  	db $60		;[Note] 97
    3031.  0E:904F                      				;[Skip delay] 1
    3032.  0E:904F  1E                  	db $1E		;[Note] 31
    3033.  0E:9050  7F                  	db $7F		;[Instrument] 16
    3034.  0E:9051  C3                  	db $C3		;[Wait] 4
    3035.  0E:9052  1E                  	db $1E		;[Note] 31
    3036.  0E:9053  7D                  	db $7D		;[Instrument] 14
    3037.  0E:9054  C0                  	db $C0		;[Wait] 1
    3038.  0E:9055  60                  	db $60		;[Note] 97
    3039.  0E:9056                      				;[Skip delay] 1
    3040.  0E:9056  1E                  	db $1E		;[Note] 31
    3041.  0E:9057                      				;[Skip delay] 1
    3042.  0E:9057  60                  	db $60		;[Note] 97
    3043.  0E:9058                      				;[Skip delay] 1
    3044.  0E:9058  1C                  	db $1C		;[Note] 29
    3045.  0E:9059  7F                  	db $7F		;[Instrument] 16
    3046.  0E:905A  C3                  	db $C3		;[Wait] 4
    3047.  0E:905B  1C                  	db $1C		;[Note] 29
    3048.  0E:905C  7D                  	db $7D		;[Instrument] 14
    3049.  0E:905D  C0                  	db $C0		;[Wait] 1
    3050.  0E:905E  60                  	db $60		;[Note] 97
    3051.  0E:905F                      				;[Skip delay] 1
    3052.  0E:905F  1C                  	db $1C		;[Note] 29
    3053.  0E:9060                      				;[Skip delay] 1
    3054.  0E:9060  60                  	db $60		;[Note] 97
    3055.  0E:9061                      				;[Skip delay] 1
    3056.  0E:9061  1A                  	db $1A		;[Note] 27
    3057.  0E:9062  C3                  	db $C3		;[Wait] 4
    3058.  0E:9063  1A                  	db $1A		;[Note] 27
    3059.  0E:9064  C0                  	db $C0		;[Wait] 1
    3060.  0E:9065  60                  	db $60		;[Note] 97
    3061.  0E:9066                      				;[Skip delay] 1
    3062.  0E:9066  1A                  	db $1A		;[Note] 27
    3063.  0E:9067                      				;[Skip delay] 1
    3064.  0E:9067  60                  	db $60		;[Note] 97
    3065.  0E:9068                      				;[Skip delay] 1
    3066.  0E:9068  19                  	db $19		;[Note] 26
    3067.  0E:9069  C1                  	db $C1		;[Wait] 2
    3068.  0E:906A  19                  	db $19		;[Note] 26
    3069.  0E:906B  80                  	db $80		;[Instrument] 17
    3070.  0E:906C                      				;[Skip delay] 2
    3071.  0E:906C  19                  	db $19		;[Note] 26
    3072.  0E:906D  7D                  	db $7D		;[Instrument] 14
    3073.  0E:906E  C0                  	db $C0		;[Wait] 1
    3074.  0E:906F  60                  	db $60		;[Note] 97
    3075.  0E:9070                      				;[Skip delay] 1
    3076.  0E:9070  19                  	db $19		;[Note] 26
    3077.  0E:9071                      				;[Skip delay] 1
    3078.  0E:9071  60                  	db $60		;[Note] 97
    3079.  0E:9072                      				;[Skip delay] 1
    3080.  0E:9072  BF                  	db $BF		;[End-Of-Track]
    3081.  0E:9073                      .track_84:
    3082.  0E:9073  2A                  	db $2A		;[Note] 43
    3083.  0E:9074  70                  	db $70		;[Instrument] 1
    3084.  0E:9075  FB                  	db $FB		;[Wait] 60
    3085.  0E:9076  3B                  	db $3B		;[Note] 60
    3086.  0E:9077  6B                  	db $6B		;[Volume] 11
    3087.  0E:9078  84                  	db $84		;[Instrument] 21
    3088.  0E:9079  C3                  	db $C3		;[Wait] 4
    3089.  0E:907A  BF                  	db $BF		;[End-Of-Track]
    3090.  0E:907B                      .track_85:
    3091.  0E:907B  36                  	db $36		;[Note] 55
    3092.  0E:907C  FF                  	db $FF		;[Wait] 64
    3093.  0E:907D  BF                  	db $BF		;[End-Of-Track]
    3094.  0E:907E                      .track_86:
    3095.  0E:907E  12                  	db $12		;[Note] 19
    3096.  0E:907F  C3                  	db $C3		;[Wait] 4
    3097.  0E:9080  12                  	db $12		;[Note] 19
    3098.  0E:9081  C0                  	db $C0		;[Wait] 1
    3099.  0E:9082  60                  	db $60		;[Note] 97
    3100.  0E:9083                      				;[Skip delay] 1
    3101.  0E:9083  12                  	db $12		;[Note] 19
    3102.  0E:9084                      				;[Skip delay] 1
    3103.  0E:9084  60                  	db $60		;[Note] 97
    3104.  0E:9085                      				;[Skip delay] 1
    3105.  0E:9085  12                  	db $12		;[Note] 19
    3106.  0E:9086  C3                  	db $C3		;[Wait] 4
    3107.  0E:9087  12                  	db $12		;[Note] 19
    3108.  0E:9088  C0                  	db $C0		;[Wait] 1
    3109.  0E:9089  60                  	db $60		;[Note] 97
    3110.  0E:908A                      				;[Skip delay] 1
    3111.  0E:908A  12                  	db $12		;[Note] 19
    3112.  0E:908B                      				;[Skip delay] 1
    3113.  0E:908B  60                  	db $60		;[Note] 97
    3114.  0E:908C                      				;[Skip delay] 1
    3115.  0E:908C  12                  	db $12		;[Note] 19
    3116.  0E:908D  C3                  	db $C3		;[Wait] 4
    3117.  0E:908E  12                  	db $12		;[Note] 19
    3118.  0E:908F  C0                  	db $C0		;[Wait] 1
    3119.  0E:9090  60                  	db $60		;[Note] 97
    3120.  0E:9091                      				;[Skip delay] 1
    3121.  0E:9091  12                  	db $12		;[Note] 19
    3122.  0E:9092                      				;[Skip delay] 1
    3123.  0E:9092  60                  	db $60		;[Note] 97
    3124.  0E:9093                      				;[Skip delay] 1
    3125.  0E:9093  12                  	db $12		;[Note] 19
    3126.  0E:9094  C3                  	db $C3		;[Wait] 4
    3127.  0E:9095  12                  	db $12		;[Note] 19
    3128.  0E:9096  C0                  	db $C0		;[Wait] 1
    3129.  0E:9097  60                  	db $60		;[Note] 97
    3130.  0E:9098                      				;[Skip delay] 1
    3131.  0E:9098  12                  	db $12		;[Note] 19
    3132.  0E:9099                      				;[Skip delay] 1
    3133.  0E:9099  60                  	db $60		;[Note] 97
    3134.  0E:909A                      				;[Skip delay] 1
    3135.  0E:909A  12                  	db $12		;[Note] 19
    3136.  0E:909B  C3                  	db $C3		;[Wait] 4
    3137.  0E:909C  12                  	db $12		;[Note] 19
    3138.  0E:909D  C0                  	db $C0		;[Wait] 1
    3139.  0E:909E  60                  	db $60		;[Note] 97
    3140.  0E:909F                      				;[Skip delay] 1
    3141.  0E:909F  12                  	db $12		;[Note] 19
    3142.  0E:90A0                      				;[Skip delay] 1
    3143.  0E:90A0  60                  	db $60		;[Note] 97
    3144.  0E:90A1                      				;[Skip delay] 1
    3145.  0E:90A1  10                  	db $10		;[Note] 17
    3146.  0E:90A2  C3                  	db $C3		;[Wait] 4
    3147.  0E:90A3  10                  	db $10		;[Note] 17
    3148.  0E:90A4  C0                  	db $C0		;[Wait] 1
    3149.  0E:90A5  60                  	db $60		;[Note] 97
    3150.  0E:90A6                      				;[Skip delay] 1
    3151.  0E:90A6  10                  	db $10		;[Note] 17
    3152.  0E:90A7                      				;[Skip delay] 1
    3153.  0E:90A7  60                  	db $60		;[Note] 97
    3154.  0E:90A8                      				;[Skip delay] 1
    3155.  0E:90A8  0E                  	db $0E		;[Note] 15
    3156.  0E:90A9  C3                  	db $C3		;[Wait] 4
    3157.  0E:90AA  0E                  	db $0E		;[Note] 15
    3158.  0E:90AB  C0                  	db $C0		;[Wait] 1
    3159.  0E:90AC  60                  	db $60		;[Note] 97
    3160.  0E:90AD                      				;[Skip delay] 1
    3161.  0E:90AD  0E                  	db $0E		;[Note] 15
    3162.  0E:90AE                      				;[Skip delay] 1
    3163.  0E:90AE  60                  	db $60		;[Note] 97
    3164.  0E:90AF                      				;[Skip delay] 1
    3165.  0E:90AF  0D                  	db $0D		;[Note] 14
    3166.  0E:90B0  C3                  	db $C3		;[Wait] 4
    3167.  0E:90B1  0D                  	db $0D		;[Note] 14
    3168.  0E:90B2  C0                  	db $C0		;[Wait] 1
    3169.  0E:90B3  60                  	db $60		;[Note] 97
    3170.  0E:90B4                      				;[Skip delay] 1
    3171.  0E:90B4  0D                  	db $0D		;[Note] 14
    3172.  0E:90B5                      				;[Skip delay] 1
    3173.  0E:90B5  60                  	db $60		;[Note] 97
    3174.  0E:90B6                      				;[Skip delay] 1
    3175.  0E:90B6  BF                  	db $BF		;[End-Of-Track]
    3176.  0E:90B7                      .track_87:
    3177.  0E:90B7  2A                  	db $2A		;[Note] 43
    3178.  0E:90B8  FF                  	db $FF		;[Wait] 64
    3179.  0E:90B9  BF                  	db $BF		;[End-Of-Track]
    3180.  0E:90BA                      .track_88:
    3181.  0E:90BA  C2                  	db $C2		;[Wait] 3
    3182.  0E:90BB  2A                  	db $2A		;[Note] 43
    3183.  0E:90BC  FC                  	db $FC		;[Wait] 61
    3184.  0E:90BD  BF                  	db $BF		;[End-Of-Track]
    3185.  0E:90BE                      .track_89:
    3186.  0E:90BE  2A                  	db $2A		;[Note] 43
    3187.  0E:90BF  70                  	db $70		;[Instrument] 1
    3188.  0E:90C0  F6                  	db $F6		;[Wait] 55
    3189.  0E:90C1  60                  	db $60		;[Note] 97
    3190.  0E:90C2  C0                  	db $C0		;[Wait] 1
    3191.  0E:90C3  2A                  	db $2A		;[Note] 43
    3192.  0E:90C4  C1                  	db $C1		;[Wait] 2
    3193.  0E:90C5  2B                  	db $2B		;[Note] 44
    3194.  0E:90C6                      				;[Skip delay] 2
    3195.  0E:90C6  2D                  	db $2D		;[Note] 46
    3196.  0E:90C7                      				;[Skip delay] 2
    3197.  0E:90C7  2A                  	db $2A		;[Note] 43
    3198.  0E:90C8                      				;[Skip delay] 2
    3199.  0E:90C8  BF                  	db $BF		;[End-Of-Track]
    3200.  0E:90C9                      .track_90:
    3201.  0E:90C9  1E                  	db $1E		;[Note] 31
    3202.  0E:90CA  FD                  	db $FD		;[Wait] 62
    3203.  0E:90CB  60                  	db $60		;[Note] 97
    3204.  0E:90CC  C0                  	db $C0		;[Wait] 1
    3205.  0E:90CD                      				;[Skip delay] 1
    3206.  0E:90CD  BF                  	db $BF		;[End-Of-Track]
    3207.  0E:90CE                      .track_91:
    3208.  0E:90CE  2A                  	db $2A		;[Note] 43
    3209.  0E:90CF  F6                  	db $F6		;[Wait] 55
    3210.  0E:90D0  60                  	db $60		;[Note] 97
    3211.  0E:90D1  C0                  	db $C0		;[Wait] 1
    3212.  0E:90D2  2A                  	db $2A		;[Note] 43
    3213.  0E:90D3  C1                  	db $C1		;[Wait] 2
    3214.  0E:90D4  2B                  	db $2B		;[Note] 44
    3215.  0E:90D5                      				;[Skip delay] 2
    3216.  0E:90D5  2D                  	db $2D		;[Note] 46
    3217.  0E:90D6                      				;[Skip delay] 2
    3218.  0E:90D6  2A                  	db $2A		;[Note] 43
    3219.  0E:90D7                      				;[Skip delay] 2
    3220.  0E:90D7  BF                  	db $BF		;[End-Of-Track]
    3221.  0E:90D8                      .track_92:
    3222.  0E:90D8  C2                  	db $C2		;[Wait] 3
    3223.  0E:90D9  2A                  	db $2A		;[Note] 43
    3224.  0E:90DA  F6                  	db $F6		;[Wait] 55
    3225.  0E:90DB  60                  	db $60		;[Note] 97
    3226.  0E:90DC  C0                  	db $C0		;[Wait] 1
    3227.  0E:90DD  2A                  	db $2A		;[Note] 43
    3228.  0E:90DE  C1                  	db $C1		;[Wait] 2
    3229.  0E:90DF  2B                  	db $2B		;[Note] 44
    3230.  0E:90E0                      				;[Skip delay] 2
    3231.  0E:90E0  2D                  	db $2D		;[Note] 46
    3232.  0E:90E1  C0                  	db $C0		;[Wait] 1
    3233.  0E:90E2  BF                  	db $BF		;[End-Of-Track]
    3234.  0E:90E3                      .track_93:
    3235.  0E:90E3  34                  	db $34		;[Note] 53
    3236.  0E:90E4  6F                  	db $6F		;[Volume] 15
    3237.  0E:90E5  84                  	db $84		;[Instrument] 21
    3238.  0E:90E6  C5                  	db $C5		;[Wait] 6
    3239.  0E:90E7  2F                  	db $2F		;[Note] 48
    3240.  0E:90E8  83                  	db $83		;[Instrument] 20
    3241.  0E:90E9  C1                  	db $C1		;[Wait] 2
    3242.  0E:90EA  23                  	db $23		;[Note] 36
    3243.  0E:90EB  81                  	db $81		;[Instrument] 18
    3244.  0E:90EC  C2                  	db $C2		;[Wait] 3
    3245.  0E:90ED  23                  	db $23		;[Note] 36
    3246.  0E:90EE  67                  	db $67		;[Volume] 7
    3247.  0E:90EF  C0                  	db $C0		;[Wait] 1
    3248.  0E:90F0  2F                  	db $2F		;[Note] 48
    3249.  0E:90F1  6F                  	db $6F		;[Volume] 15
    3250.  0E:90F2  83                  	db $83		;[Instrument] 20
    3251.  0E:90F3  C3                  	db $C3		;[Wait] 4
    3252.  0E:90F4  2F                  	db $2F		;[Note] 48
    3253.  0E:90F5                      				;[Skip delay] 4
    3254.  0E:90F5  2F                  	db $2F		;[Note] 48
    3255.  0E:90F6                      				;[Skip delay] 4
    3256.  0E:90F6  23                  	db $23		;[Note] 36
    3257.  0E:90F7  81                  	db $81		;[Instrument] 18
    3258.  0E:90F8  C2                  	db $C2		;[Wait] 3
    3259.  0E:90F9  23                  	db $23		;[Note] 36
    3260.  0E:90FA  67                  	db $67		;[Volume] 7
    3261.  0E:90FB  C4                  	db $C4		;[Wait] 5
    3262.  0E:90FC  34                  	db $34		;[Note] 53
    3263.  0E:90FD  6F                  	db $6F		;[Volume] 15
    3264.  0E:90FE  83                  	db $83		;[Instrument] 20
    3265.  0E:90FF  C5                  	db $C5		;[Wait] 6
    3266.  0E:9100  2F                  	db $2F		;[Note] 48
    3267.  0E:9101  C1                  	db $C1		;[Wait] 2
    3268.  0E:9102  23                  	db $23		;[Note] 36
    3269.  0E:9103  81                  	db $81		;[Instrument] 18
    3270.  0E:9104  C2                  	db $C2		;[Wait] 3
    3271.  0E:9105  23                  	db $23		;[Note] 36
    3272.  0E:9106  67                  	db $67		;[Volume] 7
    3273.  0E:9107  C0                  	db $C0		;[Wait] 1
    3274.  0E:9108  2F                  	db $2F		;[Note] 48
    3275.  0E:9109  6F                  	db $6F		;[Volume] 15
    3276.  0E:910A  83                  	db $83		;[Instrument] 20
    3277.  0E:910B  C3                  	db $C3		;[Wait] 4
    3278.  0E:910C  2F                  	db $2F		;[Note] 48
    3279.  0E:910D                      				;[Skip delay] 4
    3280.  0E:910D  2F                  	db $2F		;[Note] 48
    3281.  0E:910E                      				;[Skip delay] 4
    3282.  0E:910E  23                  	db $23		;[Note] 36
    3283.  0E:910F  81                  	db $81		;[Instrument] 18
    3284.  0E:9110  C2                  	db $C2		;[Wait] 3
    3285.  0E:9111  23                  	db $23		;[Note] 36
    3286.  0E:9112  67                  	db $67		;[Volume] 7
    3287.  0E:9113  C4                  	db $C4		;[Wait] 5
    3288.  0E:9114  BF                  	db $BF		;[End-Of-Track]
    3289.  0E:9115                      .track_94:
    3290.  0E:9115  17                  	db $17		;[Note] 24
    3291.  0E:9116  7F                  	db $7F		;[Instrument] 16
    3292.  0E:9117  C5                  	db $C5		;[Wait] 6
    3293.  0E:9118  17                  	db $17		;[Note] 24
    3294.  0E:9119  C1                  	db $C1		;[Wait] 2
    3295.  0E:911A  23                  	db $23		;[Note] 36
    3296.  0E:911B  7D                  	db $7D		;[Instrument] 14
    3297.  0E:911C  C3                  	db $C3		;[Wait] 4
    3298.  0E:911D  17                  	db $17		;[Note] 24
    3299.  0E:911E  7F                  	db $7F		;[Instrument] 16
    3300.  0E:911F                      				;[Skip delay] 4
    3301.  0E:911F  23                  	db $23		;[Note] 36
    3302.  0E:9120                      				;[Skip delay] 4
    3303.  0E:9120  21                  	db $21		;[Note] 34
    3304.  0E:9121                      				;[Skip delay] 4
    3305.  0E:9121  1E                  	db $1E		;[Note] 31
    3306.  0E:9122  7D                  	db $7D		;[Instrument] 14
    3307.  0E:9123                      				;[Skip delay] 4
    3308.  0E:9123  23                  	db $23		;[Note] 36
    3309.  0E:9124                      				;[Skip delay] 4
    3310.  0E:9124  15                  	db $15		;[Note] 22
    3311.  0E:9125  7F                  	db $7F		;[Instrument] 16
    3312.  0E:9126  C5                  	db $C5		;[Wait] 6
    3313.  0E:9127  15                  	db $15		;[Note] 22
    3314.  0E:9128  C1                  	db $C1		;[Wait] 2
    3315.  0E:9129  21                  	db $21		;[Note] 34
    3316.  0E:912A  7D                  	db $7D		;[Instrument] 14
    3317.  0E:912B  C3                  	db $C3		;[Wait] 4
    3318.  0E:912C  15                  	db $15		;[Note] 22
    3319.  0E:912D  7F                  	db $7F		;[Instrument] 16
    3320.  0E:912E                      				;[Skip delay] 4
    3321.  0E:912E  21                  	db $21		;[Note] 34
    3322.  0E:912F                      				;[Skip delay] 4
    3323.  0E:912F  1F                  	db $1F		;[Note] 32
    3324.  0E:9130                      				;[Skip delay] 4
    3325.  0E:9130  1E                  	db $1E		;[Note] 31
    3326.  0E:9131  7D                  	db $7D		;[Instrument] 14
    3327.  0E:9132                      				;[Skip delay] 4
    3328.  0E:9132  21                  	db $21		;[Note] 34
    3329.  0E:9133                      				;[Skip delay] 4
    3330.  0E:9133  BF                  	db $BF		;[End-Of-Track]
    3331.  0E:9134                      .track_95:
    3332.  0E:9134  2F                  	db $2F		;[Note] 48
    3333.  0E:9135  CF                  	db $CF		;[Wait] 16
    3334.  0E:9136  2F                  	db $2F		;[Note] 48
    3335.  0E:9137  C7                  	db $C7		;[Wait] 8
    3336.  0E:9138  32                  	db $32		;[Note] 51
    3337.  0E:9139                      				;[Skip delay] 8
    3338.  0E:9139  31                  	db $31		;[Note] 50
    3339.  0E:913A  CF                  	db $CF		;[Wait] 16
    3340.  0E:913B  2D                  	db $2D		;[Note] 46
    3341.  0E:913C                      				;[Skip delay] 16
    3342.  0E:913C  BF                  	db $BF		;[End-Of-Track]
    3343.  0E:913D                      .track_96:
    3344.  0E:913D  3B                  	db $3B		;[Note] 60
    3345.  0E:913E  6D                  	db $6D		;[Volume] 13
    3346.  0E:913F  71                  	db $71		;[Instrument] 2
    3347.  0E:9140  C2                  	db $C2		;[Wait] 3
    3348.  0E:9141  36                  	db $36		;[Note] 55
    3349.  0E:9142                      				;[Skip delay] 3
    3350.  0E:9142  32                  	db $32		;[Note] 51
    3351.  0E:9143                      				;[Skip delay] 3
    3352.  0E:9143  3B                  	db $3B		;[Note] 60
    3353.  0E:9144                      				;[Skip delay] 3
    3354.  0E:9144  36                  	db $36		;[Note] 55
    3355.  0E:9145                      				;[Skip delay] 3
    3356.  0E:9145  32                  	db $32		;[Note] 51
    3357.  0E:9146                      				;[Skip delay] 3
    3358.  0E:9146  3B                  	db $3B		;[Note] 60
    3359.  0E:9147                      				;[Skip delay] 3
    3360.  0E:9147  36                  	db $36		;[Note] 55
    3361.  0E:9148                      				;[Skip delay] 3
    3362.  0E:9148  32                  	db $32		;[Note] 51
    3363.  0E:9149                      				;[Skip delay] 3
    3364.  0E:9149  3B                  	db $3B		;[Note] 60
    3365.  0E:914A                      				;[Skip delay] 3
    3366.  0E:914A  36                  	db $36		;[Note] 55
    3367.  0E:914B  C1                  	db $C1		;[Wait] 2
    3368.  0E:914C  39                  	db $39		;[Note] 58
    3369.  0E:914D  C2                  	db $C2		;[Wait] 3
    3370.  0E:914E  34                  	db $34		;[Note] 53
    3371.  0E:914F                      				;[Skip delay] 3
    3372.  0E:914F  31                  	db $31		;[Note] 50
    3373.  0E:9150                      				;[Skip delay] 3
    3374.  0E:9150  39                  	db $39		;[Note] 58
    3375.  0E:9151                      				;[Skip delay] 3
    3376.  0E:9151  34                  	db $34		;[Note] 53
    3377.  0E:9152                      				;[Skip delay] 3
    3378.  0E:9152  31                  	db $31		;[Note] 50
    3379.  0E:9153                      				;[Skip delay] 3
    3380.  0E:9153  39                  	db $39		;[Note] 58
    3381.  0E:9154                      				;[Skip delay] 3
    3382.  0E:9154  34                  	db $34		;[Note] 53
    3383.  0E:9155                      				;[Skip delay] 3
    3384.  0E:9155  31                  	db $31		;[Note] 50
    3385.  0E:9156                      				;[Skip delay] 3
    3386.  0E:9156  39                  	db $39		;[Note] 58
    3387.  0E:9157                      				;[Skip delay] 3
    3388.  0E:9157  34                  	db $34		;[Note] 53
    3389.  0E:9158  C0                  	db $C0		;[Wait] 1
    3390.  0E:9159                      				;[Skip delay] 1
    3391.  0E:9159  BF                  	db $BF		;[End-Of-Track]
    3392.  0E:915A                      .track_97:
    3393.  0E:915A  3B                  	db $3B		;[Note] 60
    3394.  0E:915B  6B                  	db $6B		;[Volume] 11
    3395.  0E:915C  73                  	db $73		;[Instrument] 4
    3396.  0E:915D  CF                  	db $CF		;[Wait] 16
    3397.  0E:915E  36                  	db $36		;[Note] 55
    3398.  0E:915F  C7                  	db $C7		;[Wait] 8
    3399.  0E:9160  3E                  	db $3E		;[Note] 63
    3400.  0E:9161                      				;[Skip delay] 8
    3401.  0E:9161  3D                  	db $3D		;[Note] 62
    3402.  0E:9162  CF                  	db $CF		;[Wait] 16
    3403.  0E:9163  39                  	db $39		;[Note] 58
    3404.  0E:9164                      				;[Skip delay] 16
    3405.  0E:9164  BF                  	db $BF		;[End-Of-Track]
    3406.  0E:9165                      .track_98:
    3407.  0E:9165  C0                  	db $C0		;[Wait] 1
    3408.  0E:9166  2A                  	db $2A		;[Note] 43
    3409.  0E:9167  C1                  	db $C1		;[Wait] 2
    3410.  0E:9168  2F                  	db $2F		;[Note] 48
    3411.  0E:9169  CF                  	db $CF		;[Wait] 16
    3412.  0E:916A  2F                  	db $2F		;[Note] 48
    3413.  0E:916B  C7                  	db $C7		;[Wait] 8
    3414.  0E:916C  32                  	db $32		;[Note] 51
    3415.  0E:916D                      				;[Skip delay] 8
    3416.  0E:916D  31                  	db $31		;[Note] 50
    3417.  0E:916E  CF                  	db $CF		;[Wait] 16
    3418.  0E:916F  2D                  	db $2D		;[Note] 46
    3419.  0E:9170  CC                  	db $CC		;[Wait] 13
    3420.  0E:9171  BF                  	db $BF		;[End-Of-Track]
    3421.  0E:9172                      .track_99:
    3422.  0E:9172  34                  	db $34		;[Note] 53
    3423.  0E:9173  6F                  	db $6F		;[Volume] 15
    3424.  0E:9174  83                  	db $83		;[Instrument] 20
    3425.  0E:9175  C5                  	db $C5		;[Wait] 6
    3426.  0E:9176  2F                  	db $2F		;[Note] 48
    3427.  0E:9177  C1                  	db $C1		;[Wait] 2
    3428.  0E:9178  23                  	db $23		;[Note] 36
    3429.  0E:9179  81                  	db $81		;[Instrument] 18
    3430.  0E:917A  C2                  	db $C2		;[Wait] 3
    3431.  0E:917B  23                  	db $23		;[Note] 36
    3432.  0E:917C  67                  	db $67		;[Volume] 7
    3433.  0E:917D  C0                  	db $C0		;[Wait] 1
    3434.  0E:917E  2F                  	db $2F		;[Note] 48
    3435.  0E:917F  6F                  	db $6F		;[Volume] 15
    3436.  0E:9180  83                  	db $83		;[Instrument] 20
    3437.  0E:9181  C3                  	db $C3		;[Wait] 4
    3438.  0E:9182  2F                  	db $2F		;[Note] 48
    3439.  0E:9183                      				;[Skip delay] 4
    3440.  0E:9183  2F                  	db $2F		;[Note] 48
    3441.  0E:9184                      				;[Skip delay] 4
    3442.  0E:9184  23                  	db $23		;[Note] 36
    3443.  0E:9185  81                  	db $81		;[Instrument] 18
    3444.  0E:9186  C2                  	db $C2		;[Wait] 3
    3445.  0E:9187  23                  	db $23		;[Note] 36
    3446.  0E:9188  67                  	db $67		;[Volume] 7
    3447.  0E:9189  C4                  	db $C4		;[Wait] 5
    3448.  0E:918A  34                  	db $34		;[Note] 53
    3449.  0E:918B  6F                  	db $6F		;[Volume] 15
    3450.  0E:918C  83                  	db $83		;[Instrument] 20
    3451.  0E:918D  C5                  	db $C5		;[Wait] 6
    3452.  0E:918E  2F                  	db $2F		;[Note] 48
    3453.  0E:918F  C1                  	db $C1		;[Wait] 2
    3454.  0E:9190  23                  	db $23		;[Note] 36
    3455.  0E:9191  81                  	db $81		;[Instrument] 18
    3456.  0E:9192  C2                  	db $C2		;[Wait] 3
    3457.  0E:9193  23                  	db $23		;[Note] 36
    3458.  0E:9194  67                  	db $67		;[Volume] 7
    3459.  0E:9195  C0                  	db $C0		;[Wait] 1
    3460.  0E:9196  2F                  	db $2F		;[Note] 48
    3461.  0E:9197  6F                  	db $6F		;[Volume] 15
    3462.  0E:9198  83                  	db $83		;[Instrument] 20
    3463.  0E:9199  C3                  	db $C3		;[Wait] 4
    3464.  0E:919A  2F                  	db $2F		;[Note] 48
    3465.  0E:919B                      				;[Skip delay] 4
    3466.  0E:919B  2F                  	db $2F		;[Note] 48
    3467.  0E:919C                      				;[Skip delay] 4
    3468.  0E:919C  26                  	db $26		;[Note] 39
    3469.  0E:919D  82                  	db $82		;[Instrument] 19
    3470.  0E:919E  C2                  	db $C2		;[Wait] 3
    3471.  0E:919F  26                  	db $26		;[Note] 39
    3472.  0E:91A0  67                  	db $67		;[Volume] 7
    3473.  0E:91A1  C0                  	db $C0		;[Wait] 1
    3474.  0E:91A2  1E                  	db $1E		;[Note] 31
    3475.  0E:91A3  6F                  	db $6F		;[Volume] 15
    3476.  0E:91A4  C2                  	db $C2		;[Wait] 3
    3477.  0E:91A5  1E                  	db $1E		;[Note] 31
    3478.  0E:91A6  67                  	db $67		;[Volume] 7
    3479.  0E:91A7  C0                  	db $C0		;[Wait] 1
    3480.  0E:91A8  BF                  	db $BF		;[End-Of-Track]
    3481.  0E:91A9                      .track_100:
    3482.  0E:91A9  13                  	db $13		;[Note] 20
    3483.  0E:91AA  7F                  	db $7F		;[Instrument] 16
    3484.  0E:91AB  C5                  	db $C5		;[Wait] 6
    3485.  0E:91AC  13                  	db $13		;[Note] 20
    3486.  0E:91AD  C1                  	db $C1		;[Wait] 2
    3487.  0E:91AE  1F                  	db $1F		;[Note] 32
    3488.  0E:91AF  7D                  	db $7D		;[Instrument] 14
    3489.  0E:91B0  C3                  	db $C3		;[Wait] 4
    3490.  0E:91B1  13                  	db $13		;[Note] 20
    3491.  0E:91B2  7F                  	db $7F		;[Instrument] 16
    3492.  0E:91B3                      				;[Skip delay] 4
    3493.  0E:91B3  1F                  	db $1F		;[Note] 32
    3494.  0E:91B4                      				;[Skip delay] 4
    3495.  0E:91B4  1E                  	db $1E		;[Note] 31
    3496.  0E:91B5                      				;[Skip delay] 4
    3497.  0E:91B5  1C                  	db $1C		;[Note] 29
    3498.  0E:91B6  7D                  	db $7D		;[Instrument] 14
    3499.  0E:91B7                      				;[Skip delay] 4
    3500.  0E:91B7  1F                  	db $1F		;[Note] 32
    3501.  0E:91B8                      				;[Skip delay] 4
    3502.  0E:91B8  15                  	db $15		;[Note] 22
    3503.  0E:91B9  7F                  	db $7F		;[Instrument] 16
    3504.  0E:91BA  C5                  	db $C5		;[Wait] 6
    3505.  0E:91BB  15                  	db $15		;[Note] 22
    3506.  0E:91BC  C1                  	db $C1		;[Wait] 2
    3507.  0E:91BD  21                  	db $21		;[Note] 34
    3508.  0E:91BE  7D                  	db $7D		;[Instrument] 14
    3509.  0E:91BF  C3                  	db $C3		;[Wait] 4
    3510.  0E:91C0  15                  	db $15		;[Note] 22
    3511.  0E:91C1  7F                  	db $7F		;[Instrument] 16
    3512.  0E:91C2                      				;[Skip delay] 4
    3513.  0E:91C2  21                  	db $21		;[Note] 34
    3514.  0E:91C3                      				;[Skip delay] 4
    3515.  0E:91C3  23                  	db $23		;[Note] 36
    3516.  0E:91C4                      				;[Skip delay] 4
    3517.  0E:91C4  25                  	db $25		;[Note] 38
    3518.  0E:91C5  7D                  	db $7D		;[Instrument] 14
    3519.  0E:91C6                      				;[Skip delay] 4
    3520.  0E:91C6  21                  	db $21		;[Note] 34
    3521.  0E:91C7                      				;[Skip delay] 4
    3522.  0E:91C7  BF                  	db $BF		;[End-Of-Track]
    3523.  0E:91C8                      .track_101:
    3524.  0E:91C8  2B                  	db $2B		;[Note] 44
    3525.  0E:91C9  70                  	db $70		;[Instrument] 1
    3526.  0E:91CA  CF                  	db $CF		;[Wait] 16
    3527.  0E:91CB  2B                  	db $2B		;[Note] 44
    3528.  0E:91CC  C5                  	db $C5		;[Wait] 6
    3529.  0E:91CD  2F                  	db $2F		;[Note] 48
    3530.  0E:91CE                      				;[Skip delay] 6
    3531.  0E:91CE  32                  	db $32		;[Note] 51
    3532.  0E:91CF  C3                  	db $C3		;[Wait] 4
    3533.  0E:91D0  31                  	db $31		;[Note] 50
    3534.  0E:91D1  C5                  	db $C5		;[Wait] 6
    3535.  0E:91D2  32                  	db $32		;[Note] 51
    3536.  0E:91D3                      				;[Skip delay] 6
    3537.  0E:91D3  31                  	db $31		;[Note] 50
    3538.  0E:91D4  C3                  	db $C3		;[Wait] 4
    3539.  0E:91D5  2D                  	db $2D		;[Note] 46
    3540.  0E:91D6  C7                  	db $C7		;[Wait] 8
    3541.  0E:91D7  2D                  	db $2D		;[Note] 46
    3542.  0E:91D8  85                  	db $85		;[Instrument] 22
    3543.  0E:91D9                      				;[Skip delay] 8
    3544.  0E:91D9  BF                  	db $BF		;[End-Of-Track]
    3545.  0E:91DA                      .track_102:
    3546.  0E:91DA  37                  	db $37		;[Note] 56
    3547.  0E:91DB  C2                  	db $C2		;[Wait] 3
    3548.  0E:91DC  32                  	db $32		;[Note] 51
    3549.  0E:91DD                      				;[Skip delay] 3
    3550.  0E:91DD  2F                  	db $2F		;[Note] 48
    3551.  0E:91DE                      				;[Skip delay] 3
    3552.  0E:91DE  37                  	db $37		;[Note] 56
    3553.  0E:91DF                      				;[Skip delay] 3
    3554.  0E:91DF  32                  	db $32		;[Note] 51
    3555.  0E:91E0                      				;[Skip delay] 3
    3556.  0E:91E0  2F                  	db $2F		;[Note] 48
    3557.  0E:91E1                      				;[Skip delay] 3
    3558.  0E:91E1  37                  	db $37		;[Note] 56
    3559.  0E:91E2                      				;[Skip delay] 3
    3560.  0E:91E2  32                  	db $32		;[Note] 51
    3561.  0E:91E3                      				;[Skip delay] 3
    3562.  0E:91E3  2F                  	db $2F		;[Note] 48
    3563.  0E:91E4                      				;[Skip delay] 3
    3564.  0E:91E4  37                  	db $37		;[Note] 56
    3565.  0E:91E5                      				;[Skip delay] 3
    3566.  0E:91E5  32                  	db $32		;[Note] 51
    3567.  0E:91E6  C1                  	db $C1		;[Wait] 2
    3568.  0E:91E7  39                  	db $39		;[Note] 58
    3569.  0E:91E8  C2                  	db $C2		;[Wait] 3
    3570.  0E:91E9  34                  	db $34		;[Note] 53
    3571.  0E:91EA                      				;[Skip delay] 3
    3572.  0E:91EA  31                  	db $31		;[Note] 50
    3573.  0E:91EB                      				;[Skip delay] 3
    3574.  0E:91EB  39                  	db $39		;[Note] 58
    3575.  0E:91EC                      				;[Skip delay] 3
    3576.  0E:91EC  34                  	db $34		;[Note] 53
    3577.  0E:91ED                      				;[Skip delay] 3
    3578.  0E:91ED  31                  	db $31		;[Note] 50
    3579.  0E:91EE                      				;[Skip delay] 3
    3580.  0E:91EE  39                  	db $39		;[Note] 58
    3581.  0E:91EF                      				;[Skip delay] 3
    3582.  0E:91EF  34                  	db $34		;[Note] 53
    3583.  0E:91F0                      				;[Skip delay] 3
    3584.  0E:91F0  31                  	db $31		;[Note] 50
    3585.  0E:91F1                      				;[Skip delay] 3
    3586.  0E:91F1  39                  	db $39		;[Note] 58
    3587.  0E:91F2                      				;[Skip delay] 3
    3588.  0E:91F2  34                  	db $34		;[Note] 53
    3589.  0E:91F3  C0                  	db $C0		;[Wait] 1
    3590.  0E:91F4                      				;[Skip delay] 1
    3591.  0E:91F4  BF                  	db $BF		;[End-Of-Track]
    3592.  0E:91F5                      .track_103:
    3593.  0E:91F5  37                  	db $37		;[Note] 56
    3594.  0E:91F6  CF                  	db $CF		;[Wait] 16
    3595.  0E:91F7  34                  	db $34		;[Note] 53
    3596.  0E:91F8  C7                  	db $C7		;[Wait] 8
    3597.  0E:91F9  37                  	db $37		;[Note] 56
    3598.  0E:91FA                      				;[Skip delay] 8
    3599.  0E:91FA  39                  	db $39		;[Note] 58
    3600.  0E:91FB  CF                  	db $CF		;[Wait] 16
    3601.  0E:91FC  34                  	db $34		;[Note] 53
    3602.  0E:91FD  C7                  	db $C7		;[Wait] 8
    3603.  0E:91FE  39                  	db $39		;[Note] 58
    3604.  0E:91FF                      				;[Skip delay] 8
    3605.  0E:91FF  BF                  	db $BF		;[End-Of-Track]
    3606.  0E:9200                      .track_104:
    3607.  0E:9200  2B                  	db $2B		;[Note] 44
    3608.  0E:9201  CF                  	db $CF		;[Wait] 16
    3609.  0E:9202  2B                  	db $2B		;[Note] 44
    3610.  0E:9203  C5                  	db $C5		;[Wait] 6
    3611.  0E:9204  2F                  	db $2F		;[Note] 48
    3612.  0E:9205                      				;[Skip delay] 6
    3613.  0E:9205  32                  	db $32		;[Note] 51
    3614.  0E:9206  C3                  	db $C3		;[Wait] 4
    3615.  0E:9207  31                  	db $31		;[Note] 50
    3616.  0E:9208  C5                  	db $C5		;[Wait] 6
    3617.  0E:9209  32                  	db $32		;[Note] 51
    3618.  0E:920A                      				;[Skip delay] 6
    3619.  0E:920A  31                  	db $31		;[Note] 50
    3620.  0E:920B  C3                  	db $C3		;[Wait] 4
    3621.  0E:920C  2D                  	db $2D		;[Note] 46
    3622.  0E:920D  C7                  	db $C7		;[Wait] 8
    3623.  0E:920E  2A                  	db $2A		;[Note] 43
    3624.  0E:920F                      				;[Skip delay] 8
    3625.  0E:920F  BF                  	db $BF		;[End-Of-Track]
    3626.  0E:9210                      .track_105:
    3627.  0E:9210  C2                  	db $C2		;[Wait] 3
    3628.  0E:9211  2B                  	db $2B		;[Note] 44
    3629.  0E:9212  CF                  	db $CF		;[Wait] 16
    3630.  0E:9213  2B                  	db $2B		;[Note] 44
    3631.  0E:9214  C5                  	db $C5		;[Wait] 6
    3632.  0E:9215  2F                  	db $2F		;[Note] 48
    3633.  0E:9216                      				;[Skip delay] 6
    3634.  0E:9216  32                  	db $32		;[Note] 51
    3635.  0E:9217  C3                  	db $C3		;[Wait] 4
    3636.  0E:9218  31                  	db $31		;[Note] 50
    3637.  0E:9219  C5                  	db $C5		;[Wait] 6
    3638.  0E:921A  32                  	db $32		;[Note] 51
    3639.  0E:921B                      				;[Skip delay] 6
    3640.  0E:921B  31                  	db $31		;[Note] 50
    3641.  0E:921C  C3                  	db $C3		;[Wait] 4
    3642.  0E:921D  2D                  	db $2D		;[Note] 46
    3643.  0E:921E  C7                  	db $C7		;[Wait] 8
    3644.  0E:921F  2A                  	db $2A		;[Note] 43
    3645.  0E:9220  C4                  	db $C4		;[Wait] 5
    3646.  0E:9221  BF                  	db $BF		;[End-Of-Track]
    3647.  0E:9222                      .track_106:
    3648.  0E:9222  34                  	db $34		;[Note] 53
    3649.  0E:9223  6F                  	db $6F		;[Volume] 15
    3650.  0E:9224  84                  	db $84		;[Instrument] 21
    3651.  0E:9225  C5                  	db $C5		;[Wait] 6
    3652.  0E:9226  2F                  	db $2F		;[Note] 48
    3653.  0E:9227  83                  	db $83		;[Instrument] 20
    3654.  0E:9228  C1                  	db $C1		;[Wait] 2
    3655.  0E:9229  23                  	db $23		;[Note] 36
    3656.  0E:922A  81                  	db $81		;[Instrument] 18
    3657.  0E:922B  C2                  	db $C2		;[Wait] 3
    3658.  0E:922C  23                  	db $23		;[Note] 36
    3659.  0E:922D  67                  	db $67		;[Volume] 7
    3660.  0E:922E  C0                  	db $C0		;[Wait] 1
    3661.  0E:922F  2F                  	db $2F		;[Note] 48
    3662.  0E:9230  6F                  	db $6F		;[Volume] 15
    3663.  0E:9231  83                  	db $83		;[Instrument] 20
    3664.  0E:9232  C3                  	db $C3		;[Wait] 4
    3665.  0E:9233  2F                  	db $2F		;[Note] 48
    3666.  0E:9234                      				;[Skip delay] 4
    3667.  0E:9234  2F                  	db $2F		;[Note] 48
    3668.  0E:9235                      				;[Skip delay] 4
    3669.  0E:9235  23                  	db $23		;[Note] 36
    3670.  0E:9236  81                  	db $81		;[Instrument] 18
    3671.  0E:9237  C2                  	db $C2		;[Wait] 3
    3672.  0E:9238  23                  	db $23		;[Note] 36
    3673.  0E:9239  67                  	db $67		;[Volume] 7
    3674.  0E:923A  C4                  	db $C4		;[Wait] 5
    3675.  0E:923B  34                  	db $34		;[Note] 53
    3676.  0E:923C  6F                  	db $6F		;[Volume] 15
    3677.  0E:923D  83                  	db $83		;[Instrument] 20
    3678.  0E:923E  C5                  	db $C5		;[Wait] 6
    3679.  0E:923F  2F                  	db $2F		;[Note] 48
    3680.  0E:9240  C1                  	db $C1		;[Wait] 2
    3681.  0E:9241  23                  	db $23		;[Note] 36
    3682.  0E:9242  81                  	db $81		;[Instrument] 18
    3683.  0E:9243  C2                  	db $C2		;[Wait] 3
    3684.  0E:9244  23                  	db $23		;[Note] 36
    3685.  0E:9245  67                  	db $67		;[Volume] 7
    3686.  0E:9246  C0                  	db $C0		;[Wait] 1
    3687.  0E:9247  2F                  	db $2F		;[Note] 48
    3688.  0E:9248  6F                  	db $6F		;[Volume] 15
    3689.  0E:9249  83                  	db $83		;[Instrument] 20
    3690.  0E:924A  C3                  	db $C3		;[Wait] 4
    3691.  0E:924B  2F                  	db $2F		;[Note] 48
    3692.  0E:924C                      				;[Skip delay] 4
    3693.  0E:924C  2F                  	db $2F		;[Note] 48
    3694.  0E:924D                      				;[Skip delay] 4
    3695.  0E:924D  2A                  	db $2A		;[Note] 43
    3696.  0E:924E  82                  	db $82		;[Instrument] 19
    3697.  0E:924F  C1                  	db $C1		;[Wait] 2
    3698.  0E:9250  2A                  	db $2A		;[Note] 43
    3699.  0E:9251                      				;[Skip delay] 2
    3700.  0E:9251  22                  	db $22		;[Note] 35
    3701.  0E:9252                      				;[Skip delay] 2
    3702.  0E:9252  1E                  	db $1E		;[Note] 31
    3703.  0E:9253                      				;[Skip delay] 2
    3704.  0E:9253  BF                  	db $BF		;[End-Of-Track]
    3705.  0E:9254                      .track_107:
    3706.  0E:9254  17                  	db $17		;[Note] 24
    3707.  0E:9255  7F                  	db $7F		;[Instrument] 16
    3708.  0E:9256  C5                  	db $C5		;[Wait] 6
    3709.  0E:9257  17                  	db $17		;[Note] 24
    3710.  0E:9258  C1                  	db $C1		;[Wait] 2
    3711.  0E:9259  23                  	db $23		;[Note] 36
    3712.  0E:925A  7D                  	db $7D		;[Instrument] 14
    3713.  0E:925B  C3                  	db $C3		;[Wait] 4
    3714.  0E:925C  17                  	db $17		;[Note] 24
    3715.  0E:925D  7F                  	db $7F		;[Instrument] 16
    3716.  0E:925E                      				;[Skip delay] 4
    3717.  0E:925E  23                  	db $23		;[Note] 36
    3718.  0E:925F                      				;[Skip delay] 4
    3719.  0E:925F  21                  	db $21		;[Note] 34
    3720.  0E:9260                      				;[Skip delay] 4
    3721.  0E:9260  1E                  	db $1E		;[Note] 31
    3722.  0E:9261  7D                  	db $7D		;[Instrument] 14
    3723.  0E:9262                      				;[Skip delay] 4
    3724.  0E:9262  23                  	db $23		;[Note] 36
    3725.  0E:9263                      				;[Skip delay] 4
    3726.  0E:9263  15                  	db $15		;[Note] 22
    3727.  0E:9264  7F                  	db $7F		;[Instrument] 16
    3728.  0E:9265  C5                  	db $C5		;[Wait] 6
    3729.  0E:9266  15                  	db $15		;[Note] 22
    3730.  0E:9267  C1                  	db $C1		;[Wait] 2
    3731.  0E:9268  21                  	db $21		;[Note] 34
    3732.  0E:9269  7D                  	db $7D		;[Instrument] 14
    3733.  0E:926A  C3                  	db $C3		;[Wait] 4
    3734.  0E:926B  15                  	db $15		;[Note] 22
    3735.  0E:926C  7F                  	db $7F		;[Instrument] 16
    3736.  0E:926D                      				;[Skip delay] 4
    3737.  0E:926D  21                  	db $21		;[Note] 34
    3738.  0E:926E                      				;[Skip delay] 4
    3739.  0E:926E  23                  	db $23		;[Note] 36
    3740.  0E:926F                      				;[Skip delay] 4
    3741.  0E:926F  25                  	db $25		;[Note] 38
    3742.  0E:9270  7D                  	db $7D		;[Instrument] 14
    3743.  0E:9271                      				;[Skip delay] 4
    3744.  0E:9271  21                  	db $21		;[Note] 34
    3745.  0E:9272                      				;[Skip delay] 4
    3746.  0E:9272  BF                  	db $BF		;[End-Of-Track]
    3747.  0E:9273                      .track_108:
    3748.  0E:9273  2F                  	db $2F		;[Note] 48
    3749.  0E:9274  70                  	db $70		;[Instrument] 1
    3750.  0E:9275  CB                  	db $CB		;[Wait] 12
    3751.  0E:9276  2A                  	db $2A		;[Note] 43
    3752.  0E:9277  C1                  	db $C1		;[Wait] 2
    3753.  0E:9278  2D                  	db $2D		;[Note] 46
    3754.  0E:9279                      				;[Skip delay] 2
    3755.  0E:9279  2F                  	db $2F		;[Note] 48
    3756.  0E:927A  C7                  	db $C7		;[Wait] 8
    3757.  0E:927B  36                  	db $36		;[Note] 55
    3758.  0E:927C                      				;[Skip delay] 8
    3759.  0E:927C  34                  	db $34		;[Note] 53
    3760.  0E:927D  CB                  	db $CB		;[Wait] 12
    3761.  0E:927E  32                  	db $32		;[Note] 51
    3762.  0E:927F  C1                  	db $C1		;[Wait] 2
    3763.  0E:9280  34                  	db $34		;[Note] 53
    3764.  0E:9281                      				;[Skip delay] 2
    3765.  0E:9281  31                  	db $31		;[Note] 50
    3766.  0E:9282  C7                  	db $C7		;[Wait] 8
    3767.  0E:9283  2D                  	db $2D		;[Note] 46
    3768.  0E:9284  85                  	db $85		;[Instrument] 22
    3769.  0E:9285                      				;[Skip delay] 8
    3770.  0E:9285  BF                  	db $BF		;[End-Of-Track]
    3771.  0E:9286                      .track_109:
    3772.  0E:9286  3B                  	db $3B		;[Note] 60
    3773.  0E:9287  C2                  	db $C2		;[Wait] 3
    3774.  0E:9288  36                  	db $36		;[Note] 55
    3775.  0E:9289                      				;[Skip delay] 3
    3776.  0E:9289  32                  	db $32		;[Note] 51
    3777.  0E:928A                      				;[Skip delay] 3
    3778.  0E:928A  3B                  	db $3B		;[Note] 60
    3779.  0E:928B                      				;[Skip delay] 3
    3780.  0E:928B  36                  	db $36		;[Note] 55
    3781.  0E:928C                      				;[Skip delay] 3
    3782.  0E:928C  32                  	db $32		;[Note] 51
    3783.  0E:928D                      				;[Skip delay] 3
    3784.  0E:928D  3B                  	db $3B		;[Note] 60
    3785.  0E:928E                      				;[Skip delay] 3
    3786.  0E:928E  36                  	db $36		;[Note] 55
    3787.  0E:928F                      				;[Skip delay] 3
    3788.  0E:928F  32                  	db $32		;[Note] 51
    3789.  0E:9290                      				;[Skip delay] 3
    3790.  0E:9290  3B                  	db $3B		;[Note] 60
    3791.  0E:9291                      				;[Skip delay] 3
    3792.  0E:9291  36                  	db $36		;[Note] 55
    3793.  0E:9292  C1                  	db $C1		;[Wait] 2
    3794.  0E:9293  39                  	db $39		;[Note] 58
    3795.  0E:9294  C2                  	db $C2		;[Wait] 3
    3796.  0E:9295  34                  	db $34		;[Note] 53
    3797.  0E:9296                      				;[Skip delay] 3
    3798.  0E:9296  31                  	db $31		;[Note] 50
    3799.  0E:9297                      				;[Skip delay] 3
    3800.  0E:9297  39                  	db $39		;[Note] 58
    3801.  0E:9298                      				;[Skip delay] 3
    3802.  0E:9298  34                  	db $34		;[Note] 53
    3803.  0E:9299                      				;[Skip delay] 3
    3804.  0E:9299  31                  	db $31		;[Note] 50
    3805.  0E:929A                      				;[Skip delay] 3
    3806.  0E:929A  39                  	db $39		;[Note] 58
    3807.  0E:929B                      				;[Skip delay] 3
    3808.  0E:929B  34                  	db $34		;[Note] 53
    3809.  0E:929C                      				;[Skip delay] 3
    3810.  0E:929C  31                  	db $31		;[Note] 50
    3811.  0E:929D                      				;[Skip delay] 3
    3812.  0E:929D  39                  	db $39		;[Note] 58
    3813.  0E:929E                      				;[Skip delay] 3
    3814.  0E:929E  34                  	db $34		;[Note] 53
    3815.  0E:929F  C0                  	db $C0		;[Wait] 1
    3816.  0E:92A0                      				;[Skip delay] 1
    3817.  0E:92A0  BF                  	db $BF		;[End-Of-Track]
    3818.  0E:92A1                      .track_110:
    3819.  0E:92A1  3B                  	db $3B		;[Note] 60
    3820.  0E:92A2  CF                  	db $CF		;[Wait] 16
    3821.  0E:92A3  36                  	db $36		;[Note] 55
    3822.  0E:92A4  C7                  	db $C7		;[Wait] 8
    3823.  0E:92A5  42                  	db $42		;[Note] 67
    3824.  0E:92A6                      				;[Skip delay] 8
    3825.  0E:92A6  40                  	db $40		;[Note] 65
    3826.  0E:92A7  CF                  	db $CF		;[Wait] 16
    3827.  0E:92A8  3D                  	db $3D		;[Note] 62
    3828.  0E:92A9                      				;[Skip delay] 16
    3829.  0E:92A9  BF                  	db $BF		;[End-Of-Track]
    3830.  0E:92AA                      .track_111:
    3831.  0E:92AA  0B                  	db $0B		;[Note] 12
    3832.  0E:92AB  C5                  	db $C5		;[Wait] 6
    3833.  0E:92AC  0B                  	db $0B		;[Note] 12
    3834.  0E:92AD  C1                  	db $C1		;[Wait] 2
    3835.  0E:92AE  17                  	db $17		;[Note] 24
    3836.  0E:92AF  C3                  	db $C3		;[Wait] 4
    3837.  0E:92B0  0B                  	db $0B		;[Note] 12
    3838.  0E:92B1                      				;[Skip delay] 4
    3839.  0E:92B1  17                  	db $17		;[Note] 24
    3840.  0E:92B2                      				;[Skip delay] 4
    3841.  0E:92B2  15                  	db $15		;[Note] 22
    3842.  0E:92B3                      				;[Skip delay] 4
    3843.  0E:92B3  12                  	db $12		;[Note] 19
    3844.  0E:92B4                      				;[Skip delay] 4
    3845.  0E:92B4  17                  	db $17		;[Note] 24
    3846.  0E:92B5                      				;[Skip delay] 4
    3847.  0E:92B5  09                  	db $09		;[Note] 10
    3848.  0E:92B6  C5                  	db $C5		;[Wait] 6
    3849.  0E:92B7  09                  	db $09		;[Note] 10
    3850.  0E:92B8  C1                  	db $C1		;[Wait] 2
    3851.  0E:92B9  15                  	db $15		;[Note] 22
    3852.  0E:92BA  C3                  	db $C3		;[Wait] 4
    3853.  0E:92BB  09                  	db $09		;[Note] 10
    3854.  0E:92BC                      				;[Skip delay] 4
    3855.  0E:92BC  15                  	db $15		;[Note] 22
    3856.  0E:92BD                      				;[Skip delay] 4
    3857.  0E:92BD  17                  	db $17		;[Note] 24
    3858.  0E:92BE                      				;[Skip delay] 4
    3859.  0E:92BE  19                  	db $19		;[Note] 26
    3860.  0E:92BF                      				;[Skip delay] 4
    3861.  0E:92BF  15                  	db $15		;[Note] 22
    3862.  0E:92C0                      				;[Skip delay] 4
    3863.  0E:92C0  BF                  	db $BF		;[End-Of-Track]
    3864.  0E:92C1                      .track_112:
    3865.  0E:92C1  2F                  	db $2F		;[Note] 48
    3866.  0E:92C2  CB                  	db $CB		;[Wait] 12
    3867.  0E:92C3  2A                  	db $2A		;[Note] 43
    3868.  0E:92C4  C1                  	db $C1		;[Wait] 2
    3869.  0E:92C5  2D                  	db $2D		;[Note] 46
    3870.  0E:92C6                      				;[Skip delay] 2
    3871.  0E:92C6  2F                  	db $2F		;[Note] 48
    3872.  0E:92C7  C7                  	db $C7		;[Wait] 8
    3873.  0E:92C8  36                  	db $36		;[Note] 55
    3874.  0E:92C9                      				;[Skip delay] 8
    3875.  0E:92C9  34                  	db $34		;[Note] 53
    3876.  0E:92CA  CB                  	db $CB		;[Wait] 12
    3877.  0E:92CB  32                  	db $32		;[Note] 51
    3878.  0E:92CC  C1                  	db $C1		;[Wait] 2
    3879.  0E:92CD  34                  	db $34		;[Note] 53
    3880.  0E:92CE                      				;[Skip delay] 2
    3881.  0E:92CE  31                  	db $31		;[Note] 50
    3882.  0E:92CF  CF                  	db $CF		;[Wait] 16
    3883.  0E:92D0  BF                  	db $BF		;[End-Of-Track]
    3884.  0E:92D1                      .track_113:
    3885.  0E:92D1  C2                  	db $C2		;[Wait] 3
    3886.  0E:92D2  2F                  	db $2F		;[Note] 48
    3887.  0E:92D3  CB                  	db $CB		;[Wait] 12
    3888.  0E:92D4  2A                  	db $2A		;[Note] 43
    3889.  0E:92D5  C1                  	db $C1		;[Wait] 2
    3890.  0E:92D6  2D                  	db $2D		;[Note] 46
    3891.  0E:92D7                      				;[Skip delay] 2
    3892.  0E:92D7  2F                  	db $2F		;[Note] 48
    3893.  0E:92D8  C7                  	db $C7		;[Wait] 8
    3894.  0E:92D9  36                  	db $36		;[Note] 55
    3895.  0E:92DA                      				;[Skip delay] 8
    3896.  0E:92DA  34                  	db $34		;[Note] 53
    3897.  0E:92DB  CB                  	db $CB		;[Wait] 12
    3898.  0E:92DC  32                  	db $32		;[Note] 51
    3899.  0E:92DD  C1                  	db $C1		;[Wait] 2
    3900.  0E:92DE  34                  	db $34		;[Note] 53
    3901.  0E:92DF                      				;[Skip delay] 2
    3902.  0E:92DF  31                  	db $31		;[Note] 50
    3903.  0E:92E0  C0                  	db $C0		;[Wait] 1
    3904.  0E:92E1  36                  	db $36		;[Note] 55
    3905.  0E:92E2  6C                  	db $6C		;[Volume] 12
    3906.  0E:92E3  9E 00               	db $9E, $00	; short arp
    3907.  0E:92E5  C3                  	db $C3		;[Wait] 4
    3908.  0E:92E6  34                  	db $34		;[Note] 53
    3909.  0E:92E7                      				;[Skip delay] 4
    3910.  0E:92E7  32                  	db $32		;[Note] 51
    3911.  0E:92E8                      				;[Skip delay] 4
    3912.  0E:92E8  BF                  	db $BF		;[End-Of-Track]
    3913.  0E:92E9                      .track_114:
    3914.  0E:92E9  2F                  	db $2F		;[Note] 48
    3915.  0E:92EA  6F                  	db $6F		;[Volume] 15
    3916.  0E:92EB  83                  	db $83		;[Instrument] 20
    3917.  0E:92EC  C5                  	db $C5		;[Wait] 6
    3918.  0E:92ED  2F                  	db $2F		;[Note] 48
    3919.  0E:92EE                      				;[Skip delay] 6
    3920.  0E:92EE  23                  	db $23		;[Note] 36
    3921.  0E:92EF  81                  	db $81		;[Instrument] 18
    3922.  0E:92F0  C2                  	db $C2		;[Wait] 3
    3923.  0E:92F1  23                  	db $23		;[Note] 36
    3924.  0E:92F2  67                  	db $67		;[Volume] 7
    3925.  0E:92F3  C0                  	db $C0		;[Wait] 1
    3926.  0E:92F4  2F                  	db $2F		;[Note] 48
    3927.  0E:92F5  6F                  	db $6F		;[Volume] 15
    3928.  0E:92F6  83                  	db $83		;[Instrument] 20
    3929.  0E:92F7  C5                  	db $C5		;[Wait] 6
    3930.  0E:92F8  2F                  	db $2F		;[Note] 48
    3931.  0E:92F9                      				;[Skip delay] 6
    3932.  0E:92F9  23                  	db $23		;[Note] 36
    3933.  0E:92FA  81                  	db $81		;[Instrument] 18
    3934.  0E:92FB  C2                  	db $C2		;[Wait] 3
    3935.  0E:92FC  23                  	db $23		;[Note] 36
    3936.  0E:92FD  67                  	db $67		;[Volume] 7
    3937.  0E:92FE  C0                  	db $C0		;[Wait] 1
    3938.  0E:92FF  2F                  	db $2F		;[Note] 48
    3939.  0E:9300  6F                  	db $6F		;[Volume] 15
    3940.  0E:9301  83                  	db $83		;[Instrument] 20
    3941.  0E:9302  C5                  	db $C5		;[Wait] 6
    3942.  0E:9303  2F                  	db $2F		;[Note] 48
    3943.  0E:9304  C1                  	db $C1		;[Wait] 2
    3944.  0E:9305  23                  	db $23		;[Note] 36
    3945.  0E:9306  81                  	db $81		;[Instrument] 18
    3946.  0E:9307  C2                  	db $C2		;[Wait] 3
    3947.  0E:9308  23                  	db $23		;[Note] 36
    3948.  0E:9309  67                  	db $67		;[Volume] 7
    3949.  0E:930A  C4                  	db $C4		;[Wait] 5
    3950.  0E:930B  2F                  	db $2F		;[Note] 48
    3951.  0E:930C  6F                  	db $6F		;[Volume] 15
    3952.  0E:930D  83                  	db $83		;[Instrument] 20
    3953.  0E:930E  C5                  	db $C5		;[Wait] 6
    3954.  0E:930F  2F                  	db $2F		;[Note] 48
    3955.  0E:9310  C1                  	db $C1		;[Wait] 2
    3956.  0E:9311  23                  	db $23		;[Note] 36
    3957.  0E:9312  81                  	db $81		;[Instrument] 18
    3958.  0E:9313  C2                  	db $C2		;[Wait] 3
    3959.  0E:9314  23                  	db $23		;[Note] 36
    3960.  0E:9315  67                  	db $67		;[Volume] 7
    3961.  0E:9316  C4                  	db $C4		;[Wait] 5
    3962.  0E:9317  BF                  	db $BF		;[End-Of-Track]
    3963.  0E:9318                      .track_115:
    3964.  0E:9318  13                  	db $13		;[Note] 20
    3965.  0E:9319  7F                  	db $7F		;[Instrument] 16
    3966.  0E:931A  C5                  	db $C5		;[Wait] 6
    3967.  0E:931B  13                  	db $13		;[Note] 20
    3968.  0E:931C                      				;[Skip delay] 6
    3969.  0E:931C  13                  	db $13		;[Note] 20
    3970.  0E:931D  7D                  	db $7D		;[Instrument] 14
    3971.  0E:931E  C3                  	db $C3		;[Wait] 4
    3972.  0E:931F  15                  	db $15		;[Note] 22
    3973.  0E:9320  7F                  	db $7F		;[Instrument] 16
    3974.  0E:9321  C5                  	db $C5		;[Wait] 6
    3975.  0E:9322  12                  	db $12		;[Note] 19
    3976.  0E:9323                      				;[Skip delay] 6
    3977.  0E:9323  15                  	db $15		;[Note] 22
    3978.  0E:9324  7D                  	db $7D		;[Instrument] 14
    3979.  0E:9325  C3                  	db $C3		;[Wait] 4
    3980.  0E:9326  17                  	db $17		;[Note] 24
    3981.  0E:9327  7F                  	db $7F		;[Instrument] 16
    3982.  0E:9328  C5                  	db $C5		;[Wait] 6
    3983.  0E:9329  17                  	db $17		;[Note] 24
    3984.  0E:932A  C1                  	db $C1		;[Wait] 2
    3985.  0E:932B  23                  	db $23		;[Note] 36
    3986.  0E:932C  7D                  	db $7D		;[Instrument] 14
    3987.  0E:932D  C3                  	db $C3		;[Wait] 4
    3988.  0E:932E  17                  	db $17		;[Note] 24
    3989.  0E:932F  7F                  	db $7F		;[Instrument] 16
    3990.  0E:9330                      				;[Skip delay] 4
    3991.  0E:9330  17                  	db $17		;[Note] 24
    3992.  0E:9331  C5                  	db $C5		;[Wait] 6
    3993.  0E:9332  17                  	db $17		;[Note] 24
    3994.  0E:9333  C1                  	db $C1		;[Wait] 2
    3995.  0E:9334  23                  	db $23		;[Note] 36
    3996.  0E:9335  7D                  	db $7D		;[Instrument] 14
    3997.  0E:9336  C3                  	db $C3		;[Wait] 4
    3998.  0E:9337  17                  	db $17		;[Note] 24
    3999.  0E:9338  7F                  	db $7F		;[Instrument] 16
    4000.  0E:9339                      				;[Skip delay] 4
    4001.  0E:9339  BF                  	db $BF		;[End-Of-Track]
    4002.  0E:933A                      .track_116:
    4003.  0E:933A  2B                  	db $2B		;[Note] 44
    4004.  0E:933B  70                  	db $70		;[Instrument] 1
    4005.  0E:933C  C5                  	db $C5		;[Wait] 6
    4006.  0E:933D  36                  	db $36		;[Note] 55
    4007.  0E:933E                      				;[Skip delay] 6
    4008.  0E:933E  34                  	db $34		;[Note] 53
    4009.  0E:933F  C3                  	db $C3		;[Wait] 4
    4010.  0E:9340  32                  	db $32		;[Note] 51
    4011.  0E:9341  C5                  	db $C5		;[Wait] 6
    4012.  0E:9342  31                  	db $31		;[Note] 50
    4013.  0E:9343                      				;[Skip delay] 6
    4014.  0E:9343  2D                  	db $2D		;[Note] 46
    4015.  0E:9344  85                  	db $85		;[Instrument] 22
    4016.  0E:9345  C3                  	db $C3		;[Wait] 4
    4017.  0E:9346  2F                  	db $2F		;[Note] 48
    4018.  0E:9347  70                  	db $70		;[Instrument] 1
    4019.  0E:9348  DF                  	db $DF		;[Wait] 32
    4020.  0E:9349  BF                  	db $BF		;[End-Of-Track]
    4021.  0E:934A                      .track_117:
    4022.  0E:934A  37                  	db $37		;[Note] 56
    4023.  0E:934B  C2                  	db $C2		;[Wait] 3
    4024.  0E:934C  3B                  	db $3B		;[Note] 60
    4025.  0E:934D                      				;[Skip delay] 3
    4026.  0E:934D  3E                  	db $3E		;[Note] 63
    4027.  0E:934E                      				;[Skip delay] 3
    4028.  0E:934E  3D                  	db $3D		;[Note] 62
    4029.  0E:934F                      				;[Skip delay] 3
    4030.  0E:934F  3E                  	db $3E		;[Note] 63
    4031.  0E:9350                      				;[Skip delay] 3
    4032.  0E:9350  40                  	db $40		;[Note] 65
    4033.  0E:9351                      				;[Skip delay] 3
    4034.  0E:9351  42                  	db $42		;[Note] 67
    4035.  0E:9352                      				;[Skip delay] 3
    4036.  0E:9352  40                  	db $40		;[Note] 65
    4037.  0E:9353                      				;[Skip delay] 3
    4038.  0E:9353  3E                  	db $3E		;[Note] 63
    4039.  0E:9354                      				;[Skip delay] 3
    4040.  0E:9354  40                  	db $40		;[Note] 65
    4041.  0E:9355                      				;[Skip delay] 3
    4042.  0E:9355  3E                  	db $3E		;[Note] 63
    4043.  0E:9356  C1                  	db $C1		;[Wait] 2
    4044.  0E:9357  3B                  	db $3B		;[Note] 60
    4045.  0E:9358  C2                  	db $C2		;[Wait] 3
    4046.  0E:9359  36                  	db $36		;[Note] 55
    4047.  0E:935A                      				;[Skip delay] 3
    4048.  0E:935A  32                  	db $32		;[Note] 51
    4049.  0E:935B                      				;[Skip delay] 3
    4050.  0E:935B  2F                  	db $2F		;[Note] 48
    4051.  0E:935C                      				;[Skip delay] 3
    4052.  0E:935C  32                  	db $32		;[Note] 51
    4053.  0E:935D                      				;[Skip delay] 3
    4054.  0E:935D  36                  	db $36		;[Note] 55
    4055.  0E:935E                      				;[Skip delay] 3
    4056.  0E:935E  3B                  	db $3B		;[Note] 60
    4057.  0E:935F                      				;[Skip delay] 3
    4058.  0E:935F  36                  	db $36		;[Note] 55
    4059.  0E:9360                      				;[Skip delay] 3
    4060.  0E:9360  32                  	db $32		;[Note] 51
    4061.  0E:9361                      				;[Skip delay] 3
    4062.  0E:9361  2F                  	db $2F		;[Note] 48
    4063.  0E:9362                      				;[Skip delay] 3
    4064.  0E:9362  32                  	db $32		;[Note] 51
    4065.  0E:9363  C0                  	db $C0		;[Wait] 1
    4066.  0E:9364                      				;[Skip delay] 1
    4067.  0E:9364  BF                  	db $BF		;[End-Of-Track]
    4068.  0E:9365                      .track_118:
    4069.  0E:9365  37                  	db $37		;[Note] 56
    4070.  0E:9366  C5                  	db $C5		;[Wait] 6
    4071.  0E:9367  42                  	db $42		;[Note] 67
    4072.  0E:9368                      				;[Skip delay] 6
    4073.  0E:9368  40                  	db $40		;[Note] 65
    4074.  0E:9369  C3                  	db $C3		;[Wait] 4
    4075.  0E:936A  3E                  	db $3E		;[Note] 63
    4076.  0E:936B  C5                  	db $C5		;[Wait] 6
    4077.  0E:936C  3D                  	db $3D		;[Note] 62
    4078.  0E:936D                      				;[Skip delay] 6
    4079.  0E:936D  40                  	db $40		;[Note] 65
    4080.  0E:936E  C3                  	db $C3		;[Wait] 4
    4081.  0E:936F  3B                  	db $3B		;[Note] 60
    4082.  0E:9370  DF                  	db $DF		;[Wait] 32
    4083.  0E:9371  BF                  	db $BF		;[End-Of-Track]
    4084.  0E:9372                      .track_119:
    4085.  0E:9372  07                  	db $07		;[Note] 8
    4086.  0E:9373  C5                  	db $C5		;[Wait] 6
    4087.  0E:9374  07                  	db $07		;[Note] 8
    4088.  0E:9375                      				;[Skip delay] 6
    4089.  0E:9375  07                  	db $07		;[Note] 8
    4090.  0E:9376  C3                  	db $C3		;[Wait] 4
    4091.  0E:9377  09                  	db $09		;[Note] 10
    4092.  0E:9378  C5                  	db $C5		;[Wait] 6
    4093.  0E:9379  06                  	db $06		;[Note] 7
    4094.  0E:937A                      				;[Skip delay] 6
    4095.  0E:937A  09                  	db $09		;[Note] 10
    4096.  0E:937B  C3                  	db $C3		;[Wait] 4
    4097.  0E:937C  0B                  	db $0B		;[Note] 12
    4098.  0E:937D  C5                  	db $C5		;[Wait] 6
    4099.  0E:937E  0B                  	db $0B		;[Note] 12
    4100.  0E:937F  C1                  	db $C1		;[Wait] 2
    4101.  0E:9380  17                  	db $17		;[Note] 24
    4102.  0E:9381  C3                  	db $C3		;[Wait] 4
    4103.  0E:9382  0B                  	db $0B		;[Note] 12
    4104.  0E:9383                      				;[Skip delay] 4
    4105.  0E:9383  0B                  	db $0B		;[Note] 12
    4106.  0E:9384  C5                  	db $C5		;[Wait] 6
    4107.  0E:9385  0B                  	db $0B		;[Note] 12
    4108.  0E:9386  C1                  	db $C1		;[Wait] 2
    4109.  0E:9387  17                  	db $17		;[Note] 24
    4110.  0E:9388  C3                  	db $C3		;[Wait] 4
    4111.  0E:9389  0B                  	db $0B		;[Note] 12
    4112.  0E:938A                      				;[Skip delay] 4
    4113.  0E:938A  BF                  	db $BF		;[End-Of-Track]
    4114.  0E:938B                      .track_120:
    4115.  0E:938B  2B                  	db $2B		;[Note] 44
    4116.  0E:938C  C5                  	db $C5		;[Wait] 6
    4117.  0E:938D  36                  	db $36		;[Note] 55
    4118.  0E:938E                      				;[Skip delay] 6
    4119.  0E:938E  34                  	db $34		;[Note] 53
    4120.  0E:938F  C3                  	db $C3		;[Wait] 4
    4121.  0E:9390  32                  	db $32		;[Note] 51
    4122.  0E:9391  C5                  	db $C5		;[Wait] 6
    4123.  0E:9392  31                  	db $31		;[Note] 50
    4124.  0E:9393                      				;[Skip delay] 6
    4125.  0E:9393  34                  	db $34		;[Note] 53
    4126.  0E:9394  C3                  	db $C3		;[Wait] 4
    4127.  0E:9395  2F                  	db $2F		;[Note] 48
    4128.  0E:9396  DF                  	db $DF		;[Wait] 32
    4129.  0E:9397  BF                  	db $BF		;[End-Of-Track]
    4130.  0E:9398                      .track_121:
    4131.  0E:9398  26                  	db $26		;[Note] 39
    4132.  0E:9399  6F                  	db $6F		;[Volume] 15
    4133.  0E:939A  9E 00               	db $9E, $00	; short arp
    4134.  0E:939C  C5                  	db $C5		;[Wait] 6
    4135.  0E:939D  32                  	db $32		;[Note] 51
    4136.  0E:939E                      				;[Skip delay] 6
    4137.  0E:939E  31                  	db $31		;[Note] 50
    4138.  0E:939F  C3                  	db $C3		;[Wait] 4
    4139.  0E:93A0  2F                  	db $2F		;[Note] 48
    4140.  0E:93A1  C5                  	db $C5		;[Wait] 6
    4141.  0E:93A2  2D                  	db $2D		;[Note] 46
    4142.  0E:93A3                      				;[Skip delay] 6
    4143.  0E:93A3  31                  	db $31		;[Note] 50
    4144.  0E:93A4  C3                  	db $C3		;[Wait] 4
    4145.  0E:93A5  2A                  	db $2A		;[Note] 43
    4146.  0E:93A6  DF                  	db $DF		;[Wait] 32
    4147.  0E:93A7  BF                  	db $BF		;[End-Of-Track]
    4148.  0E:93A8                      .track_122:
    4149.  0E:93A8  2F                  	db $2F		;[Note] 48
    4150.  0E:93A9  6F                  	db $6F		;[Volume] 15
    4151.  0E:93AA  83                  	db $83		;[Instrument] 20
    4152.  0E:93AB  C5                  	db $C5		;[Wait] 6
    4153.  0E:93AC  2F                  	db $2F		;[Note] 48
    4154.  0E:93AD  C1                  	db $C1		;[Wait] 2
    4155.  0E:93AE  23                  	db $23		;[Note] 36
    4156.  0E:93AF  81                  	db $81		;[Instrument] 18
    4157.  0E:93B0  C2                  	db $C2		;[Wait] 3
    4158.  0E:93B1  23                  	db $23		;[Note] 36
    4159.  0E:93B2  67                  	db $67		;[Volume] 7
    4160.  0E:93B3  C0                  	db $C0		;[Wait] 1
    4161.  0E:93B4  2F                  	db $2F		;[Note] 48
    4162.  0E:93B5  6F                  	db $6F		;[Volume] 15
    4163.  0E:93B6  83                  	db $83		;[Instrument] 20
    4164.  0E:93B7  C3                  	db $C3		;[Wait] 4
    4165.  0E:93B8  2A                  	db $2A		;[Note] 43
    4166.  0E:93B9  82                  	db $82		;[Instrument] 19
    4167.  0E:93BA  C1                  	db $C1		;[Wait] 2
    4168.  0E:93BB  2A                  	db $2A		;[Note] 43
    4169.  0E:93BC                      				;[Skip delay] 2
    4170.  0E:93BC  22                  	db $22		;[Note] 35
    4171.  0E:93BD  C2                  	db $C2		;[Wait] 3
    4172.  0E:93BE  22                  	db $22		;[Note] 35
    4173.  0E:93BF  67                  	db $67		;[Volume] 7
    4174.  0E:93C0  C0                  	db $C0		;[Wait] 1
    4175.  0E:93C1  26                  	db $26		;[Note] 39
    4176.  0E:93C2  6F                  	db $6F		;[Volume] 15
    4177.  0E:93C3  C2                  	db $C2		;[Wait] 3
    4178.  0E:93C4  26                  	db $26		;[Note] 39
    4179.  0E:93C5  67                  	db $67		;[Volume] 7
    4180.  0E:93C6  C0                  	db $C0		;[Wait] 1
    4181.  0E:93C7  1E                  	db $1E		;[Note] 31
    4182.  0E:93C8  6F                  	db $6F		;[Volume] 15
    4183.  0E:93C9  C2                  	db $C2		;[Wait] 3
    4184.  0E:93CA  1E                  	db $1E		;[Note] 31
    4185.  0E:93CB  67                  	db $67		;[Volume] 7
    4186.  0E:93CC  C0                  	db $C0		;[Wait] 1
    4187.  0E:93CD  BF                  	db $BF		;[End-Of-Track]
    4188.  0E:93CE                      .track_123:
    4189.  0E:93CE  17                  	db $17		;[Note] 24
    4190.  0E:93CF  7F                  	db $7F		;[Instrument] 16
    4191.  0E:93D0  C5                  	db $C5		;[Wait] 6
    4192.  0E:93D1  17                  	db $17		;[Note] 24
    4193.  0E:93D2  C1                  	db $C1		;[Wait] 2
    4194.  0E:93D3  23                  	db $23		;[Note] 36
    4195.  0E:93D4  7D                  	db $7D		;[Instrument] 14
    4196.  0E:93D5  C3                  	db $C3		;[Wait] 4
    4197.  0E:93D6  17                  	db $17		;[Note] 24
    4198.  0E:93D7  7F                  	db $7F		;[Instrument] 16
    4199.  0E:93D8                      				;[Skip delay] 4
    4200.  0E:93D8  23                  	db $23		;[Note] 36
    4201.  0E:93D9  7D                  	db $7D		;[Instrument] 14
    4202.  0E:93DA                      				;[Skip delay] 4
    4203.  0E:93DA  21                  	db $21		;[Note] 34
    4204.  0E:93DB                      				;[Skip delay] 4
    4205.  0E:93DB  1E                  	db $1E		;[Note] 31
    4206.  0E:93DC                      				;[Skip delay] 4
    4207.  0E:93DC  23                  	db $23		;[Note] 36
    4208.  0E:93DD                      				;[Skip delay] 4
    4209.  0E:93DD  BF                  	db $BF		;[End-Of-Track]
    4210.  0E:93DE                      .track_124:
    4211.  0E:93DE  CF                  	db $CF		;[Wait] 16
    4212.  0E:93DF  2F                  	db $2F		;[Note] 48
    4213.  0E:93E0  83                  	db $83		;[Instrument] 20
    4214.  0E:93E1  C3                  	db $C3		;[Wait] 4
    4215.  0E:93E2  2F                  	db $2F		;[Note] 48
    4216.  0E:93E3  CB                  	db $CB		;[Wait] 12
    4217.  0E:93E4  BF                  	db $BF		;[End-Of-Track]
    4218.  0E:93E5                      .track_125:
    4219.  0E:93E5  3B                  	db $3B		;[Note] 60
    4220.  0E:93E6  C2                  	db $C2		;[Wait] 3
    4221.  0E:93E7  36                  	db $36		;[Note] 55
    4222.  0E:93E8                      				;[Skip delay] 3
    4223.  0E:93E8  32                  	db $32		;[Note] 51
    4224.  0E:93E9                      				;[Skip delay] 3
    4225.  0E:93E9  2F                  	db $2F		;[Note] 48
    4226.  0E:93EA                      				;[Skip delay] 3
    4227.  0E:93EA  32                  	db $32		;[Note] 51
    4228.  0E:93EB                      				;[Skip delay] 3
    4229.  0E:93EB  36                  	db $36		;[Note] 55
    4230.  0E:93EC                      				;[Skip delay] 3
    4231.  0E:93EC  3B                  	db $3B		;[Note] 60
    4232.  0E:93ED                      				;[Skip delay] 3
    4233.  0E:93ED  36                  	db $36		;[Note] 55
    4234.  0E:93EE                      				;[Skip delay] 3
    4235.  0E:93EE  32                  	db $32		;[Note] 51
    4236.  0E:93EF                      				;[Skip delay] 3
    4237.  0E:93EF  2F                  	db $2F		;[Note] 48
    4238.  0E:93F0                      				;[Skip delay] 3
    4239.  0E:93F0  32                  	db $32		;[Note] 51
    4240.  0E:93F1  C0                  	db $C0		;[Wait] 1
    4241.  0E:93F2                      				;[Skip delay] 1
    4242.  0E:93F2  BF                  	db $BF		;[End-Of-Track]
    4243.  0E:93F3                      .track_126:
    4244.  0E:93F3  DD                  	db $DD		;[Wait] 30
    4245.  0E:93F4  60                  	db $60		;[Note] 97
    4246.  0E:93F5  C1                  	db $C1		;[Wait] 2
    4247.  0E:93F6  BF                  	db $BF		;[End-Of-Track]
    4248.  0E:93F7                      .track_127:
    4249.  0E:93F7  0B                  	db $0B		;[Note] 12
    4250.  0E:93F8  C5                  	db $C5		;[Wait] 6
    4251.  0E:93F9  0B                  	db $0B		;[Note] 12
    4252.  0E:93FA  C1                  	db $C1		;[Wait] 2
    4253.  0E:93FB  17                  	db $17		;[Note] 24
    4254.  0E:93FC  C3                  	db $C3		;[Wait] 4
    4255.  0E:93FD  0B                  	db $0B		;[Note] 12
    4256.  0E:93FE                      				;[Skip delay] 4
    4257.  0E:93FE  17                  	db $17		;[Note] 24
    4258.  0E:93FF                      				;[Skip delay] 4
    4259.  0E:93FF  15                  	db $15		;[Note] 22
    4260.  0E:9400                      				;[Skip delay] 4
    4261.  0E:9400  12                  	db $12		;[Note] 19
    4262.  0E:9401                      				;[Skip delay] 4
    4263.  0E:9401  17                  	db $17		;[Note] 24
    4264.  0E:9402                      				;[Skip delay] 4
    4265.  0E:9402  BF                  	db $BF		;[End-Of-Track]
    4266.  0E:9403                      .track_128:
    4267.  0E:9403  DF                  	db $DF		;[Wait] 32
    4268.  0E:9404  BF                  	db $BF		;[End-Of-Track]
    4269.  0E:9405                      .track_129:
    4270.  0E:9405  60                  	db $60		;[Note] 97
    4271.  0E:9406  CF                  	db $CF		;[Wait] 16
    4272.  0E:9407  23                  	db $23		;[Note] 36
    4273.  0E:9408  6D                  	db $6D		;[Volume] 13
    4274.  0E:9409  74                  	db $74		;[Instrument] 5
    4275.  0E:940A                      				;[Skip delay] 16
    4276.  0E:940A  24                  	db $24		;[Note] 37
    4277.  0E:940B  D7                  	db $D7		;[Wait] 24
    4278.  0E:940C  21                  	db $21		;[Note] 34
    4279.  0E:940D  C6                  	db $C6		;[Wait] 7
    4280.  0E:940E  C0                  	db $C0		;[Wait] 1
    4281.  0E:940F  BF                  	db $BF		;[End-Of-Track]
    4282.  0E:9410                      .track_130:
    4283.  0E:9410  BF                  	db $BF		;[End-Of-Track]
    4284.  0E:9411                      ; [ Song sub-track data ]
     523   0E:9411  (0F)                	page 15
     524   0F:A000                      	include	"..\TriloTracker-Re-player\code\ttreplayDAT.asm"
       1.  0F:A000                      
       2.  0F:A000  00 (128)            	ds 8*16, 0
       3.  0F:A080                      _VOLUME_TABLE
       4.  0F:A080  (0100)              	incbin ".\voltable_combined.bin"	
       5.  0F:A180                      
       6.  0F:A180                      ;Konami values found in	Nemesis 2 replayer.
       7.  0F:A180  (0F:0D40)           C_PER		equ	$6a*32	
       8.  0F:A180  (0F:0C80)           C1_PER	equ	$64*32
       9.  0F:A180  (0F:0BC0)           D_PER		equ	$5e*32
      10.  0F:A180  (0F:0B20)           D1_PER	equ	$59*32
      11.  0F:A180  (0F:0A80)           E_PER		equ	$54*32
      12.  0F:A180  (0F:09E0)           F_PER		equ	$4f*32
      13.  0F:A180  (0F:0940)           F1_PER	equ	$4a*32
      14.  0F:A180  (0F:08C0)           G_PER		equ	$46*32
      15.  0F:A180  (0F:0840)           G1_PER	equ	$42*32
      16.  0F:A180  (0F:07E0)           A_PER		equ	$3f*32
      17.  0F:A180  (0F:0760)           A1_PER	equ	$3b*32
      18.  0F:A180  (0F:0700)           B_PER		equ	$38*32
      19.  0F:A180                      
      20.  0F:A180                      TRACK_ToneTable:	
      21.  0F:A180                      	dw C_PER/1	,C1_PER/1  ,D_PER/1  ,D1_PER/1  ,E_PER/1	,F_PER/1  ,F1_PER/1  ,G_PER/1	 ,G1_PER/1	,A_PER/1  ,A1_PER/1  ,B_PER/1
      21.  0F:A180  40 0D 80 0C C0 0B 20 0B 80 0A E0 09 40 09 C0 08 
      21.  0F:A190  40 08 E0 07 60 07 00 07 
      22.  0F:A198                      	dw C_PER/2	,C1_PER/2  ,D_PER/2  ,D1_PER/2  ,E_PER/2	,F_PER/2  ,F1_PER/2  ,G_PER/2	 ,G1_PER/2	,A_PER/2  ,A1_PER/2  ,B_PER/2
      22.  0F:A198  A0 06 40 06 E0 05 90 05 40 05 F0 04 A0 04 60 04 
      22.  0F:A1A8  20 04 F0 03 B0 03 80 03 
      23.  0F:A1B0                      	dw C_PER/4	,C1_PER/4  ,D_PER/4  ,D1_PER/4  ,E_PER/4	,F_PER/4  ,F1_PER/4  ,G_PER/4	 ,G1_PER/4	,A_PER/4  ,A1_PER/4  ,B_PER/4
      23.  0F:A1B0  50 03 20 03 F0 02 C8 02 A0 02 78 02 50 02 30 02 
      23.  0F:A1C0  10 02 F8 01 D8 01 C0 01 
      24.  0F:A1C8                      	dw C_PER/8	,C1_PER/8  ,D_PER/8  ,D1_PER/8  ,E_PER/8	,F_PER/8  ,F1_PER/8  ,G_PER/8	 ,G1_PER/8	,A_PER/8  ,A1_PER/8  ,B_PER/8
      24.  0F:A1C8  A8 01 90 01 78 01 64 01 50 01 3C 01 28 01 18 01 
      24.  0F:A1D8  08 01 FC 00 EC 00 E0 00 
      25.  0F:A1E0                      	dw C_PER/16	,C1_PER/16 ,D_PER/16 ,D1_PER/16 ,E_PER/16	,F_PER/16 ,F1_PER/16 ,G_PER/16 ,G1_PER/16	,A_PER/16 ,A1_PER/16 ,B_PER/16
      25.  0F:A1E0  D4 00 C8 00 BC 00 B2 00 A8 00 9E 00 94 00 8C 00 
      25.  0F:A1F0  84 00 7E 00 76 00 70 00 
      26.  0F:A1F8                      	dw C_PER/32	,C1_PER/32 ,D_PER/32 ,D1_PER/32 ,E_PER/32	,F_PER/32 ,F1_PER/32 ,G_PER/32 ,G1_PER/32	,A_PER/32 ,A1_PER/32 ,B_PER/32
      26.  0F:A1F8  6A 00 64 00 5E 00 59 00 54 00 4F 00 4A 00 46 00 
      26.  0F:A208  42 00 3F 00 3B 00 38 00 
      27.  0F:A210                      	dw C_PER/64	,C1_PER/64 ,D_PER/64 ,D1_PER/64 ,E_PER/64	,F_PER/64 ,F1_PER/64 ,G_PER/64 ,G1_PER/64	,A_PER/64 ,A1_PER/64 ,B_PER/64
      27.  0F:A210  35 00 32 00 2F 00 2C 00 2A 00 27 00 25 00 23 00 
      27.  0F:A220  21 00 1F 00 1D 00 1C 00 
      28.  0F:A228                      	dw C_PER/128,C1_PER/128,D_PER/128,D1_PER/128,E_PER/128,F_PER/128,F1_PER/128,G_PER/128,G1_PER/128,A_PER/128,A1_PER/128,B_PER/128
      28.  0F:A228  1A 00 19 00 17 00 16 00 15 00 13 00 12 00 11 00 
      28.  0F:A238  10 00 0F 00 0E 00 0E 00 
      29.  0F:A240                      
      30.  0F:A240                      
      31.  0F:A240                      TRACK_Vibrato_sine:
      32.  0F:A240                      	db	 0*2,	2*2, 4*2, 7*2,11*2,16*2,22*2,28*2,35*2,43*2,51*2,59*2,68*2,77*2,87*2,96*2
      32.  0F:A240  00 04 08 0E 16 20 2C 38 46 56 66 76 88 9A AE C0 
      33.  0F:A250                      	db	96*2,86*2,77*2,68*2,59*2,51*2,43*2,35*2,28*2,22*2,16*2,11*2, 7*2,	4*2, 2*2, 0*2
      33.  0F:A250  C0 AC 9A 88 76 66 56 46 38 2C 20 16 0E 08 04 00 
      34.  0F:A260                      
      35.  0F:A260                      TRACK_Vibrato_triangle:
      36.  0F:A260                      	db	 0, 6,12,18,24,30,36,42,48,54,60,66,72,78,84,90
      36.  0F:A260  00 06 0C 12 18 1E 24 2A 30 36 3C 42 48 4E 54 5A 
      37.  0F:A270                      	db	96,90,84,78,72,66,60,54,48,42,36,30,24,18,12, 6
      37.  0F:A270  60 5A 54 4E 48 42 3C 36 30 2A 24 1E 18 12 0C 06 
      38.  0F:A280                      
      39.  0F:A280                      TRACK_Vibrato_pulse:
      40.  0F:A280                      	db	255,255,255,255,255,255,255,255,255,255,255,255,255,255,255,255
      40.  0F:A280  FF FF FF FF FF FF FF FF FF FF FF FF FF FF FF FF 
      41.  0F:A290                      	db      0,  0,  0,  0,  0,  0,  0,  0,  0,  0,  0,  0,  0,  0,  0,  0	
      41.  0F:A290  00 00 00 00 00 00 00 00 00 00 00 00 00 00 00 00 
      42.  0F:A2A0                      	
     525   0F:A2A0                      	page 0,1
     526   00:4894                      	include	"..\TriloTracker-Re-player\code\ttreplay.asm"
       1.  00:4894                      ;=================================
       2.  00:4894                      ; TriloTracker re-player v0.3
       3.  00:4894                      ;
       4.  00:4894                      ; 
       5.  00:4894                      ; Also expects the code to run as a cartridge with SCC mapper
       6.  00:4894                      ;================================
       7.  00:4894                      	
       8.  00:4894                      ;===============================
       9.  00:4894                      ; todo:
      10.  00:4894                      ; - add external SCC support through conditional code.
      11.  00:4894                      ; - add replayer speed up through conditional code.
      12.  00:4894                      ; - optimize replayer code
      13.  00:4894                      ; - instructions for external usage of the RAM variables (setting PSG/SCC base volumes etc)
      14.  00:4894                      
      15.  00:4894                      	
      16.  00:4894                      ;define EXTERNAL_SCC 
      17.  00:4894                      define INTERNAL_SCC	
      18.  00:4894                      	
      19.  00:4894                      	
      20.  00:4894                      ;===========================================================
      21.  00:4894                      ; ---	replay_init
      22.  00:4894                      ; Initialize replayer data
      23.  00:4894                      ; 
      24.  00:4894                      ; Input: none
      25.  00:4894                      ;===========================================================
      26.  00:4894                      replay_init:
      27.  00:4894  3E 08               	ld	a,8
      28.  00:4896  CD D2 48            	call	replay_set_SCC_balance
      29.  00:4899  3E 08               	ld	a,8
      30.  00:489B  CD D9 48            	call	replay_set_PSG_balance
      31.  00:489E                      
      32.  00:489E  AF                  	xor	a
      33.  00:489F  32 0F C0            	ld	(replay_mode),a	
      34.  00:48A2                      	
      35.  00:48A2  C9                  	ret
      36.  00:48A3                      
      37.  00:48A3                      ;===========================================================
      38.  00:48A3                      ; ---	replay_pause
      39.  00:48A3                      ; Stop/Restart music playback
      40.  00:48A3                      ; 
      41.  00:48A3                      ; Input: none
      42.  00:48A3                      ;===========================================================
      43.  00:48A3                      replay_pause:
      44.  00:48A3  3A 0F C0            	ld	a,(replay_mode)
      45.  00:48A6  A7                  	and	a
      46.  00:48A7  CA B8 48            	jp	z,_replay_pause_r
      47.  00:48AA                      	;-- stop decding and processing music data
      48.  00:48AA  AF                  	xor	a
      49.  00:48AB  32 0F C0            	ld	(replay_mode),a
      50.  00:48AE                      	;-- set mixers to silence.
      51.  00:48AE  3E 3F               	ld 	a,0x3F
      52.  00:48B0  32 A6 C1            	ld	(AY_regMIXER),a 
      53.  00:48B3  AF                  	xor	a
      54.  00:48B4  32 3C C2            	ld	(SCC_regMIXER),a
      55.  00:48B7  C9                  	ret
      56.  00:48B8                      _replay_pause_r:	
      57.  00:48B8                      	;-- enable music decoding and processing
      58.  00:48B8  3E 01               	ld	a,1
      59.  00:48BA  32 0F C0            	ld	(replay_mode),a
      60.  00:48BD  C9                  	ret
      61.  00:48BE                      
      62.  00:48BE                      	
      63.  00:48BE                      ;===========================================================
      64.  00:48BE                      ; ---	replay_fade_out
      65.  00:48BE                      ; Fade out the music. 
      66.  00:48BE                      ; Once the sound is silence the replayer is paused.
      67.  00:48BE                      ;
      68.  00:48BE                      ; in: [A] fade speed (1 - 255)
      69.  00:48BE                      ;===========================================================	
      70.  00:48BE                      replay_fade_out:
      71.  00:48BE  32 10 C0            	ld	(replay_fade),a
      72.  00:48C1  32 11 C0            	ld	(replay_fade_timer),a
      73.  00:48C4  AF                  	xor	a
      74.  00:48C5  32 12 C0            	ld	(replay_fade_vol),a
      75.  00:48C8  C9                  	ret
      76.  00:48C9                      
      77.  00:48C9                      
      78.  00:48C9                      ;===========================================================
      79.  00:48C9                      ; ---	replay_transpose
      80.  00:48C9                      ; Transposes the whole song. 
      81.  00:48C9                      ; TT effect command 'E8y - Global transpose' will undo 
      82.  00:48C9                      ; this effect.
      83.  00:48C9                      ;
      84.  00:48C9                      ; in: [DE] number of halve tones (pos or neg) to transpose. 
      85.  00:48C9                      ;===========================================================
      86.  00:48C9                      replay_transpose:
      87.  00:48C9  21 80 A1            	ld	hl,TRACK_ToneTable;(replay_Tonetable)
      88.  00:48CC  19                  	add	hl,de	
      89.  00:48CD  19                  	add	hl,de
      90.  00:48CE  22 18 C0            	ld	(replay_Tonetable),hl	
      91.  00:48D1  C9                  	ret
      92.  00:48D2                      	
      93.  00:48D2                      ;===========================================================
      94.  00:48D2                      ; ---	replay_set_SCC_balance
      95.  00:48D2                      ; Set the main volume for the SCC chip. This enables for
      96.  00:48D2                      ; setting the balance between SCC en PSG as some MSX models 
      97.  00:48D2                      ; default balance differs. 
      98.  00:48D2                      ;
      99.  00:48D2                      ; in: [A] master volume (0-7) 0=halve volume, 7=full volume. 
     100.  00:48D2                      ;===========================================================	
     101.  00:48D2                      replay_set_SCC_balance:
     102.  00:48D2  CD E0 48            	call	_getnewbalancebase
     103.  00:48D5  22 04 C0            	ld	(replay_mainSCCvol),hl	
     104.  00:48D8  C9                  	ret
     105.  00:48D9                      	
     106.  00:48D9                      ;===========================================================
     107.  00:48D9                      ; ---	replay_set_PSG_balance
     108.  00:48D9                      ; Set the main volume for the PSG chip. This enables for
     109.  00:48D9                      ; setting the balance between SCC en PSG as some MSX models 
     110.  00:48D9                      ; default balance differs. 
     111.  00:48D9                      ;
     112.  00:48D9                      ; in: [A] master volume (0-7) 0=halve volume, 7=full volume. 
     113.  00:48D9                      ;===========================================================	
     114.  00:48D9                      replay_set_PSG_balance:
     115.  00:48D9  CD E0 48            	call	_getnewbalancebase
     116.  00:48DC  22 02 C0            	ld	(replay_mainPSGvol),hl	
     117.  00:48DF  C9                  	ret
     118.  00:48E0                      	
     119.  00:48E0                      _getnewbalancebase:
     120.  00:48E0  07                  	rlca
     121.  00:48E1  07                  	rlca
     122.  00:48E2  07                  	rlca
     123.  00:48E3  07                  	rlca
     124.  00:48E4  21 00 A0            	ld	hl,_VOLUME_TABLE-(16*8)
     125.  00:48E7  E6 F0               	and	$f0
     126.  00:48E9  85                  	add	a,l
     127.  00:48EA  6F                  	ld	l,a
     128.  00:48EB  D0                  	ret 	nc
     129.  00:48EC  24                  	inc	h
     130.  00:48ED                      99:
     131.  00:48ED  C9                  	ret
     132.  00:48EE                      	
     133.  00:48EE                      	
     134.  00:48EE                      	
     135.  00:48EE                      	
     136.  00:48EE                      	
     137.  00:48EE                      	
     138.  00:48EE                      ;===========================================================
     139.  00:48EE                      ; ---	replay_loadsong
     140.  00:48EE                      ; Initialize a song for playback
     141.  00:48EE                      ; 
     142.  00:48EE                      ; Input [HL] points to start song
     143.  00:48EE                      ;===========================================================
     144.  00:48EE                      replay_loadsong:
     145.  00:48EE                      	;--- Get the start speed.
     146.  00:48EE  7E                  	ld	a,(hl)	
     147.  00:48EF  23                  	inc	hl
     148.  00:48F0  32 0C C0            	ld	(replay_speed),a
     149.  00:48F3                      
     150.  00:48F3                      	;--- Set waveform start
     151.  00:48F3  5E                  	ld	e,(hl)
     152.  00:48F4  23                  	inc	hl
     153.  00:48F5  56                  	ld 	d,(hl)
     154.  00:48F6  23                  	inc	hl
     155.  00:48F7  7B                  	ld	a,e				; check for external waveforms
     156.  00:48F8  B2                  	or	d
     157.  00:48F9  CA 00 49            	jp	z,99f				; is address is $0000 then do not update
     158.  00:48FC  ED 53 06 C0         	ld	(replay_wavebase),de
     159.  00:4900                      99:	
     160.  00:4900                      	;--- Set the instrument start
     161.  00:4900  5E                  	ld	e,(hl)
     162.  00:4901  23                  	inc	hl
     163.  00:4902  56                  	ld 	d,(hl)
     164.  00:4903  23                  	inc	hl
     165.  00:4904  7B                  	ld	a,e				; check for external instruments
     166.  00:4905  B2                  	or	d
     167.  00:4906  CA 0D 49            	jp	z,99f				; is address is $0000 then do not update
     168.  00:4909  ED 53 08 C0         	ld	(replay_insbase),de
     169.  00:490D                      99:
     170.  00:490D                      	;--- Set track pointers to start
     171.  00:490D  11 8F C1            	ld	de,TRACK_pointer1
     172.  00:4910  01 10 00            	ld	bc,16
     173.  00:4913  ED B0               	ldir
     174.  00:4915  22 0A C0            	ld	(replay_orderpointer),hl		; store pointer for next set
     175.  00:4918                      								; of track pointers
     176.  00:4918                      	;--- Initialize replayer variables.
     177.  00:4918  AF                  	xor	a
     178.  00:4919  32 0D C0            	ld	(replay_speed_subtimer),a
     179.  00:491C  32 1A C0            	ld	(replay_morph_active),a
     180.  00:491F  32 5E C0            	ld	(replay_morph_waveform),a
     181.  00:4922                      	
     182.  00:4922                      	;--- Erase channel data	in RAM
     183.  00:4922  01 2F 01            	ld	bc,(TRACK_REC_SIZE*8)-1
     184.  00:4925  21 5F C0            	ld	hl,TRACK_Chan1
     185.  00:4928  11 60 C0            	ld	de,TRACK_Chan1+1
     186.  00:492B  77                  	ld	(hl),a
     187.  00:492C  ED B0               	ldir
     188.  00:492E                      	
     189.  00:492E                      	;--- Silence the chips
     190.  00:492E  32 3C C2            	ld	(SCC_regMIXER),a
     191.  00:4931  32 A7 C1            	ld	(AY_regVOLA),a
     192.  00:4934  32 A8 C1            	ld	(AY_regVOLB),a	
     193.  00:4937  32 A9 C1            	ld	(AY_regVOLC),a
     194.  00:493A  32 A5 C1            	ld	(AY_regNOISE),a
     195.  00:493D  3E 3F               	ld	a,0x3f
     196.  00:493F  32 A6 C1            	ld	(AY_regMIXER),a
     197.  00:4942                      
     198.  00:4942                      	;--- Set vibrato table
     199.  00:4942  21 40 A2            	ld	hl,TRACK_Vibrato_sine
     200.  00:4945  22 16 C0            	ld	(replay_vib_table),hl
     201.  00:4948                      	
     202.  00:4948                      	;--- Set the tone table base
     203.  00:4948  21 80 A1            	ld	hl,TRACK_ToneTable
     204.  00:494B  22 18 C0            	ld	(replay_Tonetable),hl
     205.  00:494E                      
     206.  00:494E  3E 01               	ld	a,1
     207.  00:4950  32 0E C0            	ld	(replay_speed_timer),a
     208.  00:4953  32 1B C0            	ld	(replay_morph_timer),a
     209.  00:4956  32 1C C0            	ld	(replay_morph_speed),a
     210.  00:4959  32 81 C0            	ld	(TRACK_Chan1+17+TRACK_Delay),a	
     211.  00:495C  32 A7 C0            	ld	(TRACK_Chan2+17+TRACK_Delay),a		
     212.  00:495F  32 CD C0            	ld	(TRACK_Chan3+17+TRACK_Delay),a	
     213.  00:4962  32 F3 C0            	ld	(TRACK_Chan4+17+TRACK_Delay),a	
     214.  00:4965  32 19 C1            	ld	(TRACK_Chan5+17+TRACK_Delay),a		
     215.  00:4968  32 3F C1            	ld	(TRACK_Chan6+17+TRACK_Delay),a		
     216.  00:496B  32 65 C1            	ld	(TRACK_Chan7+17+TRACK_Delay),a		
     217.  00:496E  32 8B C1            	ld	(TRACK_Chan8+17+TRACK_Delay),a	
     218.  00:4971                      	
     219.  00:4971  3E FF               	ld	a,255
     220.  00:4973  32 5F C0            	ld	(TRACK_Chan1+17+TRACK_Instrument),a	
     221.  00:4976  32 85 C0            	ld	(TRACK_Chan2+17+TRACK_Instrument),a		
     222.  00:4979  32 AB C0            	ld	(TRACK_Chan3+17+TRACK_Instrument),a	
     223.  00:497C  32 D1 C0            	ld	(TRACK_Chan4+17+TRACK_Instrument),a	
     224.  00:497F  32 F7 C0            	ld	(TRACK_Chan5+17+TRACK_Instrument),a		
     225.  00:4982  32 1D C1            	ld	(TRACK_Chan6+17+TRACK_Instrument),a		
     226.  00:4985  32 43 C1            	ld	(TRACK_Chan7+17+TRACK_Instrument),a		
     227.  00:4988  32 69 C1            	ld	(TRACK_Chan8+17+TRACK_Instrument),a	
     228.  00:498B                      
     229.  00:498B                      IFDEF	EXTERNAL_SCC	
     230.  00:498B                    ~ 	;--- Init the SCC	(waveforms too)
     231.  00:498B                    ~ 	ld	a,(SCC_slot)
     232.  00:498B                    ~ 	ld	h,0x80
     233.  00:498B                    ~ 	call enaslt
     234.  00:498B                    ~ ENDIF
     235.  00:498B                      	
     236.  00:498B  3E FF               	ld	a,255
     237.  00:498D  32 D2 C0            	ld	(TRACK_Chan4+17+TRACK_Waveform),a
     238.  00:4990  32 F8 C0            	ld	(TRACK_Chan5+17+TRACK_Waveform),a
     239.  00:4993  32 1E C1            	ld	(TRACK_Chan6+17+TRACK_Waveform),a	
     240.  00:4996  32 44 C1            	ld	(TRACK_Chan7+17+TRACK_Waveform),a	
     241.  00:4999  3E 80               	ld	a,128
     242.  00:499B  32 DB C0            	ld	(TRACK_Chan4+17+TRACK_Flags),a
     243.  00:499E  32 01 C1            	ld	(TRACK_Chan5+17+TRACK_Flags),a
     244.  00:49A1  32 27 C1            	ld	(TRACK_Chan6+17+TRACK_Flags),a	
     245.  00:49A4  32 4D C1            	ld	(TRACK_Chan7+17+TRACK_Flags),a	
     246.  00:49A7                      	
     247.  00:49A7  CD E0 53            	call scc_reg_update
     248.  00:49AA                      	
     249.  00:49AA                      IFDEF	EXTERNAL_SCC	
     250.  00:49AA                    ~ 	ld	a,(mapper_slot)				
     251.  00:49AA                    ~ 	ld	h,0x80
     252.  00:49AA                    ~ 	call enaslt
     253.  00:49AA                    ~ ENDIF	
     254.  00:49AA                      
     255.  00:49AA  CD 57 53            	call	replay_route
     256.  00:49AD                      	
     257.  00:49AD                      	; end	is here
     258.  00:49AD  3E 01               	ld	a,1
     259.  00:49AF  32 0F C0            	ld	(replay_mode),a	
     260.  00:49B2  C9                  	ret
     261.  00:49B3                      
     262.  00:49B3                      
     263.  00:49B3                      
     264.  00:49B3                      _replay_check_patternend:
     265.  00:49B3  3A 81 C0            	ld 	a,(TRACK_Chan1+17+TRACK_Delay)
     266.  00:49B6  3D                  	dec	a
     267.  00:49B7  C2 19 4B            	jp	nz,replay_decodedata_NO
     268.  00:49BA                      	
     269.  00:49BA  2A 8F C1            	ld	hl,(TRACK_pointer1)
     270.  00:49BD  7E                  	ld	a,(hl)
     271.  00:49BE                      	
     272.  00:49BE                      	;--- check for end of pattern
     273.  00:49BE  FE BF               	cp	191	
     274.  00:49C0  C2 19 4B            	jp	nz,replay_decodedata_NO
     275.  00:49C3                      
     276.  00:49C3                      	;--- Set track pointers to start
     277.  00:49C3  2A 0A C0            	ld	hl,(replay_orderpointer)
     278.  00:49C6  AF                  	xor	a
     279.  00:49C7  BE                  	cp	(hl)
     280.  00:49C8  C2 D7 49            	jp	nz,99f
     281.  00:49CB  23                  	inc	hl
     282.  00:49CC  BE                  	cp	(hl)
     283.  00:49CD  2B                  	dec	hl
     284.  00:49CE  C2 D7 49            	jp	nz,99f
     285.  00:49D1                      	;--- next is restart order
     286.  00:49D1  23                  	inc	hl
     287.  00:49D2  23                  	inc	hl
     288.  00:49D3  7E                  	ld	a,(hl)
     289.  00:49D4  23                  	inc	hl
     290.  00:49D5  66                  	ld	h,(hl)
     291.  00:49D6  6F                  	ld	l,a
     292.  00:49D7                      99:	
     293.  00:49D7  11 8F C1            	ld	de,TRACK_pointer1
     294.  00:49DA  01 10 00            	ld	bc,16
     295.  00:49DD  ED B0               	ldir
     296.  00:49DF  22 0A C0            	ld	(replay_orderpointer),hl		; store pointer for next set
     297.  00:49E2                      								; of strack pointers
     298.  00:49E2  C3 19 4B            	jp	replay_decodedata_NO
     299.  00:49E5                      
     300.  00:49E5                      
     301.  00:49E5                      ;===========================================================
     302.  00:49E5                      ; ---	replay_play
     303.  00:49E5                      ; Decode music data and process instruments and effects. 
     304.  00:49E5                      ; Music chip registers will be prepared for replay_route 
     305.  00:49E5                      ;
     306.  00:49E5                      ; Input none
     307.  00:49E5                      ;===========================================================	
     308.  00:49E5                      replay_play:
     309.  00:49E5  3A 0F C0            	ld	a,(replay_mode)
     310.  00:49E8  A7                  	and	a
     311.  00:49E9  C8                  	ret	z		; replay mode = 0	; halted
     312.  00:49EA                      				
     313.  00:49EA                      				; replay mode = 1	; active
     314.  00:49EA                      	;--- The speed timer
     315.  00:49EA  21 0E C0            	ld	hl,replay_speed_timer
     316.  00:49ED  35                  	dec	(hl)
     317.  00:49EE                      
     318.  00:49EE  C2 B3 49            	jp	nz,_replay_check_patternend	
     319.  00:49F1                      	
     320.  00:49F1                      	;--- Re-init Timer == 0
     321.  00:49F1  AF                  	xor	a
     322.  00:49F2  ED 4B 0C C0         	ld	bc,(replay_speed)		; [b]	subtimer [c] speed
     323.  00:49F6  CB 39               	srl	c				; bit	0 is halve speedstep
     324.  00:49F8  8F                  	adc	a,a
     325.  00:49F9  A8                  	xor	b				; alternate	speed	to have halve speed.
     326.  00:49FA  32 0D C0            	ld	(replay_speed_subtimer),a
     327.  00:49FD  81                  	add	c
     328.  00:49FE  32 0E C0            	ld	(replay_speed_timer),a
     329.  00:4A01                      ;===========================================================
     330.  00:4A01                      ; ---	replay_decodedata
     331.  00:4A01                      ; Process the patterndata 
     332.  00:4A01                      ;===========================================================
     333.  00:4A01                      replay_decodedata:
     334.  00:4A01                      	;--- process the channels (tracks)
     335.  00:4A01  21 81 C0            	ld 	hl,TRACK_Chan1+17+TRACK_Delay
     336.  00:4A04  35                  	dec	(hl)
     337.  00:4A05  C2 24 4A            	jp	nz,0f
     338.  00:4A08                      
     339.  00:4A08  3A 69 C0            	ld	a,(TRACK_Chan1+17+TRACK_Flags)
     340.  00:4A0B  E6 F3               	and	11110011b		; reset B_TRGENV and B_TRGCMD
     341.  00:4A0D  57                  	ld	d,a
     342.  00:4A0E  3A 67 C0            	ld	a,(TRACK_Chan1+17+TRACK_Note)	
     343.  00:4A11  DD 21 70 C0         	ld	ix,TRACK_Chan1+17
     344.  00:4A15  ED 4B 8F C1         	ld	bc,(TRACK_pointer1)
     345.  00:4A19  CD 40 4C            	call	replay_decode_chan
     346.  00:4A1C  ED 43 8F C1         	ld	(TRACK_pointer1),bc
     347.  00:4A20  7A                  	ld	a,d
     348.  00:4A21  32 69 C0            	ld	(TRACK_Chan1+17+TRACK_Flags),a	
     349.  00:4A24                      
     350.  00:4A24                      0:	
     351.  00:4A24  21 A7 C0            	ld 	hl,TRACK_Chan2+17+TRACK_Delay
     352.  00:4A27  35                  	dec	(hl)
     353.  00:4A28  C2 47 4A            	jp	nz,0f
     354.  00:4A2B                      
     355.  00:4A2B  3A 8F C0            	ld	a,(TRACK_Chan2+17+TRACK_Flags)
     356.  00:4A2E  E6 F3               	and	11110011b		; reset B_TRGENV and B_TRGCMD
     357.  00:4A30  57                  	ld	d,a
     358.  00:4A31  3A 8D C0            	ld	a,(TRACK_Chan2+17+TRACK_Note)	
     359.  00:4A34  DD 21 96 C0         	ld	ix,TRACK_Chan2+17
     360.  00:4A38  ED 4B 91 C1         	ld	bc,(TRACK_pointer2)
     361.  00:4A3C  CD 40 4C            	call	replay_decode_chan
     362.  00:4A3F  ED 43 91 C1         	ld	(TRACK_pointer2),bc
     363.  00:4A43  7A                  	ld	a,d				;'
     364.  00:4A44  32 8F C0            	ld	(TRACK_Chan2+17+TRACK_Flags),a	
     365.  00:4A47                      
     366.  00:4A47                      0:
     367.  00:4A47  21 CD C0            	ld 	hl,TRACK_Chan3+17+TRACK_Delay
     368.  00:4A4A  35                  	dec	(hl)
     369.  00:4A4B  C2 6A 4A            	jp	nz,0f
     370.  00:4A4E                      
     371.  00:4A4E  3A B5 C0            	ld	a,(TRACK_Chan3+17+TRACK_Flags)
     372.  00:4A51  E6 F3               	and	11110011b		; reset B_TRGENV and B_TRGCMD
     373.  00:4A53  57                  	ld	d,a		;'
     374.  00:4A54  3A B3 C0            	ld	a,(TRACK_Chan3+17+TRACK_Note)	
     375.  00:4A57  DD 21 BC C0         	ld	ix,TRACK_Chan3+17
     376.  00:4A5B  ED 4B 93 C1         	ld	bc,(TRACK_pointer3)
     377.  00:4A5F  CD 40 4C            	call	replay_decode_chan
     378.  00:4A62  ED 43 93 C1         	ld	(TRACK_pointer3),bc
     379.  00:4A66  7A                  	ld	a,d				;'
     380.  00:4A67  32 B5 C0            	ld	(TRACK_Chan3+17+TRACK_Flags),a	
     381.  00:4A6A                      
     382.  00:4A6A                      0:
     383.  00:4A6A  21 F3 C0            	ld 	hl,TRACK_Chan4+17+TRACK_Delay
     384.  00:4A6D  35                  	dec	(hl)
     385.  00:4A6E  C2 8D 4A            	jp	nz,0f
     386.  00:4A71                      
     387.  00:4A71  3A DB C0            	ld	a,(TRACK_Chan4+17+TRACK_Flags)
     388.  00:4A74  E6 F3               	and	11110011b		; reset B_TRGENV and B_TRGCMD
     389.  00:4A76  57                  	ld 	d,a		;'
     390.  00:4A77  3A D9 C0            	ld	a,(TRACK_Chan4+17+TRACK_Note)	
     391.  00:4A7A  DD 21 E2 C0         	ld	ix,TRACK_Chan4+17
     392.  00:4A7E  ED 4B 95 C1         	ld	bc,(TRACK_pointer4)
     393.  00:4A82  CD 40 4C            	call	replay_decode_chan
     394.  00:4A85  ED 43 95 C1         	ld	(TRACK_pointer4),bc
     395.  00:4A89  7A                  	ld	a,d			;'
     396.  00:4A8A  32 DB C0            	ld	(TRACK_Chan4+17+TRACK_Flags),a	
     397.  00:4A8D                      
     398.  00:4A8D                      
     399.  00:4A8D                      0:
     400.  00:4A8D  21 19 C1            	ld 	hl,TRACK_Chan5+17+TRACK_Delay
     401.  00:4A90  35                  	dec	(hl)
     402.  00:4A91  C2 B0 4A            	jp	nz,0f
     403.  00:4A94                      
     404.  00:4A94  3A 01 C1            	ld	a,(TRACK_Chan5+17+TRACK_Flags)
     405.  00:4A97  E6 F3               	and	11110011b		; reset B_TRGENV and B_TRGCMD
     406.  00:4A99  57                  	ld	d,a		;'
     407.  00:4A9A  3A FF C0            	ld	a,(TRACK_Chan5+17+TRACK_Note)	
     408.  00:4A9D  DD 21 08 C1         	ld	ix,TRACK_Chan5+17
     409.  00:4AA1  ED 4B 97 C1         	ld	bc,(TRACK_pointer5)
     410.  00:4AA5  CD 40 4C            	call	replay_decode_chan
     411.  00:4AA8  ED 43 97 C1         	ld	(TRACK_pointer5),bc
     412.  00:4AAC  7A                  	ld	a,d			;'
     413.  00:4AAD  32 01 C1            	ld	(TRACK_Chan5+17+TRACK_Flags),a	
     414.  00:4AB0                      
     415.  00:4AB0                      
     416.  00:4AB0                      0:
     417.  00:4AB0  21 3F C1            	ld 	hl,TRACK_Chan6+17+TRACK_Delay
     418.  00:4AB3  35                  	dec	(hl)
     419.  00:4AB4  C2 D3 4A            	jp	nz,0f
     420.  00:4AB7                      
     421.  00:4AB7  3A 27 C1            	ld	a,(TRACK_Chan6+17+TRACK_Flags)
     422.  00:4ABA  E6 F3               	and	11110011b		; reset B_TRGENV and B_TRGCMD
     423.  00:4ABC  57                  	ld	d,a		;'
     424.  00:4ABD  3A 25 C1            	ld	a,(TRACK_Chan6+17+TRACK_Note)	
     425.  00:4AC0  DD 21 2E C1         	ld	ix,TRACK_Chan6+17
     426.  00:4AC4  ED 4B 99 C1         	ld	bc,(TRACK_pointer6)
     427.  00:4AC8  CD 40 4C            	call	replay_decode_chan
     428.  00:4ACB  ED 43 99 C1         	ld	(TRACK_pointer6),bc
     429.  00:4ACF  7A                  	ld	a,d				;'
     430.  00:4AD0  32 27 C1            	ld	(TRACK_Chan6+17+TRACK_Flags),a	
     431.  00:4AD3                      
     432.  00:4AD3                      
     433.  00:4AD3                      
     434.  00:4AD3                      0:
     435.  00:4AD3  21 65 C1            	ld 	hl,TRACK_Chan7+17+TRACK_Delay
     436.  00:4AD6  35                  	dec	(hl)
     437.  00:4AD7  C2 F6 4A            	jp	nz,0f
     438.  00:4ADA                      
     439.  00:4ADA  3A 4D C1            	ld	a,(TRACK_Chan7+17+TRACK_Flags)
     440.  00:4ADD  E6 F3               	and	11110011b		; reset B_TRGENV and B_TRGCMD
     441.  00:4ADF  57                  	ld	d,a		;'
     442.  00:4AE0  3A 4B C1            	ld	a,(TRACK_Chan7+17+TRACK_Note)	
     443.  00:4AE3  DD 21 54 C1         	ld	ix,TRACK_Chan7+17
     444.  00:4AE7  ED 4B 9B C1         	ld	bc,(TRACK_pointer7)
     445.  00:4AEB  CD 40 4C            	call	replay_decode_chan
     446.  00:4AEE  ED 43 9B C1         	ld	(TRACK_pointer7),bc
     447.  00:4AF2  7A                  	ld	a,d				;'
     448.  00:4AF3  32 4D C1            	ld	(TRACK_Chan7+17+TRACK_Flags),a	
     449.  00:4AF6                      
     450.  00:4AF6                      
     451.  00:4AF6                      
     452.  00:4AF6                      0:
     453.  00:4AF6  21 8B C1            	ld 	hl,TRACK_Chan8+17+TRACK_Delay
     454.  00:4AF9  35                  	dec	(hl)
     455.  00:4AFA  C2 19 4B            	jp	nz,0f
     456.  00:4AFD                      
     457.  00:4AFD  3A 73 C1            	ld	a,(TRACK_Chan8+17+TRACK_Flags)
     458.  00:4B00  E6 F3               	and	11110011b		; reset B_TRGENV and B_TRGCMD
     459.  00:4B02  57                  	ld	d,a		;'
     460.  00:4B03  3A 71 C1            	ld	a,(TRACK_Chan8+17+TRACK_Note)	
     461.  00:4B06  DD 21 7A C1         	ld	ix,TRACK_Chan8+17
     462.  00:4B0A  ED 4B 9D C1         	ld	bc,(TRACK_pointer8)
     463.  00:4B0E  CD 40 4C            	call	replay_decode_chan
     464.  00:4B11  ED 43 9D C1         	ld	(TRACK_pointer8),bc
     465.  00:4B15  7A                  	ld	a,d				;'
     466.  00:4B16  32 73 C1            	ld	(TRACK_Chan8+17+TRACK_Flags),a	
     467.  00:4B19                      0:
     468.  00:4B19                      	; continue to process data
     469.  00:4B19                      ;===========================================================
     470.  00:4B19                      ; ---	replay_decodedata_NO
     471.  00:4B19                      ; Process changes.
     472.  00:4B19                      ; 
     473.  00:4B19                      ; 
     474.  00:4B19                      ;===========================================================
     475.  00:4B19                      replay_decodedata_NO:
     476.  00:4B19                      	;---- morph routine here
     477.  00:4B19  3A 1A C0            	ld	a,(replay_morph_active)
     478.  00:4B1C  A7                  	and	a
     479.  00:4B1D  C4 24 54            	call	nz,replay_process_morph
     480.  00:4B20                      
     481.  00:4B20                      	;--- Initialize PSG Mixer and volume
     482.  00:4B20  AF                  	xor	a
     483.  00:4B21  32 3C C2            	ld	(SCC_regMIXER),a
     484.  00:4B24                      
     485.  00:4B24                      	;--- PSG balance
     486.  00:4B24  2A 02 C0            	ld	hl,(replay_mainPSGvol)
     487.  00:4B27  22 14 C0            	ld	(replay_mainvol),hl
     488.  00:4B2A                      
     489.  00:4B2A                      	;--- Process track 1
     490.  00:4B2A  DD 21 70 C0         	ld	ix,TRACK_Chan1+17
     491.  00:4B2E  3A 69 C0            	ld	a,(TRACK_Chan1+17+TRACK_Flags)
     492.  00:4B31  57                  	ld	d,a
     493.  00:4B32  CD 7B 4F            	call	replay_process_chan_AY
     494.  00:4B35  22 9F C1            	ld	(AY_regToneA),hl
     495.  00:4B38  7A                  	ld	a,d
     496.  00:4B39  32 69 C0            	ld	(TRACK_Chan1+17+TRACK_Flags),a	
     497.  00:4B3C  3A 3B C2            	ld	a,(SCC_regVOLE)
     498.  00:4B3F  32 A7 C1            	ld	(AY_regVOLA),a	
     499.  00:4B42                      
     500.  00:4B42                      	;--- Process track 2
     501.  00:4B42  DD 21 96 C0         	ld	ix,TRACK_Chan2+17
     502.  00:4B46  3A 8F C0            	ld	a,(TRACK_Chan2+17+TRACK_Flags)
     503.  00:4B49  57                  	ld	d,a
     504.  00:4B4A  CD 7B 4F            	call	replay_process_chan_AY
     505.  00:4B4D  22 A1 C1            	ld	(AY_regToneB),hl
     506.  00:4B50  7A                  	ld	a,d
     507.  00:4B51  32 8F C0            	ld	(TRACK_Chan2+17+TRACK_Flags),a	
     508.  00:4B54  3A 3B C2            	ld	a,(SCC_regVOLE)
     509.  00:4B57  32 A8 C1            	ld	(AY_regVOLB),a	
     510.  00:4B5A                      
     511.  00:4B5A                      	;--- Process track 3	
     512.  00:4B5A  DD 21 BC C0         	ld	ix,TRACK_Chan3+17
     513.  00:4B5E  3A B5 C0            	ld	a,(TRACK_Chan3+17+TRACK_Flags)
     514.  00:4B61  57                  	ld	d,a
     515.  00:4B62  CD 7B 4F            	call	replay_process_chan_AY
     516.  00:4B65  22 A3 C1            	ld	(AY_regToneC),hl
     517.  00:4B68  7A                  	ld	a,d
     518.  00:4B69  32 B5 C0            	ld	(TRACK_Chan3+17+TRACK_Flags),a	
     519.  00:4B6C  3A 3B C2            	ld	a,(SCC_regVOLE)
     520.  00:4B6F  32 A9 C1            	ld	(AY_regVOLC),a	
     521.  00:4B72                      
     522.  00:4B72                      	;-- Convert mixer to AY
     523.  00:4B72  3A 3C C2            	ld	a,(SCC_regMIXER)		
     524.  00:4B75  CB 3F               	srl	a
     525.  00:4B77  CB 3F               	srl	a
     526.  00:4B79  EE 3F               	xor	0x3f
     527.  00:4B7B  32 A6 C1            	ld	(AY_regMIXER),a
     528.  00:4B7E                      
     529.  00:4B7E                      
     530.  00:4B7E                      	;--- set SCC balance
     531.  00:4B7E  2A 04 C0            	ld	hl,(replay_mainSCCvol)
     532.  00:4B81  22 14 C0            	ld	(replay_mainvol),hl
     533.  00:4B84                      
     534.  00:4B84                      	
     535.  00:4B84  FD 26 00            	ld	iyh,0			; iyh stores the SCC chan#
     536.  00:4B87                      					; used for waveform updates
     537.  00:4B87                      	;--- Process track 4
     538.  00:4B87  DD 21 E2 C0         	ld	ix,TRACK_Chan4+17
     539.  00:4B8B  3A DB C0            	ld	a,(TRACK_Chan4+17+TRACK_Flags)
     540.  00:4B8E  57                  	ld	d,a
     541.  00:4B8F  CD 7B 4F            	call	replay_process_chan_AY
     542.  00:4B92  22 2D C2            	ld	(SCC_regToneA),hl
     543.  00:4B95  7A                  	ld	a,d
     544.  00:4B96  32 DB C0            	ld	(TRACK_Chan4+17+TRACK_Flags),a	
     545.  00:4B99  3A 3B C2            	ld	a,(SCC_regVOLE)
     546.  00:4B9C  32 37 C2            	ld	(SCC_regVOLA),a	
     547.  00:4B9F                      
     548.  00:4B9F                      	;--- Process track 5
     549.  00:4B9F  FD 24               	inc	iyh
     550.  00:4BA1                      	
     551.  00:4BA1  DD 21 08 C1         	ld	ix,TRACK_Chan5+17
     552.  00:4BA5  3A 01 C1            	ld	a,(TRACK_Chan5+17+TRACK_Flags)
     553.  00:4BA8  57                  	ld	d,a
     554.  00:4BA9  CD 7B 4F            	call	replay_process_chan_AY
     555.  00:4BAC  22 2F C2            	ld	(SCC_regToneB),hl
     556.  00:4BAF  7A                  	ld	a,d
     557.  00:4BB0  32 01 C1            	ld	(TRACK_Chan5+17+TRACK_Flags),a	
     558.  00:4BB3  3A 3B C2            	ld	a,(SCC_regVOLE)
     559.  00:4BB6  32 38 C2            	ld	(SCC_regVOLB),a	
     560.  00:4BB9                      
     561.  00:4BB9                      	;--- Process track 6
     562.  00:4BB9  FD 24               	inc	iyh
     563.  00:4BBB                      		
     564.  00:4BBB  DD 21 2E C1         	ld	ix,TRACK_Chan6+17
     565.  00:4BBF  3A 27 C1            	ld	a,(TRACK_Chan6+17+TRACK_Flags)
     566.  00:4BC2  57                  	ld	d,a
     567.  00:4BC3  CD 7B 4F            	call	replay_process_chan_AY
     568.  00:4BC6  22 31 C2            	ld	(SCC_regToneC),hl
     569.  00:4BC9  7A                  	ld	a,d
     570.  00:4BCA  32 27 C1            	ld	(TRACK_Chan6+17+TRACK_Flags),a	
     571.  00:4BCD  3A 3B C2            	ld	a,(SCC_regVOLE)
     572.  00:4BD0  32 39 C2            	ld	(SCC_regVOLC),a	
     573.  00:4BD3                      
     574.  00:4BD3                      	;--- Process track 7
     575.  00:4BD3  FD 24               	inc	iyh
     576.  00:4BD5                      		
     577.  00:4BD5  DD 21 54 C1         	ld	ix,TRACK_Chan7+17
     578.  00:4BD9  3A 4D C1            	ld	a,(TRACK_Chan7+17+TRACK_Flags)
     579.  00:4BDC  57                  	ld	d,a
     580.  00:4BDD  CD 7B 4F            	call	replay_process_chan_AY
     581.  00:4BE0  22 33 C2            	ld	(SCC_regToneD),hl
     582.  00:4BE3  7A                  	ld	a,d
     583.  00:4BE4  32 4D C1            	ld	(TRACK_Chan7+17+TRACK_Flags),a	
     584.  00:4BE7  3A 3B C2            	ld	a,(SCC_regVOLE)
     585.  00:4BEA  32 3A C2            	ld	(SCC_regVOLD),a		
     586.  00:4BED                      
     587.  00:4BED                      	;--- Process track 8
     588.  00:4BED                      ;	inc	iyh			; no waveform for SCC channel 5
     589.  00:4BED                      		
     590.  00:4BED  DD 21 7A C1         	ld	ix,TRACK_Chan8+17
     591.  00:4BF1  3A 73 C1            	ld	a,(TRACK_Chan8+17+TRACK_Flags)
     592.  00:4BF4  57                  	ld	d,a
     593.  00:4BF5  CD 7B 4F            	call	replay_process_chan_AY
     594.  00:4BF8  22 35 C2            	ld	(SCC_regToneE),hl
     595.  00:4BFB  7A                  	ld	a,d
     596.  00:4BFC  32 73 C1            	ld	(TRACK_Chan8+17+TRACK_Flags),a	
     597.  00:4BFF                      
     598.  00:4BFF                      	;-- Fade out processing
     599.  00:4BFF  3A 10 C0            	ld	a,(replay_fade)
     600.  00:4C02  A7                  	and	a
     601.  00:4C03  C8                  	ret	z	; if replay fade = 0 then no fade active
     602.  00:4C04                      	
     603.  00:4C04                      	; decrease fade timer
     604.  00:4C04  3A 11 C0            	ld	a,(replay_fade_timer)
     605.  00:4C07  3D                  	dec	a
     606.  00:4C08  C2 21 4C            	jp	nz,1f
     607.  00:4C0B                      
     608.  00:4C0B  3A 12 C0            	ld	a,(replay_fade_vol)
     609.  00:4C0E  3C                  	inc	a
     610.  00:4C0F  FE 10               	cp	16
     611.  00:4C11  DA 1B 4C            	jp	c,99f
     612.  00:4C14  AF                  	xor	a
     613.  00:4C15  32 10 C0            	ld	(replay_fade),a
     614.  00:4C18  C3 A3 48            	jp	replay_pause
     615.  00:4C1B                      99:	
     616.  00:4C1B  32 12 C0            	ld	(replay_fade_vol),a
     617.  00:4C1E  3A 10 C0            	ld	a,(replay_fade)
     618.  00:4C21                      1:
     619.  00:4C21  32 11 C0            	ld	(replay_fade_timer),a
     620.  00:4C24                      
     621.  00:4C24  3A 12 C0            	ld	a,(replay_fade_vol)
     622.  00:4C27  4F                  	ld	c,a
     623.  00:4C28  06 03               	ld	b,3
     624.  00:4C2A  21 A7 C1            	ld	hl,AY_regVOLA
     625.  00:4C2D  CD 35 4C            	call	0f
     626.  00:4C30  06 05               	ld	b,5
     627.  00:4C32  21 37 C2            	ld	hl,SCC_regVOLA
     628.  00:4C35                      0:	
     629.  00:4C35  7E                  	ld	a,(hl)
     630.  00:4C36  91                  	sub	c
     631.  00:4C37  D2 3B 4C            	jp	nc,99f
     632.  00:4C3A  AF                  	xor	a
     633.  00:4C3B  77                  99:	ld	(hl),a
     634.  00:4C3C  23                  	inc	hl
     635.  00:4C3D  10 F6               	djnz	0b
     636.  00:4C3F  C9                  	ret
     637.  00:4C40                      	
     638.  00:4C40                      replay_decode_chan:
     639.  00:4C40                      	;--- initialize data
     640.  00:4C40                      ;	ld	a,(ix+TRACK_Note)
     641.  00:4C40  32 13 C0            	ld	(replay_previous_note),a
     642.  00:4C43                      
     643.  00:4C43                      	;--- Check if retrig has ended
     644.  00:4C43  DD 35 13            	dec	(ix+TRACK_Retrig)
     645.  00:4C46  C2 4D 4C            	jp	nz,99f
     646.  00:4C49  DD CB F9 9E         	res 	B_TRGCMD,(ix+TRACK_Flags)
     647.  00:4C4D                      
     648.  00:4C4D                      99:
     649.  00:4C4D                      	;=============
     650.  00:4C4D                      	; Note 
     651.  00:4C4D                      	;=============
     652.  00:4C4D  0A                  	ld	a,(bc)
     653.  00:4C4E  FE 60               	cp	96
     654.  00:4C50                      
     655.  00:4C50  DA 91 4C            	jp	c,_replay_decode_note
     656.  00:4C53  CA 9D 4C            	jp	z,_replay_decode_rest
     657.  00:4C56  FE 70               _rdn2:cp	112;128
     658.  00:4C58  DA E4 4C            	jp	c,_replay_decode_vol
     659.  00:4C5B  FE 8F               _rdv2:cp	143
     660.  00:4C5D  DA A6 4C            	jp	c,_replay_decode_ins
     661.  00:4C60                      _rdi2:
     662.  00:4C60  FE BF               	cp	191
     663.  00:4C62  D2 F9 4C            	jp	nc,_replay_decode_delay
     664.  00:4C65  DA 06 4D            	jp	c,_replay_decode_cmd
     665.  00:4C68                      
     666.  00:4C68                      _rdn:
     667.  00:4C68  FE 61               	cp	97
     668.  00:4C6A  DA 8A 4C            	jp	c,_rd_delay
     669.  00:4C6D  C3 56 4C            	jp	_rdn2
     670.  00:4C70                      
     671.  00:4C70                      _rdi:
     672.  00:4C70  FE 8F               	cp	143
     673.  00:4C72  DA 8A 4C            	jp	c,_rd_delay
     674.  00:4C75  C3 60 4C            	jp	_rdi2
     675.  00:4C78                      
     676.  00:4C78                      _rdv:
     677.  00:4C78  FE 70               	cp	112
     678.  00:4C7A  DA 8A 4C            	jp	c,_rd_delay
     679.  00:4C7D  C3 5B 4C            	jp	_rdv2
     680.  00:4C80                      _rdc:
     681.  00:4C80  03                  	inc	bc
     682.  00:4C81  0A                  	ld	a,(bc)
     683.  00:4C82  FE BF               	cp	191
     684.  00:4C84  DA 8A 4C            	jp	c,_rd_delay
     685.  00:4C87  C3 F9 4C            	jp	_replay_decode_delay
     686.  00:4C8A                      
     687.  00:4C8A                      	;--- re-init previous delay
     688.  00:4C8A                      _rd_delay:
     689.  00:4C8A  DD 7E 12            	ld	a,(ix+TRACK_prevDelay)
     690.  00:4C8D  DD 77 11            	ld	(ix+TRACK_Delay),a
     691.  00:4C90                      
     692.  00:4C90  C9                  	ret
     693.  00:4C91                      
     694.  00:4C91                      
     695.  00:4C91                      
     696.  00:4C91                      _replay_decode_note:
     697.  00:4C91  DD 77 F7            	ld	(ix+TRACK_Note),a
     698.  00:4C94  CB C2               	set 	B_TRGNOT,d
     699.  00:4C96  CB A2               	res	B_ACTMOR,d
     700.  00:4C98                      
     701.  00:4C98  03                  	inc	bc
     702.  00:4C99  0A                  	ld	a,(bc)
     703.  00:4C9A  C3 68 4C            	jp	_rdn
     704.  00:4C9D                      	
     705.  00:4C9D                      _replay_decode_rest:
     706.  00:4C9D  CB 8A               	res	B_ACTNOT,d				; set	note bit to	0
     707.  00:4C9F  CB A2               	res	B_ACTMOR,d				; reset morph slave mode
     708.  00:4CA1                      
     709.  00:4CA1  03                  	inc	bc
     710.  00:4CA2  0A                  	ld	a,(bc)
     711.  00:4CA3  C3 68 4C            	jp	_rdn
     712.  00:4CA6                      
     713.  00:4CA6                      _replay_decode_ins:
     714.  00:4CA6  CB A2               	res	B_ACTMOR,d				; reset morph slave mode
     715.  00:4CA8  D6 70               	sub	112;97
     716.  00:4CAA  DD BE EF            	cp	(ix+TRACK_Instrument)
     717.  00:4CAD  CA DF 4C            	jp	z,0f
     718.  00:4CB0                      	
     719.  00:4CB0  DD 77 EF            	ld	(ix+TRACK_Instrument),a
     720.  00:4CB3                      
     721.  00:4CB3                      	;--- set instrument pointer
     722.  00:4CB3  87                  	add	a
     723.  00:4CB4  2A 08 C0            	ld	hl,(replay_insbase)
     724.  00:4CB7  85                  	add	a,l
     725.  00:4CB8  6F                  	ld	l,a
     726.  00:4CB9  D2 BD 4C            	jp	nc,99f
     727.  00:4CBC  24                  	inc	h
     728.  00:4CBD                      99:
     729.  00:4CBD  7E                  	ld	a,(hl)
     730.  00:4CBE  23                  	inc	hl
     731.  00:4CBF  66                  	ld	h,(hl)
     732.  00:4CC0  6F                  	ld	l,a
     733.  00:4CC1                      
     734.  00:4CC1                      	;-- get waveform
     735.  00:4CC1  7E                  	ld	a,(hl)
     736.  00:4CC2  23                  	inc	hl
     737.  00:4CC3                      	
     738.  00:4CC3  5E                  	ld	e,(hl)
     739.  00:4CC4  23                  	inc	hl
     740.  00:4CC5                      
     741.  00:4CC5                      	;---- Store the restart offset
     742.  00:4CC5  DD 73 F6            	ld	(ix+TRACK_MacroRestart),e
     743.  00:4CC8                      	;--- Store the macro start
     744.  00:4CC8  DD 75 F2            	ld	(ix+TRACK_MacroPointer),l
     745.  00:4CCB  DD 74 F3            	ld	(ix+TRACK_MacroPointer+1),h	
     746.  00:4CCE                      	;--- Store the macro re-start
     747.  00:4CCE  DD 75 F4            	ld	(ix+TRACK_MacroStart),l
     748.  00:4CD1  DD 74 F5            	ld	(ix+TRACK_MacroStart+1),h		
     749.  00:4CD4                      	;--- Set the waveform  (if needed)
     750.  00:4CD4  DD BE F0            	cp	(ix+TRACK_Waveform)
     751.  00:4CD7  CA DF 4C            	jp	z,0f
     752.  00:4CDA                      	
     753.  00:4CDA                      	;--- this is a new waveform
     754.  00:4CDA  DD 77 F0            	ld	(ix+TRACK_Waveform),a
     755.  00:4CDD  CB F2               	set	B_TRGWAV,d
     756.  00:4CDF                      	
     757.  00:4CDF                      0:	
     758.  00:4CDF  03                  	inc	bc
     759.  00:4CE0  0A                  	ld	a,(bc)
     760.  00:4CE1  C3 70 4C            	jp	_rdi
     761.  00:4CE4                      
     762.  00:4CE4                      _replay_decode_vol:
     763.  00:4CE4  D6 60               	sub	96;127
     764.  00:4CE6  87                  	add	a
     765.  00:4CE7  87                  	add	a
     766.  00:4CE8  87                  	add	a
     767.  00:4CE9  87                  	add	a
     768.  00:4CEA                      	
     769.  00:4CEA                      	;--- Set new base	volume (high byte) but keep relative offset (low byte)
     770.  00:4CEA  5F                  	ld	e,a
     771.  00:4CEB  DD 7E F8            	ld	a,(ix+TRACK_Volume)
     772.  00:4CEE  E6 0F               	and	0xf
     773.  00:4CF0  B3                  	or	e
     774.  00:4CF1  DD 77 F8            	ld	(ix+TRACK_Volume),a
     775.  00:4CF4                      
     776.  00:4CF4  03                  	inc	bc
     777.  00:4CF5  0A                  	ld	a,(bc)
     778.  00:4CF6  C3 78 4C            	jp	_rdv
     779.  00:4CF9                      
     780.  00:4CF9                      
     781.  00:4CF9                      _replay_decode_delay:
     782.  00:4CF9  D6 BF               	sub	191
     783.  00:4CFB  CA 8A 4C            	jp	z,_rd_delay		; EOT found
     784.  00:4CFE  DD 77 11            	ld	(ix+TRACK_Delay),a
     785.  00:4D01  DD 77 12            	ld	(ix+TRACK_prevDelay),a
     786.  00:4D04                      
     787.  00:4D04  03                  	inc	bc
     788.  00:4D05  C9                  	ret
     789.  00:4D06                      
     790.  00:4D06                      
     791.  00:4D06                      _replay_decode_cmd:
     792.  00:4D06                      
     793.  00:4D06  D6 8E               	sub	142
     794.  00:4D08  DD 77 F1            	ld	(ix+TRACK_Command),a
     795.  00:4D0B  21 1C 4D            	ld	hl,DECODE_CMDLIST
     796.  00:4D0E  87                  	add	a,a
     797.  00:4D0F  85                  	add	a,l
     798.  00:4D10  6F                  	ld	l,a
     799.  00:4D11  D2 15 4D            	jp	nc,99f
     800.  00:4D14  24                  	inc	h
     801.  00:4D15                      99:
     802.  00:4D15  7E                  	ld	a,(hl)
     803.  00:4D16  23                  	inc	hl
     804.  00:4D17  66                  	ld	h,(hl)
     805.  00:4D18  6F                  	ld	l,a
     806.  00:4D19                      	
     807.  00:4D19  03                  	inc	bc
     808.  00:4D1A  0A                  	ld	a,(bc)
     809.  00:4D1B  E9                  	jp	(hl)
     810.  00:4D1C                      
     811.  00:4D1C                      DECODE_CMDLIST:
     812.  00:4D1C                      	; These effects are only processed 1 once in decoding
     813.  00:4D1C  0B 4E               	dw	_CHIPcmdA_env_mul			;0
     814.  00:4D1E  20 4E               	dw	_CHIPcmdB_wave_res		;1
     815.  00:4D20  32 4E               	dw	_CHIPcmdF_wave_set		;2
     816.  00:4D22  3C 4E               	dw	_CHIPcmd10_morph_slave		;3
     817.  00:4D24  42 4E               	dw	_CHIPcmd11_morph_start		;4
     818.  00:4D26  6B 4E               	dw	_CHIPcmd12_morph_cont		;5
     819.  00:4D28  9A 4E               	dw	_CHIPcmd16_vib_ctrl		;6
     820.  00:4D2A  C0 4E               	dw	_CHIPcmd17_track_detune		;7
     821.  00:4D2C  DF 4E               	dw	_CHIPcmd18_transpose		;8
     822.  00:4D2E  2C 4F               	dw	_CHIPcmd1A_trigger		;9
     823.  00:4D30  32 4F               	dw	_CHIPcmd1B_speed			;a
     824.  00:4D32  45 4F               	dw	_CHIPcmd1C_notelink		;b
     825.  00:4D34                      ;	dw	_CHIPcmd1C_call			;b	
     826.  00:4D34  4B 4F               	dw	_CHIPcmd1D_ret			;c
     827.  00:4D36                      	
     828.  00:4D36                      	; These effects are also processed in the processing
     829.  00:4D36  28 4E               	dw	_CHIPcmdC_wave_duty		;d
     830.  00:4D38  28 4E               	dw	_CHIPcmdD_wave_cut		;e
     831.  00:4D3A  28 4E               	dw	_CHIPcmdE_wave_compr		;f
     832.  00:4D3C  82 4E               	dw	_CHIPcmd13_short_arp		;10
     833.  00:4D3E  8E 4E               	dw	_CHIPcmd14_fine_up		;11
     834.  00:4D40  8E 4E               	dw	_CHIPcmd15_fine_down		;12
     835.  00:4D42  0E 4F               	dw	_CHIPcmd19_note_delay		;13
     836.  00:4D44  05 4F               	dw	_CHIPcmdXX_note_cut		;14
     837.  00:4D46                      
     838.  00:4D46                      	; These effects can be retriggered
     839.  00:4D46  6E 4D               	dw	_CHIPcmd0_arpeggio		;15
     840.  00:4D48  7A 4D               	dw	_CHIPcmd1_port_up			;16
     841.  00:4D4A  82 4D               	dw	_CHIPcmd2_port_down		;17
     842.  00:4D4C  90 4D               	dw	_CHIPcmd3_port_tone		;18
     843.  00:4D4E  DA 4D               	dw	_CHIPcmd4_vibrato			;19
     844.  00:4D50  F4 4D               	dw	_CHIPcmd5_vibrato_port_tone	;1a
     845.  00:4D52  F4 4D               	dw	_CHIPcmd6_vibrato_vol		;1b
     846.  00:4D54  F4 4D               	dw	_CHIPcmd7_vol_slide		;1c
     847.  00:4D56  00 4E               	dw	_CHIPcmd8_macro_offset		;1d
     848.  00:4D58  03 4E               	dw	_CHIPcmd9_env_shape		;1e
     849.  00:4D5A                      
     850.  00:4D5A  4F 4F               	dw	_CHIPcmd0_RE_arpeggio		;1f
     851.  00:4D5C  53 4F               	dw	_CHIPcmd1_RE_port_up		;20
     852.  00:4D5E  53 4F               	dw	_CHIPcmd2_RE_port_down		;21
     853.  00:4D60  8A 4D               	dw	_CHIPcmd3_RE_port_tone		;22
     854.  00:4D62  53 4F               	dw	_CHIPcmd4_RE_vibrato		;23
     855.  00:4D64  5B 4F               	dw	_CHIPcmd5_RE_vibrato_port_tone;24
     856.  00:4D66  5B 4F               	dw	_CHIPcmd6_RE_vibrato_vol	;25
     857.  00:4D68  5B 4F               	dw	_CHIPcmd7_RE_vol_slide		;26
     858.  00:4D6A  67 4F               	dw	_CHIPcmd8_RE_macro_offset	;27
     859.  00:4D6C  73 4F               	dw	_CHIPcmd9_RE_env_shape		;28
     860.  00:4D6E                      
     861.  00:4D6E                      
     862.  00:4D6E                      
     863.  00:4D6E                      _CHIPcmd0_arpeggio:
     864.  00:4D6E                      	; in:	[A] contains the paramvalue
     865.  00:4D6E                      	; 
     866.  00:4D6E                      	; ! do not change	[BC] this is the data pointer
     867.  00:4D6E                      	;--------------------------------------------------
     868.  00:4D6E                      	; Cycles between note, note+x	halftones, note+y
     869.  00:4D6E                      	; halftones. 
     870.  00:4D6E                      	; Ex:	(MOD/XM: C-4 01 .. 037)	This will play 
     871.  00:4D6E                      	; C-4, C-4+3 semitones andC-4+7 semitones. 
     872.  00:4D6E  DD 77 05            	ld	(ix+TRACK_cmd_0),a
     873.  00:4D71  CB DA               	set	B_TRGCMD,d
     874.  00:4D73  DD 36 0F 00         	ld	(ix+TRACK_Timer),0
     875.  00:4D77                      
     876.  00:4D77  C3 80 4C            	jp	_rdc
     877.  00:4D7A                      	
     878.  00:4D7A                      _CHIPcmd1_port_up:
     879.  00:4D7A                      	; in:	[A] contains the paramvalue
     880.  00:4D7A                      	; 
     881.  00:4D7A                      	; ! do not change	[BC] this is the data pointer
     882.  00:4D7A                      	;--------------------------------------------------
     883.  00:4D7A                      	; This will	slide	up the pitch of the current note
     884.  00:4D7A                      	; being played by	the given speed. 
     885.  00:4D7A  DD 77 06            	ld	(ix+TRACK_cmd_1),a
     886.  00:4D7D  CB DA               	set	B_TRGCMD,d
     887.  00:4D7F                      
     888.  00:4D7F  C3 80 4C            	jp	_rdc
     889.  00:4D82                      	
     890.  00:4D82                      	
     891.  00:4D82                      	 
     892.  00:4D82                      _CHIPcmd2_port_down:
     893.  00:4D82                      	; in:	[A] contains the paramvalue
     894.  00:4D82                      	; 
     895.  00:4D82                      	; ! do not change	[BC] this is the data pointer
     896.  00:4D82                      	;--------------------------------------------------
     897.  00:4D82                      	; This will	slide	down the pitch of	the current	note
     898.  00:4D82                      	; being played by	the given speed.	
     899.  00:4D82  DD 77 07            	ld	(ix+TRACK_cmd_2),a
     900.  00:4D85  CB DA               	set	B_TRGCMD,d
     901.  00:4D87                      
     902.  00:4D87  C3 80 4C            	jp	_rdc
     903.  00:4D8A                      	
     904.  00:4D8A                      
     905.  00:4D8A                      _CHIPcmd3_RE_port_tone:
     906.  00:4D8A  DD 77 13            	ld	(ix+TRACK_Retrig),a
     907.  00:4D8D  C3 97 4D            	jp	0f	
     908.  00:4D90                      _CHIPcmd3_port_tone:
     909.  00:4D90                      	; in:	[A] contains the paramvalue
     910.  00:4D90                      	; 
     911.  00:4D90                      	; ! do not change	[BC] this is the data pointer
     912.  00:4D90                      	;--------------------------------------------------
     913.  00:4D90                      	; This command is	used together with a note, and 
     914.  00:4D90                      	; will bend	the current	pitch	at the given speed
     915.  00:4D90                      	; towards the specified	note.	Example:
     916.  00:4D90                      	;	C-4 1....
     917.  00:4D90                      	;	F-4 ..305 (bend the note up towards	F-4)
     918.  00:4D90                      	;	... ..300 (continue to slide up, until F-4
     919.  00:4D90                      	;						  is reached
     920.  00:4D90                      
     921.  00:4D90                      
     922.  00:4D90  DD 77 08            	ld	(ix+TRACK_cmd_3),a
     923.  00:4D93  DD 36 0F 02         	ld	(ix+TRACK_Timer),2
     924.  00:4D97                      0:
     925.  00:4D97  CB DA               	set	B_TRGCMD,d
     926.  00:4D99  CB CA               	set	B_ACTNOT,d
     927.  00:4D9B                      	;--- Check if we have a	note on the	same event
     928.  00:4D9B  CB 42               	bit	B_TRGNOT,d
     929.  00:4D9D  CA 80 4C            	jp	z,_rdc
     930.  00:4DA0                      
     931.  00:4DA0                      	;-- get the	previous note freq
     932.  00:4DA0  3A 13 C0            	ld	a,(replay_previous_note)
     933.  00:4DA3  87                  	add	a
     934.  00:4DA4                      
     935.  00:4DA4  D9                  	exx
     936.  00:4DA5  2A 18 C0            	ld	hl,(replay_Tonetable)	;TRACK_ToneTable
     937.  00:4DA8  85                  	add	a,l
     938.  00:4DA9  6F                  	ld	l,a
     939.  00:4DAA  D2 AE 4D            	jp	nc,99f
     940.  00:4DAD  24                  	inc	h
     941.  00:4DAE                      99:
     942.  00:4DAE  5E                  	ld	e,(hl)
     943.  00:4DAF  23                  	inc	hl
     944.  00:4DB0  56                  	ld	d,(hl)
     945.  00:4DB1                      
     946.  00:4DB1                      	; add	the toneadd
     947.  00:4DB1  DD 6E 00            	ld	l,(ix+TRACK_cmd_ToneSlideAdd)
     948.  00:4DB4  DD 66 01            	ld	h,(ix+TRACK_cmd_ToneSlideAdd+1)
     949.  00:4DB7                      
     950.  00:4DB7  19                  	add	hl,de	
     951.  00:4DB8  EB                  	ex	de,hl				; store current freq in	[de]
     952.  00:4DB9                      
     953.  00:4DB9                      	;--- get the current note freq
     954.  00:4DB9  DD 7E F7            	ld	a,(ix+TRACK_Note)
     955.  00:4DBC  87                  	add	a
     956.  00:4DBD  2A 18 C0            	ld	hl,(replay_Tonetable)	;TRACK_ToneTable
     957.  00:4DC0  85                  	add	a,l
     958.  00:4DC1  6F                  	ld	l,a
     959.  00:4DC2  D2 C6 4D            	jp	nc,99f
     960.  00:4DC5  24                  	inc	h
     961.  00:4DC6                      99:
     962.  00:4DC6  7E                  	ld	a,(hl)
     963.  00:4DC7  23                  	inc	hl
     964.  00:4DC8  66                  	ld	h,(hl)
     965.  00:4DC9  6F                  	ld	l,a				; destination freq in [hl]
     966.  00:4DCA                      	
     967.  00:4DCA                      	;--- Calculate the delta
     968.  00:4DCA  AF                  	xor	a
     969.  00:4DCB  EB                  	ex	de,hl
     970.  00:4DCC  ED 52               	sbc	hl,de				; results in pos/neg delta
     971.  00:4DCE                      	
     972.  00:4DCE  DD 75 00            	ld	(ix+TRACK_cmd_ToneSlideAdd),l
     973.  00:4DD1  DD 74 01            	ld	(ix+TRACK_cmd_ToneSlideAdd+1),h	
     974.  00:4DD4  D9                  	exx
     975.  00:4DD5                      	
     976.  00:4DD5  CB 82               	res	B_TRGNOT,d
     977.  00:4DD7                      
     978.  00:4DD7  C3 80 4C            	jp	_rdc	
     979.  00:4DDA                      
     980.  00:4DDA                      	
     981.  00:4DDA                      _CHIPcmd4_vibrato:
     982.  00:4DDA                      	; in:	[A] contains the paramvalue
     983.  00:4DDA                      	; 
     984.  00:4DDA                      	; ! do not change	[BC] this is the data pointer
     985.  00:4DDA                      	;--------------------------------------------------
     986.  00:4DDA                      	; Vibrato with speed x and depth y.	This command 
     987.  00:4DDA                      	; will oscillate the frequency of the current note
     988.  00:4DDA                      	; with a sine wave. (You can change	the vibrato
     989.  00:4DDA                      	; waveform to a triangle wave, a square wave, or a
     990.  00:4DDA                      	; random table by	using	the E4x command).
     991.  00:4DDA                      	;--- Init values
     992.  00:4DDA  5F                  	ld	e,a
     993.  00:4DDB  E6 07               	and	$07
     994.  00:4DDD                      
     995.  00:4DDD  DD 77 09            	ld	(ix+TRACK_cmd_4_depth),a
     996.  00:4DE0  7B                  	ld	a,e
     997.  00:4DE1  1F                  	rra
     998.  00:4DE2  1F                  	rra
     999.  00:4DE3  1F                  	rra
    1000.  00:4DE4  1F                  	rra
    1001.  00:4DE5  E6 0F               	and	$0f
    1002.  00:4DE7  DD 77 0A            	ld	(ix+TRACK_cmd_4_step),a
    1003.  00:4DEA  ED 44               	neg	
    1004.  00:4DEC  DD 77 10            	ld	(ix+TRACK_Step),a
    1005.  00:4DEF                      	
    1006.  00:4DEF  CB DA               	set	B_TRGCMD,d
    1007.  00:4DF1  C3 80 4C            	jp	_rdc	
    1008.  00:4DF4                      
    1009.  00:4DF4                      
    1010.  00:4DF4                      _CHIPcmd5_vibrato_port_tone:
    1011.  00:4DF4                      	; in:	[A] contains the paramvalue
    1012.  00:4DF4                      	; 
    1013.  00:4DF4                      	; ! do not change	[BC] this is the data pointer
    1014.  00:4DF4                      	;--------------------------------------------------
    1015.  00:4DF4                      	; portTone	+ volumeslide
    1016.  00:4DF4                      	;--- Init values
    1017.  00:4DF4                      _CHIPcmd6_vibrato_vol:
    1018.  00:4DF4                      	; in:	[A] contains the paramvalue
    1019.  00:4DF4                      	; 
    1020.  00:4DF4                      	; ! do not change	[BC] this is the data pointer
    1021.  00:4DF4                      	;--------------------------------------------------
    1022.  00:4DF4                      _CHIPcmd7_vol_slide:
    1023.  00:4DF4                      	; in:	[A] contains the paramvalue
    1024.  00:4DF4                      	; 
    1025.  00:4DF4                      	; ! do not change	[BC] this is the data pointer
    1026.  00:4DF4                      	;--------------------------------------------------
    1027.  00:4DF4                      	; slide the	volume up or down	1 step.
    1028.  00:4DF4                      	; The	x or y param  set	the delay*2	(x=up,y=down)
    1029.  00:4DF4                      	; With A00 the previous	value	is used.
    1030.  00:4DF4                      	
    1031.  00:4DF4  DD 77 0C            	ld	(ix+TRACK_cmd_A),a
    1032.  00:4DF7  CB DA               	set	B_TRGCMD,d
    1033.  00:4DF9  DD 36 0F 01         	ld	(ix+TRACK_Timer),1
    1034.  00:4DFD                      
    1035.  00:4DFD  C3 80 4C            	jp	_rdc
    1036.  00:4E00                      
    1037.  00:4E00                      
    1038.  00:4E00                      
    1039.  00:4E00                      _CHIPcmd8_macro_offset:
    1040.  00:4E00                      	; in:	[A] contains the paramvalue
    1041.  00:4E00                      	; 
    1042.  00:4E00                      	; ! do not change	[BC] this is the data pointer
    1043.  00:4E00                      	;--------------------------------------------------
    1044.  00:4E00                      	; This command, when used together with a	note,	
    1045.  00:4E00                      	; will start playing the sample at the position	xx 
    1046.  00:4E00                      	; (instead of position 0). If	xx is	00 (900), the 
    1047.  00:4E00                      	; previous value will be used.
    1048.  00:4E00                      
    1049.  00:4E00                      	;--- Init values
    1050.  00:4E00                      	; NOT SUPPORTED ANYMORE
    1051.  00:4E00  C3 80 4C            	jp	_rdc
    1052.  00:4E03                      
    1053.  00:4E03                      
    1054.  00:4E03                      
    1055.  00:4E03                      
    1056.  00:4E03                      _CHIPcmd9_env_shape:
    1057.  00:4E03  CB D2               	set	B_TRGENV,d
    1058.  00:4E05  32 AC C1            	ld	(AY_regEnvShape),a
    1059.  00:4E08                      
    1060.  00:4E08  C3 80 4C            	jp	_rdc
    1061.  00:4E0B                      
    1062.  00:4E0B                      
    1063.  00:4E0B                      	; in:	[A] contains the paramvalue
    1064.  00:4E0B                      	; 
    1065.  00:4E0B                      	; ! do not change	[BC] this is the data pointer
    1066.  00:4E0B                      	;--------------------------------------------------
    1067.  00:4E0B                      	; This command set the envelope frequency using a
    1068.  00:4E0B                      	; multiplier value (00-ff)
    1069.  00:4E0B                      _CHIPcmdA_env_mul:
    1070.  00:4E0B  57                  	ld	d,a
    1071.  00:4E0C  AF                  	xor	a
    1072.  00:4E0D  CB 3A               	srl	d
    1073.  00:4E0F  1F                  	rra	
    1074.  00:4E10  CB 3A               	srl	d
    1075.  00:4E12  1F                  	rra		
    1076.  00:4E13  CB 3A               	srl	d
    1077.  00:4E15  1F                  	rra	
    1078.  00:4E16  32 AA C1            	ld	(AY_regEnvL),a
    1079.  00:4E19  7A                  	ld	a,d
    1080.  00:4E1A  32 AB C1            	ld	(AY_regEnvH),a
    1081.  00:4E1D                      	
    1082.  00:4E1D  C3 80 4C            	jp	_rdc	
    1083.  00:4E20                      
    1084.  00:4E20                      
    1085.  00:4E20                      
    1086.  00:4E20                      _CHIPcmdB_wave_res:
    1087.  00:4E20  CB F2               	set	B_TRGWAV,d
    1088.  00:4E22  CB A2               	res	B_ACTMOR,d
    1089.  00:4E24                      
    1090.  00:4E24  0B                  	dec 	bc
    1091.  00:4E25  C3 80 4C            	jp	_rdc
    1092.  00:4E28                      
    1093.  00:4E28                      
    1094.  00:4E28                      _CHIPcmdC_wave_duty:
    1095.  00:4E28                      _CHIPcmdD_wave_cut:
    1096.  00:4E28                      _CHIPcmdE_wave_compr:
    1097.  00:4E28  DD 77 0D            	ld	(ix+TRACK_cmd_B),a
    1098.  00:4E2B  CB DA               	set	B_TRGCMD,d
    1099.  00:4E2D  CB A2               	res	B_ACTMOR,d
    1100.  00:4E2F                      
    1101.  00:4E2F  C3 80 4C            	jp	_rdc	
    1102.  00:4E32                      
    1103.  00:4E32                      
    1104.  00:4E32                      _CHIPcmdF_wave_set:
    1105.  00:4E32  DD 77 F0            	ld	(ix+TRACK_Waveform),a
    1106.  00:4E35  CB F2               	set	B_TRGWAV,d
    1107.  00:4E37  CB A2               	res	B_ACTMOR,d
    1108.  00:4E39                      
    1109.  00:4E39  C3 80 4C            	jp	_rdc	
    1110.  00:4E3C                      
    1111.  00:4E3C                      
    1112.  00:4E3C                      _CHIPcmd10_morph_slave:
    1113.  00:4E3C  CB E2               	set	B_ACTMOR,d
    1114.  00:4E3E                      	
    1115.  00:4E3E  0B                  	dec 	bc
    1116.  00:4E3F  C3 80 4C            	jp	_rdc	
    1117.  00:4E42                      	
    1118.  00:4E42                      _CHIPcmd11_morph_start:
    1119.  00:4E42  E6 0F               	and	0x0f
    1120.  00:4E44  32 1C C0            	ld	(replay_morph_speed),a
    1121.  00:4E47                      	
    1122.  00:4E47  D9                  	exx
    1123.  00:4E48                      	;--- load the waveformbuffer
    1124.  00:4E48  DD 7E F0            	ld	a,(ix+TRACK_Waveform)
    1125.  00:4E4B  87                  	add	a,a
    1126.  00:4E4C  87                  	add	a,a
    1127.  00:4E4D  87                  	add	a,a	
    1128.  00:4E4E                      
    1129.  00:4E4E  6F                  	ld	l,a
    1130.  00:4E4F  26 00               	ld	h,0
    1131.  00:4E51  29                  	add	hl,hl
    1132.  00:4E52  29                  	add	hl,hl
    1133.  00:4E53                      		
    1134.  00:4E53  ED 5B 06 C0         	ld	de,(replay_wavebase)
    1135.  00:4E57  19                  	add	hl,de
    1136.  00:4E58                      
    1137.  00:4E58  11 1E C0            	ld	de,replay_morph_buffer
    1138.  00:4E5B  3E 20               	ld	a,32
    1139.  00:4E5D                      44:
    1140.  00:4E5D  08                  	ex	af,af'	;'
    1141.  00:4E5E  7E                  	ld	a,(hl)
    1142.  00:4E5F  12                  	ld	(de),a		; copy value to both wave and delta pos
    1143.  00:4E60  13                  	inc	de
    1144.  00:4E61  12                  	ld	(de),a
    1145.  00:4E62  23                  	inc	hl
    1146.  00:4E63  13                  	inc	de
    1147.  00:4E64  08                  	ex	af,af'	;'
    1148.  00:4E65  3D                  	dec	a
    1149.  00:4E66  C2 5D 4E            	jp	nz,44b
    1150.  00:4E69  D9                  	exx
    1151.  00:4E6A                      	
    1152.  00:4E6A  0A                  	ld	a,(bc)
    1153.  00:4E6B                      
    1154.  00:4E6B                      _CHIPcmd12_morph_cont:
    1155.  00:4E6B                      	;---- init new morph
    1156.  00:4E6B  E6 F0               	and	0xf0	
    1157.  00:4E6D  32 5E C0            	ld	(replay_morph_waveform),a	; store dest form offset
    1158.  00:4E70                      	
    1159.  00:4E70  AF                  	xor	a
    1160.  00:4E71  32 1D C0            	ld	(replay_morph_counter),a
    1161.  00:4E74  3C                  	inc	a
    1162.  00:4E75  32 1B C0            	ld	(replay_morph_timer),a
    1163.  00:4E78                      
    1164.  00:4E78                      	;--- calculate the delta's	
    1165.  00:4E78  3E FF               	ld	a,255				; 255 triggers calc init
    1166.  00:4E7A  32 1A C0            	ld	(replay_morph_active),a	
    1167.  00:4E7D                      
    1168.  00:4E7D  CB E2               	set	B_ACTMOR,d
    1169.  00:4E7F  C3 80 4C            	jp	_rdc		
    1170.  00:4E82                      	
    1171.  00:4E82                      
    1172.  00:4E82                      _CHIPcmd13_short_arp:
    1173.  00:4E82  DD 77 0E            	ld	(ix+TRACK_cmd_E),a		; store the halve not to add
    1174.  00:4E85  DD 36 0F 00         	ld	(ix+TRACK_Timer),0
    1175.  00:4E89                      
    1176.  00:4E89  CB DA               	set	B_TRGCMD,d		; command active
    1177.  00:4E8B  C3 80 4C            	jp	_rdc	
    1178.  00:4E8E                      	
    1179.  00:4E8E                      	
    1180.  00:4E8E                      _CHIPcmd14_fine_up:
    1181.  00:4E8E                      _CHIPcmd15_fine_down:
    1182.  00:4E8E  DD 77 0E            	ld	(ix+TRACK_cmd_E),a
    1183.  00:4E91  DD 36 0F 02         	ld	(ix+TRACK_Timer),2
    1184.  00:4E95  CB DA               	set	B_TRGCMD,d		; command active
    1185.  00:4E97                      
    1186.  00:4E97  C3 80 4C            	jp	_rdc	
    1187.  00:4E9A                      
    1188.  00:4E9A                      
    1189.  00:4E9A                      _CHIPcmd16_vib_ctrl:
    1190.  00:4E9A  21 40 A2            	ld	hl,TRACK_Vibrato_sine
    1191.  00:4E9D  FE 01               	cp	1
    1192.  00:4E9F  DA B7 4E            	jp	c,_cmd16_sine
    1193.  00:4EA2  CA AE 4E            	jp	z,_cmd16_tri
    1194.  00:4EA5                      _cmd16_pulse:
    1195.  00:4EA5  21 80 A2            	ld	hl,TRACK_Vibrato_pulse
    1196.  00:4EA8  22 16 C0            	ld	(replay_vib_table),hl
    1197.  00:4EAB  C3 80 4C            	jp	_rdc
    1198.  00:4EAE                      _cmd16_tri:
    1199.  00:4EAE  21 60 A2            	ld	hl,TRACK_Vibrato_triangle
    1200.  00:4EB1  22 16 C0            	ld	(replay_vib_table),hl
    1201.  00:4EB4  C3 80 4C            	jp	_rdc	
    1202.  00:4EB7                      
    1203.  00:4EB7                      _cmd16_sine:
    1204.  00:4EB7  21 40 A2            	ld	hl,TRACK_Vibrato_sine
    1205.  00:4EBA  22 16 C0            	ld	(replay_vib_table),hl
    1206.  00:4EBD  C3 80 4C            	jp	_rdc
    1207.  00:4EC0                      
    1208.  00:4EC0                      
    1209.  00:4EC0                      
    1210.  00:4EC0                      _CHIPcmd17_track_detune:
    1211.  00:4EC0                      	; This command sets the	detune of the track.
    1212.  00:4EC0  5F                  	ld	e,a
    1213.  00:4EC1  E6 07               	and	0x07		; low	4 bits is value
    1214.  00:4EC3  CB 5B               	bit	3,e		; Center around 8
    1215.  00:4EC5  CA D5 4E            	jp	z,99f
    1216.  00:4EC8  3C                  	inc	a
    1217.  00:4EC9  ED 44               	neg			; make correct value
    1218.  00:4ECB  DD 77 04            	ld	(ix+TRACK_cmd_detune),a
    1219.  00:4ECE  DD 36 05 FF         	ld	(ix+TRACK_cmd_detune+1),0xff
    1220.  00:4ED2                      
    1221.  00:4ED2  C3 80 4C            	jp	_rdc	
    1222.  00:4ED5                      
    1223.  00:4ED5                      
    1224.  00:4ED5                      99:
    1225.  00:4ED5  DD 77 04            	ld	(ix+TRACK_cmd_detune),a
    1226.  00:4ED8  DD 36 05 00         	ld	(ix+TRACK_cmd_detune+1),0x00	
    1227.  00:4EDC                      
    1228.  00:4EDC  C3 80 4C            	jp	_rdc	
    1229.  00:4EDF                      
    1230.  00:4EDF                      
    1231.  00:4EDF                      ; This command sets the	detune of the track.	
    1232.  00:4EDF                      _CHIPcmd18_transpose:
    1233.  00:4EDF  5F                  	ld	e,a
    1234.  00:4EE0  87                  	add	a
    1235.  00:4EE1  21 80 A1            	ld	hl,TRACK_ToneTable		;(replay_Tonetable)
    1236.  00:4EE4  E6 0F               	and	15		; low	4 bits is value
    1237.  00:4EE6  CB 5B               	bit	3,e		; Center around 8
    1238.  00:4EE8  CA F9 4E            	jp	z,0f
    1239.  00:4EEB                      
    1240.  00:4EEB                      	;neg	
    1241.  00:4EEB  ED 44               	neg	
    1242.  00:4EED  85                  	add	a,l
    1243.  00:4EEE  6F                  	ld	l,a
    1244.  00:4EEF  D2 F3 4E            	jp	nc,99f
    1245.  00:4EF2  25                  	dec	h
    1246.  00:4EF3                      99:
    1247.  00:4EF3  22 18 C0            	ld	(replay_Tonetable),hl
    1248.  00:4EF6  C3 80 4C            	jp	_rdc
    1249.  00:4EF9                      ; pos
    1250.  00:4EF9                      0:	
    1251.  00:4EF9  85                  	add	a,l
    1252.  00:4EFA  6F                  	ld	l,a
    1253.  00:4EFB  D2 FF 4E            	jp	nc,99f
    1254.  00:4EFE  24                  	inc	h
    1255.  00:4EFF                      99:
    1256.  00:4EFF  22 18 C0            	ld	(replay_Tonetable),hl
    1257.  00:4F02  C3 80 4C            	jp	_rdc
    1258.  00:4F05                      
    1259.  00:4F05                      _CHIPcmdXX_note_cut:
    1260.  00:4F05  CB DA               	set	B_TRGCMD,d
    1261.  00:4F07  3C                  	inc	a
    1262.  00:4F08  DD 77 0F            	ld	(ix+TRACK_Timer),a		; set	the timer to param y
    1263.  00:4F0B  C3 80 4C            	jp 	_rdc
    1264.  00:4F0E                      
    1265.  00:4F0E                      
    1266.  00:4F0E                      _CHIPcmd19_note_delay:
    1267.  00:4F0E  CB 42               	bit	B_TRGNOT,d		; is there a note	in this eventstep?
    1268.  00:4F10  CA 80 4C            	jp	z,_rdc
    1269.  00:4F13                      0:	
    1270.  00:4F13  CB DA               	set	B_TRGCMD,d					; command active
    1271.  00:4F15  3C                  	inc	a
    1272.  00:4F16  DD 77 0F            	ld	(ix+TRACK_Timer),a			; set	the timer to param y
    1273.  00:4F19  DD 7E F7            	ld	a,(ix+TRACK_Note)
    1274.  00:4F1C  DD 77 0E            	ld	(ix+TRACK_cmd_E),a			; store the	new note
    1275.  00:4F1F  3A 13 C0            	ld	a,(replay_previous_note)
    1276.  00:4F22  DD 77 F7            	ld	(ix+TRACK_Note),a				; restore the old	note
    1277.  00:4F25  DD CB F9 86         	res	B_TRGNOT,(ix+TRACK_Flags)		; reset any	triggernote
    1278.  00:4F29                      
    1279.  00:4F29  C3 80 4C            	jp	_rdc	
    1280.  00:4F2C                      
    1281.  00:4F2C                      
    1282.  00:4F2C                      
    1283.  00:4F2C                      _CHIPcmd1A_trigger:
    1284.  00:4F2C  32 01 C0            	ld	(replay_trigger),a
    1285.  00:4F2F  C3 80 4C            	jp	_rdc		
    1286.  00:4F32                      
    1287.  00:4F32                      
    1288.  00:4F32                      _CHIPcmd1B_speed:
    1289.  00:4F32  32 0C C0            	ld	(replay_speed),a
    1290.  00:4F35                      	;--- Reset Timer == 0
    1291.  00:4F35  CB 3F               	srl	a				; divide speed with 2
    1292.  00:4F37  5F                  	ld	e,a
    1293.  00:4F38  3E 00               	ld	a,0				
    1294.  00:4F3A  8F                  	adc	a				; store carry of shift as subtimer
    1295.  00:4F3B  32 0D C0            	ld	(replay_speed_subtimer),a
    1296.  00:4F3E  83                  	add	a,e
    1297.  00:4F3F  32 0E C0            	ld	(replay_speed_timer),a
    1298.  00:4F42                      
    1299.  00:4F42  C3 80 4C            	jp	_rdc	
    1300.  00:4F45                      	
    1301.  00:4F45                      _CHIPcmd1C_notelink:
    1302.  00:4F45  CB 82               	res	B_TRGNOT,d
    1303.  00:4F47  0B                  	dec 	bc
    1304.  00:4F48  C3 80 4C            	jp	_rdc	
    1305.  00:4F4B                      _CHIPcmd1C_call:
    1306.  00:4F4B                      _CHIPcmd1D_ret:
    1307.  00:4F4B                      	;< not implemented yet>
    1308.  00:4F4B  0B                  	dec 	bc
    1309.  00:4F4C  C3 80 4C            	jp	_rdc	
    1310.  00:4F4F                      
    1311.  00:4F4F                      
    1312.  00:4F4F                      
    1313.  00:4F4F                      
    1314.  00:4F4F                      _CHIPcmd0_RE_arpeggio:
    1315.  00:4F4F  DD 36 0F 00         	ld	(ix+TRACK_Timer),0
    1316.  00:4F53                      	
    1317.  00:4F53                      _CHIPcmd1_RE_port_up:	
    1318.  00:4F53                      _CHIPcmd2_RE_port_down:
    1319.  00:4F53                      _CHIPcmd4_RE_vibrato:
    1320.  00:4F53  CB DA               	set	B_TRGCMD,d
    1321.  00:4F55  DD 77 13            	ld	(ix+TRACK_Retrig),a
    1322.  00:4F58  C3 80 4C            	jp	_rdc		
    1323.  00:4F5B                      	
    1324.  00:4F5B                      _CHIPcmd5_RE_vibrato_port_tone:
    1325.  00:4F5B                      _CHIPcmd6_RE_vibrato_vol:
    1326.  00:4F5B                      _CHIPcmd7_RE_vol_slide:
    1327.  00:4F5B  CB DA               	set	B_TRGCMD,d
    1328.  00:4F5D  DD 36 0F 01         	ld	(ix+TRACK_Timer),1
    1329.  00:4F61  DD 77 13            	ld	(ix+TRACK_Retrig),a
    1330.  00:4F64  C3 80 4C            	jp	_rdc
    1331.  00:4F67                      		
    1332.  00:4F67                      _CHIPcmd8_RE_macro_offset:	
    1333.  00:4F67  CB DA               	set	B_TRGCMD,d
    1334.  00:4F69  DD 36 0F 02         	ld	(ix+TRACK_Timer),2
    1335.  00:4F6D  DD 77 13            	ld	(ix+TRACK_Retrig),a
    1336.  00:4F70  C3 80 4C            	jp	_rdc			
    1337.  00:4F73                      
    1338.  00:4F73                      _CHIPcmd9_RE_env_shape:
    1339.  00:4F73  CB D2               	set	B_TRGENV,d
    1340.  00:4F75  DD 77 13            	ld	(ix+TRACK_Retrig),a
    1341.  00:4F78  C3 80 4C            	jp	_rdc	
    1342.  00:4F7B                      
    1343.  00:4F7B                      
    1344.  00:4F7B                      
    1345.  00:4F7B                      ;===========================================================
    1346.  00:4F7B                      ; ---replay_route
    1347.  00:4F7B                      ; Output the data	to the CHIP	registers
    1348.  00:4F7B                      ; 
    1349.  00:4F7B                      ; in HL is the current tone freq
    1350.  00:4F7B                      ; in D is TRACK_FLAGS  
    1351.  00:4F7B                      ;===========================================================
    1352.  00:4F7B                      replay_process_chan_AY:
    1353.  00:4F7B                      
    1354.  00:4F7B                      	;-- set the	mixer	right
    1355.  00:4F7B  21 3C C2            	ld	hl,SCC_regMIXER   
    1356.  00:4F7E  CB 3E               	srl	(hl)
    1357.  00:4F80                      
    1358.  00:4F80                      	;=====
    1359.  00:4F80                      	; COMMAND
    1360.  00:4F80                      	;=====
    1361.  00:4F80  CB 5A               	bit	B_TRGCMD,d	;(ix+TRACK_Flags)
    1362.  00:4F82  CA 97 4F            	jp	z,_pcAY_noCommand
    1363.  00:4F85                      	
    1364.  00:4F85  21 B7 50            	ld	hl,_pcAY_cmdlist-26
    1365.  00:4F88  DD 7E F1            	ld	a,(ix+TRACK_Command)
    1366.  00:4F8B  87                  	add	a
    1367.  00:4F8C  85                  	add	a,l
    1368.  00:4F8D  6F                  	ld	l,a
    1369.  00:4F8E  D2 92 4F            	jp	nc,99f
    1370.  00:4F91  24                  	inc	h
    1371.  00:4F92                      99:
    1372.  00:4F92  7E                  	ld	a,(hl)
    1373.  00:4F93  23                  	inc	hl
    1374.  00:4F94  66                  	ld	h,(hl)
    1375.  00:4F95  6F                  	ld	l,a	
    1376.  00:4F96  E9                  	jp	(hl)
    1377.  00:4F97                      	
    1378.  00:4F97                      _pcAY_noCommand:	
    1379.  00:4F97                      _pcAY_commandEND:
    1380.  00:4F97                      
    1381.  00:4F97                      	;=====
    1382.  00:4F97                      	; NOTE
    1383.  00:4F97                      	;=====
    1384.  00:4F97                      	;--- Check if we need to trigger a new note
    1385.  00:4F97  CB 42               	bit	B_TRGNOT,d	;(ix+TRACK_Flags)
    1386.  00:4F99  CA C0 4F            	jp	z,_pcAY_noNoteTrigger
    1387.  00:4F9C                      	
    1388.  00:4F9C                      
    1389.  00:4F9C                      _pcAY_triggerNote:	
    1390.  00:4F9C                      	;--- get new Note
    1391.  00:4F9C  CB 82               	res	B_TRGNOT,d		;(ix+TRACK_Flags)		; reset trigger note flag
    1392.  00:4F9E  CB CA               	set	B_ACTNOT,d		;(ix+TRACK_Flags)		; set	note active	flag
    1393.  00:4FA0                      
    1394.  00:4FA0  DD 6E F4            	ld	l,(ix+TRACK_MacroStart)
    1395.  00:4FA3  DD 66 F5            	ld	h,(ix+TRACK_MacroStart+1)
    1396.  00:4FA6                      	;--- Store the macro start	
    1397.  00:4FA6  DD 75 F2            	ld	(ix+TRACK_MacroPointer),l
    1398.  00:4FA9  DD 74 F3            	ld	(ix+TRACK_MacroPointer+1),h	
    1399.  00:4FAC                      
    1400.  00:4FAC  21 00 00            	ld	hl,0
    1401.  00:4FAF  ED 73 00 C0         	ld	(_SP_Storage),sp
    1402.  00:4FB3  DD F9               	ld	sp,ix
    1403.  00:4FB5  F1                  	pop	af
    1404.  00:4FB6  F1                  	pop	af
    1405.  00:4FB7  E5                  	push	hl
    1406.  00:4FB8  E5                  	push	hl		
    1407.  00:4FB9  E5                  	push	hl
    1408.  00:4FBA  E5                  	push	hl
    1409.  00:4FBB  E5                  	push	hl
    1410.  00:4FBC  ED 7B 00 C0         	ld	sp,(_SP_Storage)
    1411.  00:4FC0                      
    1412.  00:4FC0                      ;	ld	(ix+TRACK_ToneAdd),0
    1413.  00:4FC0                      ;	ld	(ix+TRACK_ToneAdd+1),0
    1414.  00:4FC0                      ;	ld	(ix+TRACK_VolumeAdd),0	
    1415.  00:4FC0                      ;	ld	(ix+TRACK_cmd_ToneAdd),0
    1416.  00:4FC0                      ;	ld	(ix+TRACK_cmd_ToneAdd+1),0
    1417.  00:4FC0                      ;	ld	(ix+TRACK_cmd_VolumeAdd),0
    1418.  00:4FC0                      ;	ld	(ix+TRACK_Noise),0
    1419.  00:4FC0                      ;	ld	(ix+TRACK_cmd_ToneSlideAdd),0
    1420.  00:4FC0                      ;	ld	(ix+TRACK_cmd_ToneSlideAdd+1),0
    1421.  00:4FC0                      
    1422.  00:4FC0                      _pcAY_noNoteTrigger:
    1423.  00:4FC0                      	;Get note freq
    1424.  00:4FC0  DD 7E F7            	ld	a,(ix+TRACK_Note)
    1425.  00:4FC3  DD 86 0B            	add	a,(ix+TRACK_cmd_NoteAdd)
    1426.  00:4FC6  87                  	add	a
    1427.  00:4FC7  08                  	ex	af,af'			;'store the	note offset
    1428.  00:4FC8  DD 36 0B 00         	ld	(ix+TRACK_cmd_NoteAdd),0	
    1429.  00:4FCC                      	
    1430.  00:4FCC                      
    1431.  00:4FCC                      	;==============
    1432.  00:4FCC                      	; Macro instrument
    1433.  00:4FCC                      	;==============
    1434.  00:4FCC  CB 4A               	bit	B_ACTNOT,d			;(ix+TRACK_Flags)
    1435.  00:4FCE  CA CC 50            	jp	z,_pcAY_noNoteActive
    1436.  00:4FD1                      	
    1437.  00:4FD1                      	;--- Get the macro len and loop
    1438.  00:4FD1  DD 6E F2            	ld	l,(ix+TRACK_MacroPointer)
    1439.  00:4FD4  DD 66 F3            	ld	h,(ix+TRACK_MacroPointer+1)
    1440.  00:4FD7                      
    1441.  00:4FD7  5E                  	ld	e,(hl)				; info byte
    1442.  00:4FD8  23                  	inc	hl
    1443.  00:4FD9  CB 43               	bit	0,e					; Volume change
    1444.  00:4FDB  C2 E4 4F            	jp	nz,_vol_change
    1445.  00:4FDE  DD 7E FD            	ld	a,(ix+TRACK_VolumeAdd)
    1446.  00:4FE1  C3 0E 50            	jp	_noEnv
    1447.  00:4FE4                      	
    1448.  00:4FE4                      	;--- Volume change
    1449.  00:4FE4                      _vol_change:
    1450.  00:4FE4  7E                  	ld	a,(hl)
    1451.  00:4FE5  23                  	inc	hl
    1452.  00:4FE6                      	
    1453.  00:4FE6  CB 4B               	bit	1,e
    1454.  00:4FE8  CA FE 4F            	jp	z,_vol_base
    1455.  00:4FEB                      _vol_rel:
    1456.  00:4FEB  DD 86 FD            	add	 (ix+TRACK_VolumeAdd)
    1457.  00:4FEE  FE 10               	cp	16
    1458.  00:4FF0  DA FE 4F            	jp	c,_vol_base
    1459.  00:4FF3  FE 80               	cp	128
    1460.  00:4FF5  DA FD 4F            	jp	c,1f
    1461.  00:4FF8  3E 0F               	ld	a,$0f
    1462.  00:4FFA  C3 FE 4F            	jp	_vol_base
    1463.  00:4FFD  AF                  1:	xor	a
    1464.  00:4FFE                      _vol_base:
    1465.  00:4FFE  DD 77 FD            	ld	(ix+TRACK_VolumeAdd),a
    1466.  00:5001                      
    1467.  00:5001                      	;---- envelope check
    1468.  00:5001                      	; is done here to be able to continue
    1469.  00:5001                      	; macro volume values.
    1470.  00:5001  CB 52               	bit	B_TRGENV,d		;'(IX+TRACK_Flags)
    1471.  00:5003  CA 0E 50            	jp	z,_noEnv		; if not set then normal volume calculation
    1472.  00:5006  3E 10               	ld	a,16			; set volume to 16 == envelope
    1473.  00:5008  32 3B C2            	ld	(SCC_regVOLE),a
    1474.  00:500B  C3 3D 50            	jp	_noVolume	
    1475.  00:500E                      	
    1476.  00:500E                      _noEnv:
    1477.  00:500E  DD 86 FF            	add 	a,(ix+TRACK_cmd_VolumeAdd)
    1478.  00:5011  FE 80               	cp  	128
    1479.  00:5013  DA 1A 50            	jp 	c,1f
    1480.  00:5016  AF                  	xor 	a
    1481.  00:5017  C3 21 50            	jp 	2f
    1482.  00:501A  FE 10               1:  	cp 	16
    1483.  00:501C  DA 21 50            	jp 	c,2f
    1484.  00:501F  3E 0F                	ld 	a,$f
    1485.  00:5021                      2:
    1486.  00:5021  DD B6 F8            	or	(ix+TRACK_Volume)
    1487.  00:5024                      	
    1488.  00:5024                      	;-- next is _Vadd
    1489.  00:5024                      _Vadd:
    1490.  00:5024                      	;--- apply main volume balance
    1491.  00:5024  ED 4B 14 C0         	ld	bc,(replay_mainvol)
    1492.  00:5028  81                  	add	a,c
    1493.  00:5029  4F                  	ld	c,a
    1494.  00:502A  D2 2E 50            	jp	nc,99f
    1495.  00:502D  04                  	inc	b
    1496.  00:502E                      99:
    1497.  00:502E  0A                  	ld	a,(bc)	
    1498.  00:502F                      	; Test which CHIP.
    1499.  00:502F  CB 7A               	bit	B_PSGSCC,d		;(ix+TRACK_Flags)
    1500.  00:5031  C2 38 50            	jp	nz,99f
    1501.  00:5034  1F                  	rra
    1502.  00:5035  1F                  	rra
    1503.  00:5036  1F                  	rra
    1504.  00:5037  1F                  	rra
    1505.  00:5038                      99:
    1506.  00:5038  E6 0F               	and	0x0f
    1507.  00:503A  32 3B C2            	ld	(SCC_regVOLE),a
    1508.  00:503D                      
    1509.  00:503D                      _noVolume:
    1510.  00:503D                      	;-------------------------------
    1511.  00:503D                      	;
    1512.  00:503D                      	; NOISE
    1513.  00:503D                      	;
    1514.  00:503D                      	;-------------------------------
    1515.  00:503D  CB 7B               	bit 	7,e			; test if noise
    1516.  00:503F  CA 64 50            	jp	z,_noNoise
    1517.  00:5042                      	
    1518.  00:5042                      	;--- prevent SCC and noise
    1519.  00:5042  CB 7A               	bit	B_PSGSCC,d		;(ix+TRACK_Flags)
    1520.  00:5044  C2 64 50            	jp	nz,_noNoise
    1521.  00:5047                      
    1522.  00:5047                      	;--- Set the mixer for noise
    1523.  00:5047  3A 3C C2            	ld	a,(SCC_regMIXER)
    1524.  00:504A  F6 80               	or	128
    1525.  00:504C  32 3C C2            	ld	(SCC_regMIXER),a
    1526.  00:504F                      
    1527.  00:504F  CB 6B               	bit	5,e
    1528.  00:5051  CA 64 50            	jp	z,_noNoise
    1529.  00:5054  7E                  	ld	a,(hl)	; get	the deviation	
    1530.  00:5055  23                  	inc	hl
    1531.  00:5056  CB 73               	bit	6,e
    1532.  00:5058  CA 5E 50            	jp	z,99f
    1533.  00:505B  DD 86 FE            	add	(ix+TRACK_Noise)
    1534.  00:505E  DD 77 FE            99:	ld	(ix+TRACK_Noise),a
    1535.  00:5061  32 A5 C1            	ld	(AY_regNOISE),a
    1536.  00:5064                      _noNoise:
    1537.  00:5064                      	;-------------------------------
    1538.  00:5064                      	;
    1539.  00:5064                      	; TONE
    1540.  00:5064                      	;
    1541.  00:5064                      	;-------------------------------
    1542.  00:5064  CB 63               	bit	4,e		; do we have tone?
    1543.  00:5066  CA 71 50            	jp	z,_pcAY_noTone
    1544.  00:5069                      
    1545.  00:5069                      	;-- enable tone output
    1546.  00:5069  3A 3C C2            	ld	a,(SCC_regMIXER)
    1547.  00:506C  F6 10               	or	16
    1548.  00:506E  32 3C C2            	ld	(SCC_regMIXER),a
    1549.  00:5071                      _pcAY_noTone:
    1550.  00:5071  DD 46 FB            	ld	b,(ix+TRACK_ToneAdd)	; get	the current	deviation	
    1551.  00:5074  DD 4E FC            	ld	c,(ix+TRACK_ToneAdd+1)
    1552.  00:5077                      
    1553.  00:5077  CB 53               	bit	2,e
    1554.  00:5079  CA 8E 50            	jp	z,_pcAY_noToneAdd
    1555.  00:507C  7E                  	ld	a,(hl)
    1556.  00:507D  23                  	inc	hl
    1557.  00:507E  81                  	add	c
    1558.  00:507F  4F                  	ld	c,a
    1559.  00:5080  DD 71 FC            	ld	(ix+TRACK_ToneAdd+1),c
    1560.  00:5083  D2 87 50            	jp	nc,99f
    1561.  00:5086  04                  	inc	b
    1562.  00:5087  7E                  99:	ld	a,(hl)
    1563.  00:5088  23                  	inc	hl
    1564.  00:5089  80                  	add	b
    1565.  00:508A  47                  	ld	b,a
    1566.  00:508B  DD 70 FB            	ld	(ix+TRACK_ToneAdd),b
    1567.  00:508E                      _pcAY_noToneAdd:	
    1568.  00:508E  DD 75 F2            	ld	(ix+TRACK_MacroPointer),l	;--- store pointer for next time
    1569.  00:5091  DD 74 F3            	ld	(ix+TRACK_MacroPointer+1),h	
    1570.  00:5094                      
    1571.  00:5094  08                  	ex	af,af'			;';restore note offset
    1572.  00:5095  2A 18 C0            	ld	hl,(replay_Tonetable)
    1573.  00:5098  85                  	add	a,l
    1574.  00:5099  6F                  	ld	l,a
    1575.  00:509A  D2 9E 50            	jp	nc,99f
    1576.  00:509D  24                  	inc	h
    1577.  00:509E                      99:
    1578.  00:509E  7E                  	ld	a,(hl)	;--- Store the note tone value in hl
    1579.  00:509F  23                  	inc	hl
    1580.  00:50A0  66                  	ld	h,(hl)
    1581.  00:50A1  6F                  	ld	l,a
    1582.  00:50A2                      		
    1583.  00:50A2  09                  	add	hl,bc		;--- Store tone deviation		
    1584.  00:50A3                      
    1585.  00:50A3                      	; set	the detune.
    1586.  00:50A3  ED 73 00 C0         	ld	(_SP_Storage),sp
    1587.  00:50A7  DD F9               	ld	sp,ix
    1588.  00:50A9  C1                  	pop	bc		; cmd detume
    1589.  00:50AA  09                  	add	hl,bc
    1590.  00:50AB  C1                  	pop	bc		; cmd toneadd
    1591.  00:50AC  09                  	add	hl,bc
    1592.  00:50AD  C1                  	pop	bc		; cmd tone slide add
    1593.  00:50AE  09                  	add	hl,bc
    1594.  00:50AF  ED 7B 00 C0         	ld	sp,(_SP_Storage)
    1595.  00:50B3                      
    1596.  00:50B3                      ;	ld	c,(ix+TRACK_cmd_detune)
    1597.  00:50B3                      ;	ld	b,(ix+TRACK_cmd_detune+1)
    1598.  00:50B3                      ;	add	hl,bc
    1599.  00:50B3                      ;
    1600.  00:50B3                      ;	ld	c,(ix+TRACK_cmd_ToneAdd)
    1601.  00:50B3                      ;	ld	b,(ix+TRACK_cmd_ToneAdd+1)
    1602.  00:50B3                      ;	add	hl,bc
    1603.  00:50B3                      ;	
    1604.  00:50B3                      ;	ld	c,(ix+TRACK_cmd_ToneSlideAdd)
    1605.  00:50B3                      ;	ld	b,(ix+TRACK_cmd_ToneSlideAdd+1)
    1606.  00:50B3                      ;	
    1607.  00:50B3                      ;	add	hl,bc
    1608.  00:50B3                      
    1609.  00:50B3                      	;-------------------------------
    1610.  00:50B3                      	;
    1611.  00:50B3                      	; END of macro?
    1612.  00:50B3                      	;
    1613.  00:50B3                      	;-------------------------------
    1614.  00:50B3  CB 5B               	bit	3,e		
    1615.  00:50B5  C8                  	ret	z
    1616.  00:50B6                      	
    1617.  00:50B6                      	;--- now get new pointer
    1618.  00:50B6  DD 4E F4            	ld	c,(ix+TRACK_MacroStart)
    1619.  00:50B9  DD 46 F5            	ld	b,(ix+TRACK_MacroStart+1)
    1620.  00:50BC                      	
    1621.  00:50BC  DD 7E F6            	ld	a,(ix+TRACK_MacroRestart)	
    1622.  00:50BF  81                  	add	a,c
    1623.  00:50C0  4F                  	ld	c,a
    1624.  00:50C1  D2 C5 50            	jp	nc,99f
    1625.  00:50C4  04                  	inc	b
    1626.  00:50C5                      99:		
    1627.  00:50C5                      	;--- Store the macro start	
    1628.  00:50C5  DD 71 F2            	ld	(ix+TRACK_MacroPointer),c
    1629.  00:50C8  DD 70 F3            	ld	(ix+TRACK_MacroPointer+1),b		
    1630.  00:50CB                      
    1631.  00:50CB  C9                  	ret
    1632.  00:50CC                      	
    1633.  00:50CC                      _pcAY_noNoteActive:
    1634.  00:50CC  AF                  	xor	a
    1635.  00:50CD  32 3B C2            	ld	(SCC_regVOLE),a
    1636.  00:50D0  C9                  	ret	
    1637.  00:50D1                      
    1638.  00:50D1                      ;---- This is for debugging only	
    1639.  00:50D1                      ;stop_debug:
    1640.  00:50D1                      ;	halt
    1641.  00:50D1                      ;	jp	stop_debug	
    1642.  00:50D1                      ;	
    1643.  00:50D1                      ;PROCESS_CMDLIST:	
    1644.  00:50D1                      ;[13]	dw 	stop_debug
    1645.  00:50D1                      
    1646.  00:50D1                      _pcAY_cmdlist:
    1647.  00:50D1  35 52               	dw	_pcAY_cmdc_wave_duty		;d
    1648.  00:50D3  62 52               	dw	_pcAY_cmdd_wave_cut		;e
    1649.  00:50D5  A3 52               	dw	_pcAY_cmde_wave_compr		;f
    1650.  00:50D7  F2 52               	dw	_pcAY_cmd13_short_arp		;10
    1651.  00:50D9  03 53               	dw	_pcAY_cmd14_fine_up		;11
    1652.  00:50DB  1D 53               	dw	_pcAY_cmd15_fine_down		;12
    1653.  00:50DD  44 53               	dw	_pcAY_cmd19_note_delay		;13
    1654.  00:50DF  37 53               	dw	_pcAY_cmdXX_note_cut		;14
    1655.  00:50E1                      	
    1656.  00:50E1  07 51               	dw	_pcAY_cmd0_arpeggio		;15
    1657.  00:50E3  3E 51               	dw	_pcAY_cmd1_port_up		;16
    1658.  00:50E5  52 51               	dw	_pcAY_cmd2_port_down		;17
    1659.  00:50E7  66 51               	dw	_pcAY_cmd3_port_tone		;18
    1660.  00:50E9  A7 51               	dw	_pcAY_cmd4_vibrato		;19
    1661.  00:50EB  F1 51               	dw	_pcAY_cmd5_vibrato_port_tone	;1a
    1662.  00:50ED  F7 51               	dw	_pcAY_cmd6_vibrato_vol		;1b
    1663.  00:50EF  FD 51               	dw	_pcAY_cmd7_vol_slide		;1c
    1664.  00:50F1  2A 52               	dw	_pcAY_cmd8_macro_offset		;1d
    1665.  00:50F3  00 00               	dw	0	;env shape
    1666.  00:50F5                      
    1667.  00:50F5  07 51               	dw	_pcAY_cmd0_arpeggio		;1e
    1668.  00:50F7  3E 51               	dw	_pcAY_cmd1_port_up		;1f
    1669.  00:50F9  52 51               	dw	_pcAY_cmd2_port_down		;20
    1670.  00:50FB  66 51               	dw	_pcAY_cmd3_port_tone		;21
    1671.  00:50FD  A7 51               	dw	_pcAY_cmd4_vibrato
    1672.  00:50FF  F1 51               	dw	_pcAY_cmd5_vibrato_port_tone
    1673.  00:5101  F7 51               	dw	_pcAY_cmd6_vibrato_vol
    1674.  00:5103  FD 51               	dw	_pcAY_cmd7_vol_slide
    1675.  00:5105  2A 52               	dw	_pcAY_cmd8_macro_offset
    1676.  00:5107                      
    1677.  00:5107                      			
    1678.  00:5107                      _pcAY_cmd0_arpeggio:
    1679.  00:5107  DD 7E 0F            	ld	a,(ix+TRACK_Timer)
    1680.  00:510A  CB 47               	bit	0,a
    1681.  00:510C  CA 23 51            	jp	z,99f
    1682.  00:510F                      
    1683.  00:510F                      	;--- set x
    1684.  00:510F  DD 36 0F 02         	ld	(ix+TRACK_Timer),2
    1685.  00:5113  AF                  	xor	a
    1686.  00:5114  DD 7E 05            	ld	a,(ix+TRACK_cmd_0)
    1687.  00:5117  E6 F0               	and	0xf0
    1688.  00:5119  1F                  	rra
    1689.  00:511A  1F                  	rra
    1690.  00:511B  1F                  	rra
    1691.  00:511C  1F                  	rra
    1692.  00:511D  DD 77 0B            	ld	(ix+TRACK_cmd_NoteAdd),a		
    1693.  00:5120  C3 97 4F            	jp	_pcAY_commandEND
    1694.  00:5123                      
    1695.  00:5123                      	
    1696.  00:5123                      99:
    1697.  00:5123  CB 4F               	bit	1,a
    1698.  00:5125  CA 37 51            	jp	z,99f
    1699.  00:5128                      
    1700.  00:5128                      	;--- set y
    1701.  00:5128  DD 36 0F 00         	ld	(ix+TRACK_Timer),0
    1702.  00:512C  DD 7E 05            	ld	a,(ix+TRACK_cmd_0)
    1703.  00:512F  E6 0F               	and	0x0f
    1704.  00:5131  DD 77 0B            	ld	(ix+TRACK_cmd_NoteAdd),a		
    1705.  00:5134  C3 97 4F            	jp	_pcAY_commandEND
    1706.  00:5137                      	
    1707.  00:5137                      99:
    1708.  00:5137                      	;--- set none
    1709.  00:5137  DD 36 0F 01         	ld	(ix+TRACK_Timer),1
    1710.  00:513B  C3 97 4F            	jp	_pcAY_commandEND
    1711.  00:513E                      	
    1712.  00:513E                      	
    1713.  00:513E                      _pcAY_cmd1_port_up:
    1714.  00:513E  DD 7E 06            	ld	a,(ix+TRACK_cmd_1)
    1715.  00:5141  47                  	ld	b,a
    1716.  00:5142  DD 7E 00            	ld	a,(ix+TRACK_cmd_ToneSlideAdd)
    1717.  00:5145  90                  	sub	b
    1718.  00:5146  DD 77 00            	ld	(ix+TRACK_cmd_ToneSlideAdd),a
    1719.  00:5149  D2 97 4F            	jp	nc,_pcAY_commandEND
    1720.  00:514C  DD 35 01            	dec	(ix+TRACK_cmd_ToneSlideAdd+1)
    1721.  00:514F  C3 97 4F            	jp	_pcAY_commandEND
    1722.  00:5152                      	
    1723.  00:5152                      _pcAY_cmd2_port_down:
    1724.  00:5152  DD 7E 07            	ld	a,(ix+TRACK_cmd_2)
    1725.  00:5155  47                  	ld	b,a
    1726.  00:5156  DD 7E 00            	ld	a,(ix+TRACK_cmd_ToneSlideAdd)
    1727.  00:5159  80                  	add	b
    1728.  00:515A  DD 77 00            	ld	(ix+TRACK_cmd_ToneSlideAdd),a
    1729.  00:515D  D2 97 4F            	jp	nc,_pcAY_commandEND
    1730.  00:5160  DD 34 01            	inc	(ix+TRACK_cmd_ToneSlideAdd+1)
    1731.  00:5163  C3 97 4F            	jp	_pcAY_commandEND
    1732.  00:5166                      
    1733.  00:5166                      
    1734.  00:5166                      _pcAY_cmd3_port_tone:
    1735.  00:5166  DD 7E 08            	ld	a,(ix+TRACK_cmd_3)
    1736.  00:5169  DD 6E 00            	ld	l,(ix+TRACK_cmd_ToneSlideAdd)
    1737.  00:516C  DD 66 01            	ld	h,(ix+TRACK_cmd_ToneSlideAdd+1)
    1738.  00:516F  CB 7C               	bit	7,h
    1739.  00:5171  CA 87 51            	jp	z,_pcAY_cmd3_sub
    1740.  00:5174                      _pcAY_cmd3_add:
    1741.  00:5174                      	;pos slide
    1742.  00:5174  85                  	add	a,l
    1743.  00:5175  DD 77 00            	ld	(ix+TRACK_cmd_ToneSlideAdd),a
    1744.  00:5178  D2 97 4F            	jp	nc,_pcAY_commandEND
    1745.  00:517B  24                  	inc	h					
    1746.  00:517C  CB 7C               	bit	7,h
    1747.  00:517E  CA 9A 51            	jp	z,_pcAY_cmd3_stop			; delta turned pos ?
    1748.  00:5181  DD 74 01            	ld	(ix+TRACK_cmd_ToneSlideAdd+1),h
    1749.  00:5184  C3 97 4F            	jp	_pcAY_commandEND
    1750.  00:5187                      _pcAY_cmd3_sub:
    1751.  00:5187                      	;negative slide	
    1752.  00:5187  4F                  	ld	c,a
    1753.  00:5188  AF                  	xor	a
    1754.  00:5189  47                  	ld	b,a
    1755.  00:518A  ED 42               	sbc	hl,bc
    1756.  00:518C  CB 7C               	bit	7,h
    1757.  00:518E  C2 9A 51            	jp	nz,_pcAY_cmd3_stop			; delta turned neg ?
    1758.  00:5191  DD 75 00            	ld	(ix+TRACK_cmd_ToneSlideAdd),l
    1759.  00:5194  DD 74 01            	ld	(ix+TRACK_cmd_ToneSlideAdd+1),h
    1760.  00:5197  C3 97 4F            	jp	_pcAY_commandEND
    1761.  00:519A                      _pcAY_cmd3_stop:	
    1762.  00:519A  CB 9A               	res	B_TRGCMD,d		;(ix+TRACK_Flags)
    1763.  00:519C  DD 36 00 00         	ld	(ix+TRACK_cmd_ToneSlideAdd),0
    1764.  00:51A0  DD 36 01 00         	ld	(ix+TRACK_cmd_ToneSlideAdd+1),0	
    1765.  00:51A4  C3 97 4F            	jp	_pcAY_commandEND
    1766.  00:51A7                      
    1767.  00:51A7                      
    1768.  00:51A7                      	;-- vibrato	
    1769.  00:51A7                      _pcAY_cmd4_vibrato:
    1770.  00:51A7  2A 16 C0            	ld	hl,(replay_vib_table)
    1771.  00:51AA                      	;--- Get next step
    1772.  00:51AA  DD 7E 10            	ld	a,(IX+TRACK_Step)
    1773.  00:51AD  DD 86 0A            	add	(ix+TRACK_cmd_4_step)
    1774.  00:51B0  E6 3F               	and	$3F			; max	32
    1775.  00:51B2  DD 77 10            	ld	(ix+TRACK_Step),a
    1776.  00:51B5                      	
    1777.  00:51B5  CB 6F               	bit	5,a			; step 32-63 the neg	
    1778.  00:51B7  CA D9 51            	jp	z,_pcAY_cmd4pos
    1779.  00:51BA                      
    1780.  00:51BA                      ; neg	
    1781.  00:51BA  E6 1F               	and	$1f
    1782.  00:51BC  85                  	add	l
    1783.  00:51BD  6F                  	ld	l,a
    1784.  00:51BE  D2 C2 51            	jp	nc,99f
    1785.  00:51C1  24                  	inc	h
    1786.  00:51C2                      99:
    1787.  00:51C2  7E                  	ld	a,(hl)
    1788.  00:51C3                      	;apply depth
    1789.  00:51C3  DD 46 09            	ld	b,(ix+TRACK_cmd_4_depth)
    1790.  00:51C6  CB 3F               11:	srl	a
    1791.  00:51C8  10 FC               	djnz	11b
    1792.  00:51CA                      ;	and	$0f
    1793.  00:51CA                      
    1794.  00:51CA  ED 44               	neg
    1795.  00:51CC  CA E7 51            	jp	z,33f			; $ff00 gives strange result ;)	
    1796.  00:51CF  DD 77 02            	ld	(ix+TRACK_cmd_ToneAdd),a
    1797.  00:51D2  DD 36 03 FF         	ld	(ix+TRACK_cmd_ToneAdd+1),0xff
    1798.  00:51D6  C3 97 4F            	jp	_pcAY_commandEND
    1799.  00:51D9                      
    1800.  00:51D9                      _pcAY_cmd4pos:	
    1801.  00:51D9                      ;	and	$1f
    1802.  00:51D9  85                  	add	l
    1803.  00:51DA  6F                  	ld	l,a
    1804.  00:51DB  D2 DF 51            	jp	nc,99f
    1805.  00:51DE  24                  	inc	h
    1806.  00:51DF                      99:
    1807.  00:51DF  7E                  	ld	a,(hl)
    1808.  00:51E0                      	;apply depth
    1809.  00:51E0  DD 46 09            	ld	b,(ix+TRACK_cmd_4_depth)
    1810.  00:51E3  CB 3F               11:	srl	a
    1811.  00:51E5  10 FC               	djnz	11b
    1812.  00:51E7  DD 77 02            33:	ld	(ix+TRACK_cmd_ToneAdd),a
    1813.  00:51EA  DD 36 03 00         	ld	(ix+TRACK_cmd_ToneAdd+1),0
    1814.  00:51EE  C3 97 4F            	jp	_pcAY_commandEND
    1815.  00:51F1                      		
    1816.  00:51F1                      	
    1817.  00:51F1                      
    1818.  00:51F1                      _pcAY_cmd5_vibrato_port_tone:
    1819.  00:51F1  CD 03 52            	call	_pcAY_cmdasub
    1820.  00:51F4  C3 66 51            	jp	_pcAY_cmd3_port_tone
    1821.  00:51F7                      	
    1822.  00:51F7                      _pcAY_cmd6_vibrato_vol:
    1823.  00:51F7  CD 03 52            	call	_pcAY_cmdasub
    1824.  00:51FA  C3 A7 51            	jp	_pcAY_cmd4_vibrato	
    1825.  00:51FD                      
    1826.  00:51FD                      _pcAY_cmd7_vol_slide:
    1827.  00:51FD  CD 03 52            	call	_pcAY_cmdasub
    1828.  00:5200  C3 97 4F            	jp	_pcAY_commandEND
    1829.  00:5203                      
    1830.  00:5203                      _pcAY_cmdasub
    1831.  00:5203  DD 35 0F            	dec	(ix+TRACK_Timer)
    1832.  00:5206  C0                  	ret	nz
    1833.  00:5207                      		
    1834.  00:5207                      	; vol	slide
    1835.  00:5207  DD 7E 0C            	ld	a,(ix+TRACK_cmd_A)
    1836.  00:520A  4F                  	ld	c,a
    1837.  00:520B  E6 0F               	and	$0f
    1838.  00:520D  DD 77 0F            	ld	(ix+TRACK_Timer),a
    1839.  00:5210                      
    1840.  00:5210  DD 7E FF            	ld	a,(IX+TRACK_cmd_VolumeAdd)
    1841.  00:5213  CB 79               	bit	7,c
    1842.  00:5215  CA 21 52            	jp	z,_pcAY_cmda_inc
    1843.  00:5218                      _pcAY_cmda_dec:
    1844.  00:5218  FE 88               	cp	0x88
    1845.  00:521A  C8                  	ret	z
    1846.  00:521B  D6 08               	sub	8
    1847.  00:521D  DD 77 FF            	ld	(ix+TRACK_cmd_VolumeAdd),a
    1848.  00:5220  C9                  	ret
    1849.  00:5221                      _pcAY_cmda_inc:
    1850.  00:5221  FE 78               	cp	0x78
    1851.  00:5223  C8                  	ret	z
    1852.  00:5224  C6 08               	add	8	
    1853.  00:5226  DD 77 FF            	ld	(ix+TRACK_cmd_VolumeAdd),a
    1854.  00:5229  C9                  	ret
    1855.  00:522A                      	
    1856.  00:522A                      _pcAY_cmd8_macro_offset:
    1857.  00:522A  DD 35 0F            	dec	(ix+TRACK_Timer)
    1858.  00:522D  C2 97 4F            	jp	nz,_pcAY_commandEND
    1859.  00:5230  CB 9A               	res	B_TRGCMD,d			;(ix+TRACK_Flags)
    1860.  00:5232  C3 97 4F            	jp	_pcAY_commandEND
    1861.  00:5235                      
    1862.  00:5235                      
    1863.  00:5235                      _pcAY_cmdc_wave_duty:
    1864.  00:5235                      	;=================
    1865.  00:5235                      	; Waveform PWM / Duty Cycle
    1866.  00:5235                      	;=================
    1867.  00:5235  CB 9A               	res	B_TRGCMD,d			;(ix+TRACK_Flags)	; reset command
    1868.  00:5237  CB B2               	res	B_TRGWAV,d			;(ix+TRACK_Flags)	; reset normal wave update
    1869.  00:5239                      
    1870.  00:5239                      	;get the waveform	start	in [DE]
    1871.  00:5239  21 AD C1            	ld	hl,_0x9800
    1872.  00:523C  FD 7C               	ld	a,iyh		;ixh contains chan#
    1873.  00:523E  0F                  	rrca			; a mac value is 4 so
    1874.  00:523F  0F                  	rrca			; 3 times rrca is	X32
    1875.  00:5240  0F                  	rrca			; max	result is 128.
    1876.  00:5241  85                  	add	a,l
    1877.  00:5242  6F                  	ld	l,a
    1878.  00:5243  D2 47 52            	jp	nc,99f
    1879.  00:5246  24                  	inc	h
    1880.  00:5247                      99:
    1881.  00:5247  DD 46 0D            	ld	b,(ix+TRACK_cmd_B)
    1882.  00:524A  04                  	inc	b
    1883.  00:524B                      
    1884.  00:524B  0E 60               	ld	c,96	
    1885.  00:524D  3E 20               	ld	a,32
    1886.  00:524F  90                  	sub	b
    1887.  00:5250                      _wspw_loop_h:
    1888.  00:5250  71                  	ld	(hl),c
    1889.  00:5251  23                  	inc	hl
    1890.  00:5252  10 FC               	djnz	_wspw_loop_h
    1891.  00:5254                      	
    1892.  00:5254  A7                  	and	a
    1893.  00:5255  CA 97 4F            	jp	z,_pcAY_commandEND
    1894.  00:5258                      	
    1895.  00:5258  0E A0               	ld	c,-96
    1896.  00:525A  47                  	ld	b,a
    1897.  00:525B                      _wspw_loop_l:
    1898.  00:525B  71                  	ld	(hl),c
    1899.  00:525C  23                  	inc	hl
    1900.  00:525D  10 FC               	djnz	_wspw_loop_l
    1901.  00:525F                      
    1902.  00:525F  C3 97 4F            	jp	_pcAY_commandEND
    1903.  00:5262                      	
    1904.  00:5262                      	
    1905.  00:5262                      	
    1906.  00:5262                      _pcAY_cmdd_wave_cut:
    1907.  00:5262                      	;=================
    1908.  00:5262                      	; Waveform Cut
    1909.  00:5262                      	;=================
    1910.  00:5262                      
    1911.  00:5262  CB 9A               	res	B_TRGCMD,d		;(ix+TRACK_Flags)	; reset command
    1912.  00:5264  CB B2               	res	B_TRGWAV,d		;(ix+TRACK_Flags)	; reset normal wave update
    1913.  00:5266  7A                  	ld	a,d
    1914.  00:5267  08                  	ex	AF,AF;'
    1915.  00:5268                      
    1916.  00:5268                      	;get the waveform	start	in [DE]
    1917.  00:5268  11 AD C1            	ld	de,_0x9800
    1918.  00:526B  FD 7C               	ld	a,iyh		;ixh contains chan#
    1919.  00:526D  0F                  	rrca			; a mac value is 4 so
    1920.  00:526E  0F                  	rrca			; 3 times rrca is	X32
    1921.  00:526F  0F                  	rrca			; max	result is 128.
    1922.  00:5270  83                  	add	a,e
    1923.  00:5271  5F                  	ld	e,a
    1924.  00:5272  D2 76 52            	jp	nc,99f
    1925.  00:5275  14                  	inc	d
    1926.  00:5276                      99:
    1927.  00:5276  DD 7E F0            	ld	a,(ix+TRACK_Waveform)
    1928.  00:5279  87                  	add	a,a
    1929.  00:527A  87                  	add	a,a
    1930.  00:527B  87                  	add	a,a	
    1931.  00:527C                      
    1932.  00:527C  6F                  	ld	l,a
    1933.  00:527D  26 00               	ld	h,0
    1934.  00:527F  29                  	add	hl,hl
    1935.  00:5280  29                  	add	hl,hl
    1936.  00:5281                      		
    1937.  00:5281  ED 4B 06 C0         	ld	  bc,(replay_wavebase)
    1938.  00:5285  09                  	add	  hl,bc
    1939.  00:5286                      
    1940.  00:5286  DD 7E 0D            	ld	a,(ix+TRACK_cmd_B)
    1941.  00:5289  3C                  	inc	a
    1942.  00:528A  87                  	add	a
    1943.  00:528B  4F                  	ld	c,a
    1944.  00:528C  06 00               	ld	b,0
    1945.  00:528E  ED B0               	ldir
    1946.  00:5290                      	
    1947.  00:5290  EB                  	EX	DE,HL
    1948.  00:5291  08                  	EX	AF,AF'		;'
    1949.  00:5292  57                  	LD	D,A
    1950.  00:5293                      	
    1951.  00:5293  D6 20               	sub	32
    1952.  00:5295  ED 44               	neg	
    1953.  00:5297  CA 97 4F            	jp	z,_pcAY_commandEND	
    1954.  00:529A                      	
    1955.  00:529A  47                  	ld	b,a
    1956.  00:529B  AF                  	xor	a
    1957.  00:529C                      _wsc_l:
    1958.  00:529C  77                  	ld	(HL),a
    1959.  00:529D  23                  	inc	HL
    1960.  00:529E  10 FC               	djnz	_wsc_l
    1961.  00:52A0                      	
    1962.  00:52A0  C3 97 4F            	jp	_pcAY_commandEND
    1963.  00:52A3                      		
    1964.  00:52A3                      	
    1965.  00:52A3                      	
    1966.  00:52A3                      _pcAY_cmde_wave_compr:
    1967.  00:52A3                      	;=================
    1968.  00:52A3                      	; Waveform Compress
    1969.  00:52A3                      	;=================
    1970.  00:52A3  CB 9A               	res	B_TRGCMD,d	;(ix+TRACK_Flags)	; reset command
    1971.  00:52A5  CB B2               	res	B_TRGWAV,d	;(ix+TRACK_Flags)	; reset normal wave update
    1972.  00:52A7  7A                  	ld	a,d
    1973.  00:52A8  08                  	ex	AF,AF;'
    1974.  00:52A9                      	
    1975.  00:52A9                      	;get the waveform	start	in [DE]
    1976.  00:52A9  11 AD C1            	ld	de,_0x9800
    1977.  00:52AC  FD 7C               	ld	a,iyh		;ixh contains chan#
    1978.  00:52AE  0F                  	rrca			; a mac value is 4 so
    1979.  00:52AF  0F                  	rrca			; 3 times rrca is	X32
    1980.  00:52B0  0F                  	rrca			; max	result is 128.
    1981.  00:52B1  83                  	add	a,e
    1982.  00:52B2  5F                  	ld	e,a
    1983.  00:52B3  D2 B7 52            	jp	nc,99f
    1984.  00:52B6  14                  	inc	d
    1985.  00:52B7                      99:
    1986.  00:52B7  DD 7E F0            	ld	a,(ix+TRACK_Waveform)
    1987.  00:52BA  87                  	add	a,a
    1988.  00:52BB  87                  	add	a,a
    1989.  00:52BC  87                  	add	a,a	
    1990.  00:52BD                      
    1991.  00:52BD  6F                  	ld	l,a
    1992.  00:52BE  26 00               	ld	h,0
    1993.  00:52C0  29                  	add	hl,hl
    1994.  00:52C1  29                  	add	hl,hl
    1995.  00:52C2                      		
    1996.  00:52C2  ED 4B 06 C0         	ld	  bc,(replay_wavebase)
    1997.  00:52C6  09                  	add	  hl,bc
    1998.  00:52C7                      
    1999.  00:52C7  DD 7E 0D            	ld	a,(ix+TRACK_cmd_B)
    2000.  00:52CA  01 40 00            	ld	bc,0x0040
    2001.  00:52CD  0F                  	rrca	; x32
    2002.  00:52CE  0F                  	rrca
    2003.  00:52CF  0F                  	rrca
    2004.  00:52D0  C6 1F               	add	31
    2005.  00:52D2  FD 6F               	ld	iyl,a		; fraction
    2006.  00:52D4  AF                  	xor	a	
    2007.  00:52D5                      _wcomp_loop:
    2008.  00:52D5  ED A0               	ldi			
    2009.  00:52D7  0D                  	dec	c
    2010.  00:52D8  CA E7 52            	jp	z,1f
    2011.  00:52DB  FD 85               	add	iyl
    2012.  00:52DD  D2 D5 52            	jp	nc,_wcomp_loop
    2013.  00:52E0  23                  	inc	hl
    2014.  00:52E1  04                  	inc	b
    2015.  00:52E2  0D                  	dec	c
    2016.  00:52E3  0D                  	dec	c
    2017.  00:52E4  C2 D5 52            	jp	nz,_wcomp_loop
    2018.  00:52E7                      	
    2019.  00:52E7                      	;--- remaining data
    2020.  00:52E7                      1:
    2021.  00:52E7  2B                  	dec	hl
    2022.  00:52E8  7E                  	ld	a,(hl)
    2023.  00:52E9  12                  2:	ld	(de),a
    2024.  00:52EA  13                  	inc	de
    2025.  00:52EB  10 FC               	djnz	2b
    2026.  00:52ED                      	
    2027.  00:52ED  08                  	EX	AF,AF'		;'
    2028.  00:52EE  57                  	LD	D,A	
    2029.  00:52EF  C3 97 4F            	jp	_pcAY_commandEND		
    2030.  00:52F2                      	
    2031.  00:52F2                      
    2032.  00:52F2                      _pcAY_cmd13_short_arp:
    2033.  00:52F2  DD 35 0F            	dec	(ix+TRACK_Timer)
    2034.  00:52F5  CB 42               	bit	B_TRGNOT,d		;(ix+TRACK_Timer)
    2035.  00:52F7  CA 97 4F            	jp	z,_pcAY_commandEND
    2036.  00:52FA  DD 7E 0E            	ld	a,(ix+TRACK_cmd_E)
    2037.  00:52FD  DD 77 0B            	ld	(ix+TRACK_cmd_NoteAdd),a		
    2038.  00:5300  C3 97 4F            	jp	_pcAY_commandEND
    2039.  00:5303                      
    2040.  00:5303                      _pcAY_cmd14_fine_up:
    2041.  00:5303  DD 35 0F            	dec	(ix+TRACK_Timer)
    2042.  00:5306  C2 97 4F            	jp	nz,_pcAY_commandEND
    2043.  00:5309                      
    2044.  00:5309  CB 9A               	res	B_TRGCMD,d			;(ix+TRACK_Flags)
    2045.  00:530B  DD 7E 00            	ld	a,(ix+TRACK_cmd_ToneSlideAdd)
    2046.  00:530E  DD 86 0E            	add	(ix+TRACK_cmd_E)
    2047.  00:5311  DD 77 00            	ld	(ix+TRACK_cmd_ToneSlideAdd),a
    2048.  00:5314  D2 97 4F            	jp	nc,_pcAY_commandEND	
    2049.  00:5317  DD 34 01            	inc	(ix+TRACK_cmd_ToneSlideAdd+1)
    2050.  00:531A  C3 97 4F            	jp	_pcAY_commandEND	
    2051.  00:531D                      
    2052.  00:531D                      _pcAY_cmd15_fine_down:
    2053.  00:531D  DD 35 0F            	dec	(ix+TRACK_Timer)
    2054.  00:5320  C2 97 4F            	jp	nz,_pcAY_commandEND
    2055.  00:5323                      
    2056.  00:5323  CB 9A               	res	B_TRGCMD,d		;(ix+TRACK_Flags)
    2057.  00:5325  DD 7E 00            	ld	a,(ix+TRACK_cmd_ToneSlideAdd)
    2058.  00:5328  DD 96 0E            	sub	(ix+TRACK_cmd_E)
    2059.  00:532B  DD 77 00            	ld	(ix+TRACK_cmd_ToneSlideAdd),a
    2060.  00:532E  D2 97 4F            	jp	nc,_pcAY_commandEND	
    2061.  00:5331  DD 35 01            	dec	(ix+TRACK_cmd_ToneSlideAdd+1)
    2062.  00:5334  C3 97 4F            	jp	_pcAY_commandEND	
    2063.  00:5337                      
    2064.  00:5337                      
    2065.  00:5337                      _pcAY_cmdXX_note_cut:
    2066.  00:5337  DD 35 0F            	dec	(ix+TRACK_Timer)
    2067.  00:533A  C2 97 4F            	jp	nz,_pcAY_commandEND
    2068.  00:533D                      	
    2069.  00:533D                      	; stop note
    2070.  00:533D  CB 9A               	res	B_TRGCMD,d	; set	note bit to	0
    2071.  00:533F  CB 82               	res	B_TRGNOT,d
    2072.  00:5341  C3 97 4F            	jp	_pcAY_commandEND		
    2073.  00:5344                      	
    2074.  00:5344                      _pcAY_cmd19_note_delay:
    2075.  00:5344                      	; note delay
    2076.  00:5344  DD 35 0F            	dec	(ix+TRACK_Timer)
    2077.  00:5347  C2 97 4F            	jp	nz,_pcAY_commandEND	; no delay yet
    2078.  00:534A                      
    2079.  00:534A                      	; trigger note
    2080.  00:534A  DD 7E 0E            	ld	a,(ix+TRACK_cmd_E)		
    2081.  00:534D  DD 77 F7            	ld	(ix+TRACK_Note),a		; set	the note val
    2082.  00:5350  CB C2               	set	B_TRGNOT,d	;(ix+TRACK_Flags)		; set	trigger note flag
    2083.  00:5352  CB 9A               	res	B_TRGCMD,d	;(ix+TRACK_Flags)		; reset tiggger cmd flag
    2084.  00:5354                      	
    2085.  00:5354  C3 97 4F            	jp	_pcAY_commandEND	
    2086.  00:5357                      
    2087.  00:5357                      
    2088.  00:5357                      
    2089.  00:5357                      ;===========================================================
    2090.  00:5357                      ; ---replay_route
    2091.  00:5357                      ; Output the data	to the CHIP	registers
    2092.  00:5357                      ; 
    2093.  00:5357                      ; 
    2094.  00:5357                      ;===========================================================
    2095.  00:5357                      replay_route:
    2096.  00:5357                      ;---------------
    2097.  00:5357                      ; P S	G 
    2098.  00:5357                      ;---------------
    2099.  00:5357                      	;--- Push values to AY HW
    2100.  00:5357  06 00               	ld	b,0
    2101.  00:5359  0E A0               	ld	c,0xa0
    2102.  00:535B  21 9F C1            	ld	hl,AY_registers
    2103.  00:535E                      _comp_loop:	
    2104.  00:535E  ED 41               	out	(c),b
    2105.  00:5360  7E                  	ld	a,(hl)
    2106.  00:5361  C6 01               	add	1
    2107.  00:5363  D3 A1               	out	(0xa1),a
    2108.  00:5365  23                  	inc	hl
    2109.  00:5366  7E                  	ld	a,(hl)
    2110.  00:5367  CE 00               	adc	a,0
    2111.  00:5369  04                  	inc	b
    2112.  00:536A  ED 41               	out	(c),b	
    2113.  00:536C  23                  	inc	hl
    2114.  00:536D  D3 A1               	out	(0xa1),a	
    2115.  00:536F  04                  	inc	b
    2116.  00:5370  3E 06               	ld	a,6
    2117.  00:5372  B8                  	cp	b
    2118.  00:5373  C2 5E 53            	jp	nz,_comp_loop
    2119.  00:5376                      	
    2120.  00:5376  78                  	ld	a,b	
    2121.  00:5377                      	
    2122.  00:5377                      	
    2123.  00:5377                      _ptAY_loop:
    2124.  00:5377  ED 79               	out	(c),a
    2125.  00:5379  0C                  	inc	c
    2126.  00:537A  ED A3               	outi
    2127.  00:537C  0D                  	dec	c
    2128.  00:537D  3C                  	inc	a
    2129.  00:537E  FE 0D               	cp	13
    2130.  00:5380  20 F5               	jr	nz,_ptAY_loop
    2131.  00:5382                      
    2132.  00:5382  47                  	ld	b,a
    2133.  00:5383  7E                  	ld	a,(hl)
    2134.  00:5384  A7                  	and	a
    2135.  00:5385  CA 8F 53            	jp	z,_ptAY_noEnv
    2136.  00:5388  ED 41               	out	(c),b
    2137.  00:538A  0C                  	inc	c
    2138.  00:538B  ED 79               	out 	(c),a
    2139.  00:538D  36 00               	ld	(hl),0	;reset the envwrite
    2140.  00:538F                      	
    2141.  00:538F                      	
    2142.  00:538F                      _ptAY_noEnv:
    2143.  00:538F                      ;--------------
    2144.  00:538F                      ; S C	C 
    2145.  00:538F                      ;--------------
    2146.  00:538F  3E 3F               	ld  a,03Fh				; enable SCC
    2147.  00:5391  32 00 90            	ld  (0x9000),a
    2148.  00:5394                      
    2149.  00:5394                      	;--- Set the waveforms
    2150.  00:5394  21 DB C0            	ld	hl,TRACK_Chan4+17+TRACK_Flags
    2151.  00:5397  CB 76               	bit	B_TRGWAV,(hl)
    2152.  00:5399  CA A7 53            	jp	z,0f
    2153.  00:539C                      	;--- set wave form
    2154.  00:539C  CB B6               	res	B_TRGWAV,(hl)
    2155.  00:539E  3A D2 C0            	ld	a,(TRACK_Chan4+17+TRACK_Waveform)
    2156.  00:53A1  11 00 98            	ld	de,0x9800
    2157.  00:53A4  CD FF 53            	call	_write_SCC_wave
    2158.  00:53A7                      0:
    2159.  00:53A7  21 01 C1            	ld	hl,TRACK_Chan5+17+TRACK_Flags
    2160.  00:53AA  CB 76               	bit	B_TRGWAV,(hl)
    2161.  00:53AC  CA BA 53            	jp	z,0f
    2162.  00:53AF                      	;--- set wave form
    2163.  00:53AF  CB B6               	res	B_TRGWAV,(hl)
    2164.  00:53B1  3A F8 C0            	ld	a,(TRACK_Chan5+17+TRACK_Waveform)
    2165.  00:53B4  11 20 98            	ld	de,0x9820
    2166.  00:53B7  CD FF 53            	call	_write_SCC_wave
    2167.  00:53BA                      0:
    2168.  00:53BA  21 27 C1            	ld	hl,TRACK_Chan6+17+TRACK_Flags
    2169.  00:53BD  CB 76               	bit	B_TRGWAV,(hl)
    2170.  00:53BF  CA CD 53            	jp	z,0f
    2171.  00:53C2                      	;--- set wave form
    2172.  00:53C2  CB B6               	res	B_TRGWAV,(hl)
    2173.  00:53C4  3A 1E C1            	ld	a,(TRACK_Chan6+17+TRACK_Waveform)
    2174.  00:53C7  11 40 98            	ld	de,0x9840
    2175.  00:53CA  CD FF 53            	call	_write_SCC_wave
    2176.  00:53CD                      0:
    2177.  00:53CD  21 4D C1            	ld	hl,TRACK_Chan7+17+TRACK_Flags
    2178.  00:53D0  CB 76               	bit	B_TRGWAV,(hl)
    2179.  00:53D2  CA E0 53            	jp	z,0f
    2180.  00:53D5                      	;--- set wave form
    2181.  00:53D5  CB B6               	res	B_TRGWAV,(hl)
    2182.  00:53D7  3A 44 C1            	ld	a,(TRACK_Chan7+17+TRACK_Waveform)
    2183.  00:53DA  11 60 98            	ld	de,0x9860
    2184.  00:53DD  CD FF 53            	call	_write_SCC_wave
    2185.  00:53E0                      0:
    2186.  00:53E0                      
    2187.  00:53E0                      scc_reg_update:
    2188.  00:53E0                      
    2189.  00:53E0  3E 3F               	ld  a,03Fh				; enable SCC
    2190.  00:53E2  32 00 90            	ld  (0x9000),a
    2191.  00:53E5                      
    2192.  00:53E5                      	;--- Update changed SCC registers.
    2193.  00:53E5  21 3D C2            	ld hl,oldregs
    2194.  00:53E8  11 2D C2            	ld de,SCC_registers
    2195.  00:53EB  01 80 98            	ld bc,0x9880
    2196.  00:53EE  3E 10               	ld a,3*5+1
    2197.  00:53F0                      loop:
    2198.  00:53F0  08                  	ex af,af'	;'
    2199.  00:53F1  1A                  	ld a,(de)
    2200.  00:53F2  BE                  	cp (hl)
    2201.  00:53F3  28 02               	jr z,1f
    2202.  00:53F5  77                  	ld (hl),a	     ; update old	registers in ram
    2203.  00:53F6  02                  	ld (bc),a	     ; update scc	registers
    2204.  00:53F7                      1:	    
    2205.  00:53F7  23                  	inc hl
    2206.  00:53F8  13                  	inc de
    2207.  00:53F9  03                  	inc bc
    2208.  00:53FA  08                  	ex af,af'		;'
    2209.  00:53FB  3D                  	dec a
    2210.  00:53FC  20 F2               	jr nz, loop
    2211.  00:53FE  C9                  	ret
    2212.  00:53FF                      
    2213.  00:53FF                      	
    2214.  00:53FF                      	
    2215.  00:53FF                      ;==================
    2216.  00:53FF                      ; _write_SCC_wave
    2217.  00:53FF                      ;
    2218.  00:53FF                      ; Writes waveform	data.	[DE] contains location for data
    2219.  00:53FF                      ; [A]	contains waveform	number + flags for special actions
    2220.  00:53FF                      ; Data is not written to SCC but into RAM	shadow registers.
    2221.  00:53FF                      ;==================
    2222.  00:53FF                      _write_SCC_wave:
    2223.  00:53FF  CB 66               	bit	B_ACTMOR,(hl)
    2224.  00:5401  C2 17 54            	jp	nz,_write_SCC_special
    2225.  00:5404  87                  	add	a,a
    2226.  00:5405  87                  	add	a,a
    2227.  00:5406  87                  	add	a,a	
    2228.  00:5407                      
    2229.  00:5407  6F                  	ld	l,a
    2230.  00:5408  26 00               	ld	h,0
    2231.  00:540A  29                  	add	hl,hl
    2232.  00:540B  29                  	add	hl,hl
    2233.  00:540C                      		
    2234.  00:540C  ED 4B 06 C0         	ld	  bc,(replay_wavebase)
    2235.  00:5410  09                  	add	  hl,bc
    2236.  00:5411  01 20 00            	ld	  bc,32
    2237.  00:5414  ED B0               	ldir
    2238.  00:5416                      
    2239.  00:5416  C9                  	ret
    2240.  00:5417                      
    2241.  00:5417                      
    2242.  00:5417                      _write_SCC_special:
    2243.  00:5417  21 1F C0            	ld	hl,replay_morph_buffer+1
    2244.  00:541A  06 20               	ld	b,32
    2245.  00:541C                      _wss_l:
    2246.  00:541C  7E                  	ld	a,(hl)
    2247.  00:541D  12                  	ld	(de),a
    2248.  00:541E  23                  	inc	hl
    2249.  00:541F  23                  	inc	hl
    2250.  00:5420  13                  	inc	de
    2251.  00:5421  10 F9               	djnz	_wss_l
    2252.  00:5423                      	 
    2253.  00:5423                      	
    2254.  00:5423  C9                  	ret
    2255.  00:5424                      
    2256.  00:5424                      	
    2257.  00:5424                      ;=============
    2258.  00:5424                      ; in [A] the morph active status	
    2259.  00:5424                      replay_process_morph:
    2260.  00:5424  21 1B C0            	ld	hl,replay_morph_timer
    2261.  00:5427  35                  	dec	(hl)
    2262.  00:5428  C0                  	ret	nz
    2263.  00:5429                      	
    2264.  00:5429                      	;---- not sure what to do with this.
    2265.  00:5429                      	; trigger any waveform updates
    2266.  00:5429  06 04               	ld	b,4
    2267.  00:542B  11 26 00            	ld	de,TRACK_REC_SIZE
    2268.  00:542E  21 DB C0            	ld	hl,TRACK_Chan4+17+TRACK_Flags
    2269.  00:5431                      10:	
    2270.  00:5431  CB 66               	bit 	B_ACTMOR,(hl)
    2271.  00:5433  CA 38 54            	jp	z,99f
    2272.  00:5436  CB F6               	set	B_TRGWAV,(hl)
    2273.  00:5438                      99:
    2274.  00:5438  19                  	add	hl,de
    2275.  00:5439  10 F6               	djnz	10b	
    2276.  00:543B                      	
    2277.  00:543B                      	
    2278.  00:543B                      	;---- timer ended.
    2279.  00:543B  3C                  	inc	a
    2280.  00:543C  C2 8A 54            	jp	nz,_rpm_next_step		; if status was !=255 then skip init
    2281.  00:543F                      
    2282.  00:543F                      	;---- calculate offset
    2283.  00:543F  3C                  	inc	a		
    2284.  00:5440  32 1A C0            	ld	(replay_morph_active),a		; set status to 1
    2285.  00:5443                      ;	ld	(replay_morph_update),a		; after this update the waveforms of the SCC
    2286.  00:5443                      
    2287.  00:5443  3A 1C C0            	ld	a,(replay_morph_speed)
    2288.  00:5446  32 1B C0            	ld	(replay_morph_timer),a
    2289.  00:5449                      	
    2290.  00:5449                      
    2291.  00:5449                      	;--- calculate the delta's
    2292.  00:5449  11 1E C0            	ld	de,replay_morph_buffer
    2293.  00:544C  2A 06 C0            	ld	hl,(replay_wavebase)
    2294.  00:544F  3A 5E C0            	ld	a,(replay_morph_waveform)
    2295.  00:5452  87                  	add	a
    2296.  00:5453  D2 57 54            	jp	nc,99f
    2297.  00:5456  24                  	inc	h
    2298.  00:5457  85                  99:	add	a,l
    2299.  00:5458  6F                  	ld	l,a
    2300.  00:5459  D2 5D 54            	jp	nc,99f
    2301.  00:545C  24                  	inc	h
    2302.  00:545D                      99:	
    2303.  00:545D                      	;---- start calculating
    2304.  00:545D  06 20               	ld	b,32		; 32 values
    2305.  00:545F                      _rpm_loop:	
    2306.  00:545F  13                  	inc	de
    2307.  00:5460  1A                  	ld	a,(de)
    2308.  00:5461  1B                  	dec	de
    2309.  00:5462  C6 80               	add	a,128
    2310.  00:5464  4F                  	ld	c,a
    2311.  00:5465  7E                  	ld	a,(hl)
    2312.  00:5466  C6 80               	add	a,128
    2313.  00:5468  B9                  	cp	c
    2314.  00:5469  DA 7A 54            	jp	c,_rpm_smaller		; dest is smaller
    2315.  00:546C                      
    2316.  00:546C                      	
    2317.  00:546C                      _rpm_larger:
    2318.  00:546C  91                  	sub	c
    2319.  00:546D  0F                  	rrca
    2320.  00:546E  0F                  	rrca
    2321.  00:546F  0F                  	rrca
    2322.  00:5470  0F                  	rrca
    2323.  00:5471  E6 EF               	and	$ef		; reset bit 5
    2324.  00:5473  12                  	ld	(de),a
    2325.  00:5474                      	
    2326.  00:5474  13                  	inc	de
    2327.  00:5475  13                  	inc	de
    2328.  00:5476  23                  	inc	hl
    2329.  00:5477  10 E6               	djnz	_rpm_loop
    2330.  00:5479  C9                  	ret	
    2331.  00:547A                      	
    2332.  00:547A                      _rpm_smaller:
    2333.  00:547A  91                  	sub	c
    2334.  00:547B  ED 44               	neg	
    2335.  00:547D  0F                  	rrca
    2336.  00:547E  0F                  	rrca
    2337.  00:547F  0F                  	rrca
    2338.  00:5480  0F                  	rrca
    2339.  00:5481  F6 10               	or	$10		; set bit 5
    2340.  00:5483  12                  	ld	(de),a
    2341.  00:5484                      	
    2342.  00:5484  13                  	inc	de
    2343.  00:5485  13                  	inc	de
    2344.  00:5486  23                  	inc	hl
    2345.  00:5487  10 D6               	djnz	_rpm_loop
    2346.  00:5489  C9                  	ret		
    2347.  00:548A                      	
    2348.  00:548A                      ;============================
    2349.  00:548A                      _rpm_next_step:
    2350.  00:548A  3A 1C C0            	ld	a,(replay_morph_speed)
    2351.  00:548D  32 1B C0            	ld	(replay_morph_timer),a
    2352.  00:5490                      
    2353.  00:5490                      	;-- apply the delta's
    2354.  00:5490  3A 1D C0            	ld	a,(replay_morph_counter)
    2355.  00:5493  4F                  	ld	c,a
    2356.  00:5494  C6 10               	add	16
    2357.  00:5496  32 1D C0            	ld	(replay_morph_counter),a
    2358.  00:5499  C2 9F 54            	jp	nz,99f
    2359.  00:549C                      	;--- end morph
    2360.  00:549C  32 1A C0            	ld	(replay_morph_active),a
    2361.  00:549F                      
    2362.  00:549F                      99:
    2363.  00:549F  0D                  	dec c
    2364.  00:54A0  21 1E C0            	ld	hl,replay_morph_buffer
    2365.  00:54A3  06 20               	ld	b,32
    2366.  00:54A5                      _rpm_ns_loop:	
    2367.  00:54A5  7E                  	ld	a,(hl)
    2368.  00:54A6  CB 67               	bit 	4,a
    2369.  00:54A8  CA BD 54            	jp	z,_rmp_ns_add
    2370.  00:54AB                      _rmp_ns_sub:
    2371.  00:54AB                      	;--- handle corection
    2372.  00:54AB  E6 EF               	and	$ef
    2373.  00:54AD  B9                  	cp	c		; correction < counteR?
    2374.  00:54AE  DA B2 54            	jp	c,99f
    2375.  00:54B1  3C                  	inc	a		; if smaller C was set
    2376.  00:54B2                      99:
    2377.  00:54B2  E6 1F               	and	00011111b	; keep lower 5 bits
    2378.  00:54B4  23                  	inc	hl
    2379.  00:54B5  57                  	ld	d,a
    2380.  00:54B6  7E                  	ld	a,(hl)
    2381.  00:54B7  92                  	sub	d
    2382.  00:54B8  77                  	ld	(hl),a	; load new value
    2383.  00:54B9  23                  	inc	hl
    2384.  00:54BA  10 E9               	djnz	_rpm_ns_loop
    2385.  00:54BC  C9                  	ret	
    2386.  00:54BD                      _rmp_ns_add:
    2387.  00:54BD                      	;--- handle corection
    2388.  00:54BD  B9                  	cp	c		; correction < counteR?
    2389.  00:54BE  DA C2 54            	jp	c,99f
    2390.  00:54C1  3C                  	inc	a		; if smaller C was set
    2391.  00:54C2                      99:
    2392.  00:54C2  E6 1F               	and	00011111b	; keep lower 5 bits
    2393.  00:54C4  23                  	inc	hl
    2394.  00:54C5  86                  	add	(hl)		; subtract waveform value
    2395.  00:54C6  77                  	ld	(hl),a	; load new value
    2396.  00:54C7  23                  	inc	hl
    2397.  00:54C8  10 DB               	djnz	_rpm_ns_loop
    2398.  00:54CA  C9                  	ret		
    2399.  00:54CB                      	
    2400.  00:54CB                      
    2401.  00:54CB                      
     527   00:54CB                      	
     528   00:54CB                      FINISH:
     529   00:54CB                      
     530   00:54CB                      
     531   00:54CB                      ;---------------------------------------------------------
     532   00:54CB                      ; Variables
     533   00:54CB                      ;---------------------------------------------------------
     534   00:54CB                      
     535   00:54CB                      
     536   00:54CB                      	
     537   00:54CB  (C000)              	MAP 0xC000
     538   00:54CB                      	include	"..\TriloTracker-Re-player\code\ttreplayRAM.asm"
       1.  00:54CB                      ;================================
       2.  00:54CB                      ; The new replayer.
       3.  00:54CB                      ;
       4.  00:54CB                      ; Persistent RAM unswappable
       5.  00:54CB                      ;
       6.  00:54CB                      ;================================
       7.  00:54CB                      
       8.  00:54CB  (00:FFFFFFEF)       TRACK_Instrument		equ 0-17
       9.  00:54CB  (00:FFFFFFF0)       TRACK_Waveform		equ 1-17
      10.  00:54CB  (00:FFFFFFF1)       TRACK_Command		equ 2-17
      11.  00:54CB  (00:FFFFFFF2)       TRACK_MacroPointer	equ 3-17
      12.  00:54CB  (00:FFFFFFF4)       TRACK_MacroStart		equ 5-17
      13.  00:54CB  (00:FFFFFFF6)       TRACK_MacroRestart 	equ 7-17
      14.  00:54CB  (00:FFFFFFF7)       TRACK_Note			equ 8-17
      15.  00:54CB  (00:FFFFFFF8)       TRACK_Volume		equ 9-17
      16.  00:54CB  (00:FFFFFFF9)       TRACK_Flags			equ 10-17
      17.  00:54CB                      	; 0 = note trigger
      18.  00:54CB                      	; 1 = note active
      19.  00:54CB                      	; 4 = morph active		;-< for SCC when 1 then waveform is following morph buffer
      20.  00:54CB                      	; 3 = command trigger
      21.  00:54CB                      	; 2 = envelope trigger
      22.  00:54CB                      	; 5 = instrument trigger
      23.  00:54CB                      	; 6 = waveform trigger
      24.  00:54CB                      	; 7 = PSG/SCC
      25.  00:54CB  (00:FFFFFFFA)       TRACK_empty			equ 11-17		; needed for pushing 0 at note start
      26.  00:54CB  (00:FFFFFFFB)       TRACK_ToneAdd		equ 12-17		; reset after note set
      27.  00:54CB  (00:FFFFFFFD)       TRACK_VolumeAdd		equ 14-17		; reset after note set
      28.  00:54CB  (00:FFFFFFFE)       TRACK_Noise			equ 15-17		; reset after note set
      29.  00:54CB  (00:FFFFFFFF)       TRACK_cmd_VolumeAdd	equ 16-17		; reset after note set
      30.  00:54CB  (00:0000)           TRACK_cmd_ToneSlideAdd	equ 17-17		; reset after note set
      31.  00:54CB  (00:0002)           TRACK_cmd_ToneAdd		equ 19-17		; reset after note set
      32.  00:54CB                      
      33.  00:54CB  (00:0004)           TRACK_cmd_detune		equ 21-17
      34.  00:54CB  (00:0005)           TRACK_cmd_0			equ 22-17
      35.  00:54CB  (00:0006)           TRACK_cmd_1			equ 23-17
      36.  00:54CB  (00:0007)           TRACK_cmd_2			equ 24-17
      37.  00:54CB  (00:0008)           TRACK_cmd_3			equ 25-17
      38.  00:54CB  (00:0009)           TRACK_cmd_4_depth		equ 26-17
      39.  00:54CB  (00:000A)           TRACK_cmd_4_step		equ 27-17
      40.  00:54CB  (00:000B)           TRACK_cmd_NoteAdd		equ 28-17		;x reset after note set
      41.  00:54CB  (00:000C)           TRACK_cmd_A			equ 29-17		
      42.  00:54CB  (00:000D)           TRACK_cmd_B			equ 30-17		
      43.  00:54CB  (00:000E)           TRACK_cmd_E			equ 31-17
      44.  00:54CB  (00:000F)           TRACK_Timer			equ 32-17		; used for timing by all cmd's
      45.  00:54CB  (00:0010)           TRACK_Step			equ 33-17		; only for VIBRATO???
      46.  00:54CB  (00:0011)           TRACK_Delay			equ 34-17		; rows to wait till next data
      47.  00:54CB  (00:0012)           TRACK_prevDelay		equ 35-17
      48.  00:54CB  (00:0013)           TRACK_Retrig		equ 36-17		; rows to retrigger command
      49.  00:54CB  (00:0014)           TRACK_cmd_A_add		equ 37-17	;<< Still in use???
      50.  00:54CB                      
      51.  00:54CB  (00:0026)           TRACK_REC_SIZE		equ 38
      52.  00:54CB                      
      53.  00:54CB                      
      54.  00:54CB  (00:0000)           B_TRGNOT			equ 0			; note trigger
      55.  00:54CB  (00:0001)           B_ACTNOT			equ 1			; note active
      56.  00:54CB  (00:0002)           B_TRGENV			equ 2			; envelope trigger
      57.  00:54CB  (00:0003)           B_TRGCMD			equ 3			; command active
      58.  00:54CB  (00:0004)           B_ACTMOR			equ 4			; morph active
      59.  00:54CB  (00:0005)           B_TRGINS			equ 5			; instrument trigger
      60.  00:54CB  (00:0006)           B_TRGWAV			equ 6			; waveform trigger
      61.  00:54CB  (00:0007)           B_PSGSCC			equ 7			; chip type (PSG or SCC)
      62.  00:54CB                      
      63.  00:54CB                      
      64.  00:54CB  (00:C000)           _SP_Storage			#1			; to store the SP
      65.  00:54CB                      
      66.  00:54CB  (00:C001)           replay_trigger		#1			; trigger byte.
      67.  00:54CB  (00:C002)           replay_mainPSGvol		#2			; volume mixer for PSG SCC balance
      68.  00:54CB  (00:C004)           replay_mainSCCvol		#2			; volume mixer for PSG SCC balance
      69.  00:54CB                      ;replay_songbase:		#2			; pointer to song data
      70.  00:54CB  (00:C006)           replay_wavebase:		#2			; pointer to waveform data
      71.  00:54CB  (00:C008)           replay_insbase:		#2			; pointer to instrument data
      72.  00:54CB  (00:C00A)           replay_orderpointer:	#2			; pointer to the order track list pointers
      73.  00:54CB                      
      74.  00:54CB  (00:C00C)           replay_speed 		#1			; speed to replay (get from song)
      75.  00:54CB  (00:C00D)           replay_speed_subtimer 	#1			; counter for finer speed
      76.  00:54CB  (00:C00E)           replay_speed_timer 	#1 			; counter for speed
      77.  00:54CB  (00:C00F)           replay_mode 		#1			; Replayer status
      78.  00:54CB                      ; mode 0  = no sound output
      79.  00:54CB                      ; mode 1  = replay song 
      80.  00:54CB  (00:C010)           replay_fade			#1			; Fade active (value = fade speed)
      81.  00:54CB  (00:C011)           replay_fade_timer		#1			; Timer for fade
      82.  00:54CB  (00:C012)           replay_fade_vol		#1			; fade volume to lower the channel volume.
      83.  00:54CB                      
      84.  00:54CB                      
      85.  00:54CB  (00:C013)           replay_previous_note	#1			; previous note played
      86.  00:54CB  (00:C014)           replay_mainvol		#2			; the volume correction.
      87.  00:54CB                      
      88.  00:54CB  (00:C016)           replay_vib_table		#2			; pointer to the vibrato table
      89.  00:54CB  (00:C018)           replay_Tonetable		#2			; ToneTable (affected by transpose);
      90.  00:54CB                      
      91.  00:54CB  (00:C01A)           replay_morph_active	#1			; flag to indicate morphing is active
      92.  00:54CB                      ;replay_morph_update	#1			; flag to indicate a new waveform is ready
      93.  00:54CB  (00:C01B)           replay_morph_timer	#1			; step timer between morphs
      94.  00:54CB  (00:C01C)           replay_morph_speed	#1 
      95.  00:54CB  (00:C01D)           replay_morph_counter	#1			; counter till end morph
      96.  00:54CB  (00:C01E)           replay_morph_buffer	#64			; interleaved buffer with morphed waveform and morph delta values
      97.  00:54CB  (00:C05E)           replay_morph_waveform	#1 			; waveform we are morphing to.
      98.  00:54CB                      
      99.  00:54CB                      
     100.  00:54CB  (00:C05F)           TRACK_Chan1			#TRACK_REC_SIZE
     101.  00:54CB  (00:C085)           TRACK_Chan2			#TRACK_REC_SIZE
     102.  00:54CB  (00:C0AB)           TRACK_Chan3			#TRACK_REC_SIZE
     103.  00:54CB  (00:C0D1)           TRACK_Chan4			#TRACK_REC_SIZE
     104.  00:54CB  (00:C0F7)           TRACK_Chan5			#TRACK_REC_SIZE
     105.  00:54CB  (00:C11D)           TRACK_Chan6			#TRACK_REC_SIZE
     106.  00:54CB  (00:C143)           TRACK_Chan7			#TRACK_REC_SIZE
     107.  00:54CB  (00:C169)           TRACK_Chan8			#TRACK_REC_SIZE
     108.  00:54CB                      
     109.  00:54CB  (00:C18F)           TRACK_pointer1		#2
     110.  00:54CB  (00:C191)           TRACK_pointer2		#2
     111.  00:54CB  (00:C193)           TRACK_pointer3		#2
     112.  00:54CB  (00:C195)           TRACK_pointer4		#2
     113.  00:54CB  (00:C197)           TRACK_pointer5		#2
     114.  00:54CB  (00:C199)           TRACK_pointer6		#2
     115.  00:54CB  (00:C19B)           TRACK_pointer7		#2
     116.  00:54CB  (00:C19D)           TRACK_pointer8		#2
     117.  00:54CB                      
     118.  00:54CB                      
     119.  00:54CB                      ;--- AY SPECIFIC
     120.  00:54CB  (00:C19F)           AY_registers		#0 
     121.  00:54CB  (00:C19F)           AY_regToneA 		#2	; Tone A freq low (8bit)
     122.  00:54CB                      					; Tone A freq high (4bit)
     123.  00:54CB  (00:C1A1)           AY_regToneB 		#2	; Tone B freq low
     124.  00:54CB                      					; Tone B freq high
     125.  00:54CB  (00:C1A3)           AY_regToneC 		#2	; Tone C freq low
     126.  00:54CB                      					; Tone C freq high
     127.  00:54CB  (00:C1A5)           AY_regNOISE 		#1	; Noise freq (5bit)
     128.  00:54CB  (00:C1A6)           AY_regMIXER 		#1	;0x38	;x3f	; Mixer control (1 = off, 0 = on)
     129.  00:54CB  (00:C1A7)           AY_regVOLA 			#1	; Chan A volume
     130.  00:54CB  (00:C1A8)           AY_regVOLB 			#1	; Chan B volume
     131.  00:54CB  (00:C1A9)           AY_regVOLC  		#1	; Chan C volume
     132.  00:54CB  (00:C1AA)           AY_regEnvL 			#1	; Volume Env Freq low (8bit)	
     133.  00:54CB  (00:C1AB)           AY_regEnvH 			#1	; Volume Env Freq high (4bit)
     134.  00:54CB  (00:C1AC)           AY_regEnvShape 		#1	; Volume Env Shape (4bit)
     135.  00:54CB                      
     136.  00:54CB                      ;--- SCC SPECIFIC
     137.  00:54CB                      
     138.  00:54CB  (00:C1AD)           _0x9800:	#32			; Waveform data
     139.  00:54CB  (00:C1CD)           _0x9820:	#32
     140.  00:54CB  (00:C1ED)           _0x9840:	#32
     141.  00:54CB  (00:C20D)           _0x9860:	#32
     142.  00:54CB  (00:C22D)           SCC_registers 		#0
     143.  00:54CB  (00:C22D)           SCC_regToneA 		#2	; Tone A freq low (8bit)
     144.  00:54CB                      					; Tone A freq high (4bit)
     145.  00:54CB  (00:C22F)           SCC_regToneB 		#2	; Tone B freq low
     146.  00:54CB                      					; Tone B freq high
     147.  00:54CB  (00:C231)           SCC_regToneC 		#2	; Tone C freq low
     148.  00:54CB                      					; Tone C freq high
     149.  00:54CB  (00:C233)           SCC_regToneD 		#2	; Tone D freq low
     150.  00:54CB                      					; Tone D freq high
     151.  00:54CB  (00:C235)           SCC_regToneE 		#2	; Tone E freq low
     152.  00:54CB                      					; Tone E freq high
     153.  00:54CB  (00:C237)           SCC_regVOLA 		#1	; Chan A volume
     154.  00:54CB  (00:C238)           SCC_regVOLB 		#1	; Chan B volume
     155.  00:54CB  (00:C239)           SCC_regVOLC  		#1	; Chan C volume
     156.  00:54CB  (00:C23A)           SCC_regVOLD 		#1	; Chan D volume
     157.  00:54CB  (00:C23B)           SCC_regVOLE  		#1	; Chan E volume
     158.  00:54CB  (00:C23C)           SCC_regMIXER 		#1	; x3f	; Mixer control (1 = off, 0 = on)
     159.  00:54CB                      
     160.  00:54CB                      
     161.  00:54CB                      ;/// see to remove this.
     162.  00:54CB                      ;-- SCC registers
     163.  00:54CB  (00:C23D)           oldregs:	#(32*4)+(3*5)+1		; a way to int the SCC
     164.  00:54CB                      
     165.  00:54CB                      
     539   00:54CB                      
     540   00:54CB  (00:C2CD)           _levelmap:			#mapWidth*mapHeight
     541   00:54CB                      
     542   00:54CB  (00:C84D)           _cur_level_bf:		#mapWidth*mapHeight/2
     543   00:54CB                      ; enemylist:			#enemy*nenemies
     544   00:54CB                      
     545   00:54CB  (00:CB0D)           slotvar				#1
     546   00:54CB  (00:CB0E)           slotram				#1
     547   00:54CB  (00:CB0F)           SEL_NTSC			#1
     548   00:54CB                      
     549   00:54CB  (00:CB10)           joystick			#1
     550   00:54CB                      
     551   00:54CB  (00:CB11)           _mcx				#2	; relative with in the frame on the screen
     552   00:54CB  (00:CB13)           _mcy				#2
     553   00:54CB                      
     554   00:54CB  (00:CB15)           _mclx				#2	; absolute with the level in ram
     555   00:54CB  (00:CB17)           _mcly				#2
     556   00:54CB                      
     557   00:54CB  (00:CB19)           _mcframe			#1
     558   00:54CB  (00:CB1A)           _mcstate			#1
     559   00:54CB                      
     560   00:54CB  (00:CB1B)           _mcdx				#2
     561   00:54CB  (00:CB1D)           _mcdy				#2
     562   00:54CB                      
     563   00:54CB  (00:CB1F)           _mcprobe:			#1
     564   00:54CB  (00:CB20)           _mcprobeb:			#1
     565   00:54CB                      
     566   00:54CB  (00:CB21)           _ticxframe			#1
     567   00:54CB                      
     568   00:54CB  (00:CB22)           _buffer:			#16
     569   00:54CB  (00:CB32)           _fps:				#2
     570   00:54CB  (00:CB34)           _nframes:			#2
     571   00:54CB  (00:CB36)           _vbit16:			#2
     572   00:54CB                      
     573   00:54CB  (00:CB38)           _ymappos:			#1
     574   00:54CB  (00:CB39)           _xmappos:			#2
     575   00:54CB  (00:CB3B)           _levelmap_pos:		#2
     576   00:54CB                      
     577   00:54CB  (00:CB3D)           _shadowbuff:		#2
     578   00:54CB  (00:CB3F)           _currentpage:		#1
     579   00:54CB                      
     580   00:54CB  (00:CB40)           _displaypage:		#1
     581   00:54CB  (00:CB41)           _direction:			#1
     582   00:54CB  (00:CB42)           _old_direction:		#1
     583   00:54CB  (00:CB43)           _xoffset:			#1
     584   00:54CB                      
     585   00:54CB  (00:CB44)           _shadow0:			#32*24*2
     586   00:54CB  (00:D144)           _shadow1:			#32*24*2
     587   00:54CB                      
     588   00:54CB                      
     589   00:54CB  (0000)              	ENDMAP

    LABELS
-------------------------------------------------
00:00005000   _kBank1
00:00007000   _kBank2
00:00009000   _kBank3
00:0000B000   _kBank4
00:00000080   mapWidth
00:0000000B   mapHeight
00:000000B0   YSIZE
00:00000024 X ENASLT
00:00000138   RSLREG
00:0000FCC1   EXPTBL
00:00004010   search_slot
00:0000402F   search_slotram
00:00004050   search_slotram0
00:00004055 X setrompage0
00:0000405B   setrampage0
00:00004061   setrompage2
00:00004067 X setrampage2
00:0000406D X setrompage3
00:00004073 X setrampage3
00:00004079 X recbios
00:0000407C   setslotpage0
00:000040B3 X setslotpage1
00:000040F2   setslotpage2
00:00004139   setslotpage3
00:00004178   _cls
00:00000099   vdpport1
00:0000009A   vdpport2
00:00004196   levelcolors
00:00004196 X _SetPalet
00:000041A8   _vdpsetvramwr
00:000041B9 X _vdpsetvramwr14
00:000041C2   _vdpsetvramrd
00:000041DC   _setpage
00:0000005F   chgmod
00:0000000C X RDSLT
00:00000156 X KILBUF
00:000041ED   set_scr
00:00004239   _waitvdp
00:0000000C X rdslt
00:0000001C X CALSLT
00:00000180   chgcpu
00:0000FCC1 X exttbl
00:00004251   _set_r800
00:00004272   set_turbo_tr
00:0000F3DF   RG0SAV
00:0000F3E0   RG1SAV
00:0000F3E6 X RG7SAV
00:0000F3E7   RG8SAV
00:0000FC9E   _jiffy
00:0000427A   _intinit
00:0000429E X _intreset
00:000042AF   _scroll
00:000042CF   lint
00:0000433C   lint.exit
00:0000434C   vblank
00:0000439B   checkkbd
00:000043A6   START
00:000043B3   _ntsc
00:0000444E   main_loop
00:00004472   main_loop.nomove
00:0000448C   test_move_right
00:00004497   test_move_left
00:000044A3   _dw
00:000044B0   _up
00:000044B9   inc_xoffset
00:000044C5 X inc_xoffset.case0
00:000044D4   inc_xoffset.case1_15
00:000044DF   inc_xoffset.cont
00:000044F9   dec_xoffset
00:00004506 X dec_xoffset.case15
00:00004515   dec_xoffset.case0_14
00:00004520   dec_xoffset.cont
00:0000453C X _vuitpakker
00:00004574   _literal
00:00004579   __loop
00:00004582 X _getlen
00:00004588   lus
00:000045A5   lenok
00:000045B2   _mode7
00:000045B8   _mode6
00:000045BE   _mode5
00:000045C4   _mode4
00:000045CA   _mode3
00:000045D0   _mode2
00:000045E0   offsok
00:000045EB   _loop
00:00004601   _getbit
00:00004605   _getbitexx
00:0000460B   Depack_out
00:0000460D   setVwrite
00:00004619   setVread
00:00004627   __modes
00:00004635   _clean_buffs
00:00004643   _print_probe
00:00004688   _print_fps
00:000046A5   _compute_fps
00:000046AC   int2ascii
00:000046AF X Num2asc
00:000046C8   Num1
00:000046CA   Num2
00:000046D3   blank_line_rgt
00:000046D8   blank_line_lft
00:000046DA   blank_line
00:0000470E   plot_line_lft
00:00004717   plot_line_rgt
00:00004720   plot_line
00:0000477B   plot_tile
00:000047C7   init_page0
00:000047F5   init_page1
00:00004823   clrboder
00:00004854   move_block
00:00004000 X _metatable
01:00006000 X _backmap
02:00008000 X _frame
02:00008000 X _mc_sprites
04:0000A000   _tiles0
0E:00009411   _level
0E:00009991   _level_bf
0A:0000A000 X sprtdata
0E:00008000   demo_song
0E:00008025   demo_song.restart
0E:000081F9   demo_song.waveform_start
0E:000085F9   demo_song.instrument_start
0E:00008637   demo_song.ins_1
0E:0000864B   demo_song.rst_i1
0E:0000866B   demo_song.ins_2
0E:0000867F   demo_song.rst_i2
0E:00008685   demo_song.ins_3
0E:00008685   demo_song.ins_4
0E:0000869D   demo_song.rst_i4
0E:000086B5   demo_song.ins_5
0E:000086C9   demo_song.rst_i5
0E:000086E5   demo_song.ins_6
0E:000086F9   demo_song.rst_i6
0E:00008715   demo_song.ins_7
0E:00008715   demo_song.ins_8
0E:00008715   demo_song.ins_9
0E:00008715   demo_song.ins_10
0E:00008715   demo_song.ins_11
0E:00008715   demo_song.ins_12
0E:00008715   demo_song.ins_13
0E:00008715   demo_song.ins_14
0E:00008729   demo_song.rst_i14
0E:00008749   demo_song.ins_15
0E:00008749   demo_song.ins_16
0E:00008761   demo_song.rst_i16
0E:00008781   demo_song.ins_17
0E:00008787   demo_song.rst_i17
0E:00008789   demo_song.ins_18
0E:00008799   demo_song.rst_i18
0E:0000879B   demo_song.ins_19
0E:000087A9   demo_song.rst_i19
0E:000087AD   demo_song.ins_20
0E:000087B1   demo_song.rst_i20
0E:000087B3   demo_song.ins_21
0E:000087BE   demo_song.rst_i21
0E:000087C0   demo_song.ins_22
0E:000087C6   demo_song.rst_i22
0E:000087C8   demo_song.ins_23
0E:000087C8   demo_song.ins_24
0E:000087C8   demo_song.ins_25
0E:000087C8   demo_song.ins_26
0E:000087C8   demo_song.ins_27
0E:000087C8   demo_song.ins_28
0E:000087C8   demo_song.ins_29
0E:000087C8   demo_song.ins_30
0E:000087C8   demo_song.ins_31
0E:000087CA   demo_song.rst_i31
0E:000087CC   demo_song.track_0
0E:000087F9   demo_song.track_1
0E:0000881D   demo_song.track_2
0E:00008849   demo_song.track_3
0E:0000885A   demo_song.track_4
0E:0000887E   demo_song.track_5
0E:0000889F   demo_song.track_6
0E:000088B0   demo_song.track_7
0E:000088C4   demo_song.track_8
0E:000088DB   demo_song.track_9
0E:00008912   demo_song.track_10
0E:00008936   demo_song.track_11
0E:0000894B   demo_song.track_12
0E:0000896D   demo_song.track_13
0E:00008996   demo_song.track_14
0E:000089A9   demo_song.track_15
0E:000089BE   demo_song.track_16
0E:000089F1   demo_song.track_17
0E:00008A15   demo_song.track_18
0E:00008A32   demo_song.track_19
0E:00008A36   demo_song.track_20
0E:00008A45   demo_song.track_21
0E:00008A5C   demo_song.track_22
0E:00008A77   demo_song.track_23
0E:00008A96   demo_song.track_24
0E:00008ABA   demo_song.track_25
0E:00008AD3   demo_song.track_26
0E:00008AD6   demo_song.track_27
0E:00008ADC   demo_song.track_28
0E:00008AF3   demo_song.track_29
0E:00008B0A   demo_song.track_30
0E:00008B22   demo_song.track_31
0E:00008B46   demo_song.track_32
0E:00008B61   demo_song.track_33
0E:00008B7B   demo_song.track_34
0E:00008B96   demo_song.track_35
0E:00008BD5   demo_song.track_36
0E:00008BF5   demo_song.track_37
0E:00008C09   demo_song.track_38
0E:00008C1D   demo_song.track_39
0E:00008C34   demo_song.track_40
0E:00008C49   demo_song.track_41
0E:00008C64   demo_song.track_42
0E:00008C73   demo_song.track_43
0E:00008C8F   demo_song.track_44
0E:00008CAF   demo_song.track_45
0E:00008CC6   demo_song.track_46
0E:00008CD1   demo_song.track_47
0E:00008CE6   demo_song.track_48
0E:00008CFC   demo_song.track_49
0E:00008D17   demo_song.track_50
0E:00008D25   demo_song.track_51
0E:00008D31   demo_song.track_52
0E:00008D4B   demo_song.track_53
0E:00008D66   demo_song.track_54
0E:00008DA2   demo_song.track_55
0E:00008DBE   demo_song.track_56
0E:00008DCB   demo_song.track_57
0E:00008DDB   demo_song.track_58
0E:00008DE8   demo_song.track_59
0E:00008E02   demo_song.track_60
0E:00008E10   demo_song.track_61
0E:00008E3C   demo_song.track_62
0E:00008E63   demo_song.track_63
0E:00008E81   demo_song.track_64
0E:00008E89   demo_song.track_65
0E:00008E9F   demo_song.track_66
0E:00008EAA   demo_song.track_67
0E:00008EB7   demo_song.track_68
0E:00008EF2   demo_song.track_69
0E:00008F19   demo_song.track_70
0E:00008F29   demo_song.track_71
0E:00008F2F   demo_song.track_72
0E:00008F44   demo_song.track_73
0E:00008F4F   demo_song.track_74
0E:00008F5C   demo_song.track_75
0E:00008F94   demo_song.track_76
0E:00008FB5   demo_song.track_77
0E:00008FD0   demo_song.track_78
0E:00008FDD   demo_song.track_79
0E:00008FF6   demo_song.track_80
0E:00008FFC   demo_song.track_81
0E:00009004   demo_song.track_82
0E:0000902B   demo_song.track_83
0E:00009073   demo_song.track_84
0E:0000907B   demo_song.track_85
0E:0000907E   demo_song.track_86
0E:000090B7   demo_song.track_87
0E:000090BA   demo_song.track_88
0E:000090BE   demo_song.track_89
0E:000090C9   demo_song.track_90
0E:000090CE   demo_song.track_91
0E:000090D8   demo_song.track_92
0E:000090E3   demo_song.track_93
0E:00009115   demo_song.track_94
0E:00009134   demo_song.track_95
0E:0000913D   demo_song.track_96
0E:0000915A   demo_song.track_97
0E:00009165   demo_song.track_98
0E:00009172   demo_song.track_99
0E:000091A9   demo_song.track_100
0E:000091C8   demo_song.track_101
0E:000091DA   demo_song.track_102
0E:000091F5   demo_song.track_103
0E:00009200   demo_song.track_104
0E:00009210   demo_song.track_105
0E:00009222   demo_song.track_106
0E:00009254   demo_song.track_107
0E:00009273   demo_song.track_108
0E:00009286   demo_song.track_109
0E:000092A1   demo_song.track_110
0E:000092AA   demo_song.track_111
0E:000092C1   demo_song.track_112
0E:000092D1   demo_song.track_113
0E:000092E9   demo_song.track_114
0E:00009318   demo_song.track_115
0E:0000933A   demo_song.track_116
0E:0000934A   demo_song.track_117
0E:00009365   demo_song.track_118
0E:00009372   demo_song.track_119
0E:0000938B   demo_song.track_120
0E:00009398   demo_song.track_121
0E:000093A8   demo_song.track_122
0E:000093CE   demo_song.track_123
0E:000093DE   demo_song.track_124
0E:000093E5   demo_song.track_125
0E:000093F3   demo_song.track_126
0E:000093F7   demo_song.track_127
0E:00009403   demo_song.track_128
0E:00009405   demo_song.track_129
0E:00009410 X demo_song.track_130
0F:0000A080   _VOLUME_TABLE
0F:00000D40   C_PER
0F:00000C80   C1_PER
0F:00000BC0   D_PER
0F:00000B20   D1_PER
0F:00000A80   E_PER
0F:000009E0   F_PER
0F:00000940   F1_PER
0F:000008C0   G_PER
0F:00000840   G1_PER
0F:000007E0   A_PER
0F:00000760   A1_PER
0F:00000700   B_PER
0F:0000A180   TRACK_ToneTable
0F:0000A240   TRACK_Vibrato_sine
0F:0000A260   TRACK_Vibrato_triangle
0F:0000A280   TRACK_Vibrato_pulse
00:00004894   replay_init
00:000048A3   replay_pause
00:000048B8   _replay_pause_r
00:000048BE X replay_fade_out
00:000048C9 X replay_transpose
00:000048D2   replay_set_SCC_balance
00:000048D9   replay_set_PSG_balance
00:000048E0   _getnewbalancebase
00:000048EE X replay_loadsong
00:000049B3   _replay_check_patternend
00:000049E5 X replay_play
00:00004A01 X replay_decodedata
00:00004B19   replay_decodedata_NO
00:00004C40   replay_decode_chan
00:00004C56   _rdn2
00:00004C5B   _rdv2
00:00004C60   _rdi2
00:00004C68   _rdn
00:00004C70   _rdi
00:00004C78   _rdv
00:00004C80   _rdc
00:00004C8A   _rd_delay
00:00004C91   _replay_decode_note
00:00004C9D   _replay_decode_rest
00:00004CA6   _replay_decode_ins
00:00004CE4   _replay_decode_vol
00:00004CF9   _replay_decode_delay
00:00004D06   _replay_decode_cmd
00:00004D1C   DECODE_CMDLIST
00:00004D6E   _CHIPcmd0_arpeggio
00:00004D7A   _CHIPcmd1_port_up
00:00004D82   _CHIPcmd2_port_down
00:00004D8A   _CHIPcmd3_RE_port_tone
00:00004D90   _CHIPcmd3_port_tone
00:00004DDA   _CHIPcmd4_vibrato
00:00004DF4   _CHIPcmd5_vibrato_port_tone
00:00004DF4   _CHIPcmd6_vibrato_vol
00:00004DF4   _CHIPcmd7_vol_slide
00:00004E00   _CHIPcmd8_macro_offset
00:00004E03   _CHIPcmd9_env_shape
00:00004E0B   _CHIPcmdA_env_mul
00:00004E20   _CHIPcmdB_wave_res
00:00004E28   _CHIPcmdC_wave_duty
00:00004E28   _CHIPcmdD_wave_cut
00:00004E28   _CHIPcmdE_wave_compr
00:00004E32   _CHIPcmdF_wave_set
00:00004E3C   _CHIPcmd10_morph_slave
00:00004E42   _CHIPcmd11_morph_start
00:00004E6B   _CHIPcmd12_morph_cont
00:00004E82   _CHIPcmd13_short_arp
00:00004E8E   _CHIPcmd14_fine_up
00:00004E8E   _CHIPcmd15_fine_down
00:00004E9A   _CHIPcmd16_vib_ctrl
00:00004EA5 X _cmd16_pulse
00:00004EAE   _cmd16_tri
00:00004EB7   _cmd16_sine
00:00004EC0   _CHIPcmd17_track_detune
00:00004EDF   _CHIPcmd18_transpose
00:00004F05   _CHIPcmdXX_note_cut
00:00004F0E   _CHIPcmd19_note_delay
00:00004F2C   _CHIPcmd1A_trigger
00:00004F32   _CHIPcmd1B_speed
00:00004F45   _CHIPcmd1C_notelink
00:00004F4B X _CHIPcmd1C_call
00:00004F4B   _CHIPcmd1D_ret
00:00004F4F   _CHIPcmd0_RE_arpeggio
00:00004F53   _CHIPcmd1_RE_port_up
00:00004F53   _CHIPcmd2_RE_port_down
00:00004F53   _CHIPcmd4_RE_vibrato
00:00004F5B   _CHIPcmd5_RE_vibrato_port_tone
00:00004F5B   _CHIPcmd6_RE_vibrato_vol
00:00004F5B   _CHIPcmd7_RE_vol_slide
00:00004F67   _CHIPcmd8_RE_macro_offset
00:00004F73   _CHIPcmd9_RE_env_shape
00:00004F7B   replay_process_chan_AY
00:00004F97   _pcAY_noCommand
00:00004F97   _pcAY_commandEND
00:00004F9C X _pcAY_triggerNote
00:00004FC0   _pcAY_noNoteTrigger
00:00004FE4   _vol_change
00:00004FEB X _vol_rel
00:00004FFE   _vol_base
00:0000500E   _noEnv
00:00005024 X _Vadd
00:0000503D   _noVolume
00:00005064   _noNoise
00:00005071   _pcAY_noTone
00:0000508E   _pcAY_noToneAdd
00:000050CC   _pcAY_noNoteActive
00:000050D1   _pcAY_cmdlist
00:00005107   _pcAY_cmd0_arpeggio
00:0000513E   _pcAY_cmd1_port_up
00:00005152   _pcAY_cmd2_port_down
00:00005166   _pcAY_cmd3_port_tone
00:00005174 X _pcAY_cmd3_add
00:00005187   _pcAY_cmd3_sub
00:0000519A   _pcAY_cmd3_stop
00:000051A7   _pcAY_cmd4_vibrato
00:000051D9   _pcAY_cmd4pos
00:000051F1   _pcAY_cmd5_vibrato_port_tone
00:000051F7   _pcAY_cmd6_vibrato_vol
00:000051FD   _pcAY_cmd7_vol_slide
00:00005203   _pcAY_cmdasub
00:00005218 X _pcAY_cmda_dec
00:00005221   _pcAY_cmda_inc
00:0000522A   _pcAY_cmd8_macro_offset
00:00005235   _pcAY_cmdc_wave_duty
00:00005250   _wspw_loop_h
00:0000525B   _wspw_loop_l
00:00005262   _pcAY_cmdd_wave_cut
00:0000529C   _wsc_l
00:000052A3   _pcAY_cmde_wave_compr
00:000052D5   _wcomp_loop
00:000052F2   _pcAY_cmd13_short_arp
00:00005303   _pcAY_cmd14_fine_up
00:0000531D   _pcAY_cmd15_fine_down
00:00005337   _pcAY_cmdXX_note_cut
00:00005344   _pcAY_cmd19_note_delay
00:00005357   replay_route
00:0000535E   _comp_loop
00:00005377   _ptAY_loop
00:0000538F   _ptAY_noEnv
00:000053E0   scc_reg_update
00:000053F0   loop
00:000053FF   _write_SCC_wave
00:00005417   _write_SCC_special
00:0000541C   _wss_l
00:00005424   replay_process_morph
00:0000545F   _rpm_loop
00:0000546C X _rpm_larger
00:0000547A   _rpm_smaller
00:0000548A   _rpm_next_step
00:000054A5   _rpm_ns_loop
00:000054AB X _rmp_ns_sub
00:000054BD   _rmp_ns_add
00:000054CB X FINISH
00:FFFFFFEF   TRACK_Instrument
00:FFFFFFF0   TRACK_Waveform
00:FFFFFFF1   TRACK_Command
00:FFFFFFF2   TRACK_MacroPointer
00:FFFFFFF4   TRACK_MacroStart
00:FFFFFFF6   TRACK_MacroRestart
00:FFFFFFF7   TRACK_Note
00:FFFFFFF8   TRACK_Volume
00:FFFFFFF9   TRACK_Flags
00:FFFFFFFA X TRACK_empty
00:FFFFFFFB   TRACK_ToneAdd
00:FFFFFFFD   TRACK_VolumeAdd
00:FFFFFFFE   TRACK_Noise
00:FFFFFFFF   TRACK_cmd_VolumeAdd
00:00000000   TRACK_cmd_ToneSlideAdd
00:00000002   TRACK_cmd_ToneAdd
00:00000004   TRACK_cmd_detune
00:00000005   TRACK_cmd_0
00:00000006   TRACK_cmd_1
00:00000007   TRACK_cmd_2
00:00000008   TRACK_cmd_3
00:00000009   TRACK_cmd_4_depth
00:0000000A   TRACK_cmd_4_step
00:0000000B   TRACK_cmd_NoteAdd
00:0000000C   TRACK_cmd_A
00:0000000D   TRACK_cmd_B
00:0000000E   TRACK_cmd_E
00:0000000F   TRACK_Timer
00:00000010   TRACK_Step
00:00000011   TRACK_Delay
00:00000012   TRACK_prevDelay
00:00000013   TRACK_Retrig
00:00000014 X TRACK_cmd_A_add
00:00000026   TRACK_REC_SIZE
00:00000000   B_TRGNOT
00:00000001   B_ACTNOT
00:00000002   B_TRGENV
00:00000003   B_TRGCMD
00:00000004   B_ACTMOR
00:00000005 X B_TRGINS
00:00000006   B_TRGWAV
00:00000007   B_PSGSCC
00:0000C000   _SP_Storage
00:0000C001   replay_trigger
00:0000C002   replay_mainPSGvol
00:0000C004   replay_mainSCCvol
00:0000C006   replay_wavebase
00:0000C008   replay_insbase
00:0000C00A   replay_orderpointer
00:0000C00C   replay_speed
00:0000C00D   replay_speed_subtimer
00:0000C00E   replay_speed_timer
00:0000C00F   replay_mode
00:0000C010   replay_fade
00:0000C011   replay_fade_timer
00:0000C012   replay_fade_vol
00:0000C013   replay_previous_note
00:0000C014   replay_mainvol
00:0000C016   replay_vib_table
00:0000C018   replay_Tonetable
00:0000C01A   replay_morph_active
00:0000C01B   replay_morph_timer
00:0000C01C   replay_morph_speed
00:0000C01D   replay_morph_counter
00:0000C01E   replay_morph_buffer
00:0000C05E   replay_morph_waveform
00:0000C05F   TRACK_Chan1
00:0000C085   TRACK_Chan2
00:0000C0AB   TRACK_Chan3
00:0000C0D1   TRACK_Chan4
00:0000C0F7   TRACK_Chan5
00:0000C11D   TRACK_Chan6
00:0000C143   TRACK_Chan7
00:0000C169   TRACK_Chan8
00:0000C18F   TRACK_pointer1
00:0000C191   TRACK_pointer2
00:0000C193   TRACK_pointer3
00:0000C195   TRACK_pointer4
00:0000C197   TRACK_pointer5
00:0000C199   TRACK_pointer6
00:0000C19B   TRACK_pointer7
00:0000C19D   TRACK_pointer8
00:0000C19F   AY_registers
00:0000C19F   AY_regToneA
00:0000C1A1   AY_regToneB
00:0000C1A3   AY_regToneC
00:0000C1A5   AY_regNOISE
00:0000C1A6   AY_regMIXER
00:0000C1A7   AY_regVOLA
00:0000C1A8   AY_regVOLB
00:0000C1A9   AY_regVOLC
00:0000C1AA   AY_regEnvL
00:0000C1AB   AY_regEnvH
00:0000C1AC   AY_regEnvShape
00:0000C1AD   _0x9800
00:0000C1CD X _0x9820
00:0000C1ED X _0x9840
00:0000C20D X _0x9860
00:0000C22D   SCC_registers
00:0000C22D   SCC_regToneA
00:0000C22F   SCC_regToneB
00:0000C231   SCC_regToneC
00:0000C233   SCC_regToneD
00:0000C235   SCC_regToneE
00:0000C237   SCC_regVOLA
00:0000C238   SCC_regVOLB
00:0000C239   SCC_regVOLC
00:0000C23A   SCC_regVOLD
00:0000C23B   SCC_regVOLE
00:0000C23C   SCC_regMIXER
00:0000C23D   oldregs
00:0000C2CD   _levelmap
00:0000C84D X _cur_level_bf
00:0000CB0D   slotvar
00:0000CB0E   slotram
00:0000CB0F   SEL_NTSC
00:0000CB10 X joystick
00:0000CB11 X _mcx
00:0000CB13 X _mcy
00:0000CB15 X _mclx
00:0000CB17 X _mcly
00:0000CB19   _mcframe
00:0000CB1A X _mcstate
00:0000CB1B   _mcdx
00:0000CB1D X _mcdy
00:0000CB1F X _mcprobe
00:0000CB20   _mcprobeb
00:0000CB21   _ticxframe
00:0000CB22   _buffer
00:0000CB32   _fps
00:0000CB34   _nframes
00:0000CB36   _vbit16
00:0000CB38   _ymappos
00:0000CB39   _xmappos
00:0000CB3B   _levelmap_pos
00:0000CB3D X _shadowbuff
00:0000CB3F   _currentpage
00:0000CB40   _displaypage
00:0000CB41   _direction
00:0000CB42   _old_direction
00:0000CB43   _xoffset
00:0000CB44   _shadow0
00:0000D144 X _shadow1


 Output: main.out
-------------------------------------------------

 Page: 00
  Org: 00004000  Size: *  Used: 00000000

    No output

 Output: urd_scr8.rom
-------------------------------------------------

 Page: 00
  Org: 00004000  Size: 00002000  Used: 000014CB

   Address   Length Align   Label
   00004000    2196         search_slot
   00004894    3127         replay_init
   000054CB    2869       <empty>

 Page: 01
  Org: 00006000  Size: 00002000  Used: 00000000

   00006000    8192       <empty>

 Page: 02
  Org: 00008000  Size: 00002000  Used: 00000000

   00008000    8192       <empty>

 Page: 03
  Org: 0000A000  Size: 00002000  Used: 00000000

   0000A000    8192       <empty>

 Page: 04
  Org: 0000A000  Size: 00002000  Used: 00002000

   Address   Length Align   Label
   0000A000    8192         _tiles0

 Page: 05
  Org: 0000A000  Size: 00002000  Used: 00002000

   Address   Length Align   Label
   0000A000    8192         

 Page: 06
  Org: 0000A000  Size: 00002000  Used: 00002000

   Address   Length Align   Label
   0000A000    8192         

 Page: 07
  Org: 0000A000  Size: 00002000  Used: 00001300

   Address   Length Align   Label
   0000A000    4864         
   0000B300    3328       <empty>

 Page: 08
  Org: 0000A000  Size: 00002000  Used: 00000000

   0000A000    8192       <empty>

 Page: 09
  Org: 0000A000  Size: 00002000  Used: 00000000

   0000A000    8192       <empty>

 Page: 0A
  Org: 0000A000  Size: 00002000  Used: 00000000

   0000A000    8192       <empty>

 Page: 0B
  Org: 0000A000  Size: 00002000  Used: 00000000

   0000A000    8192       <empty>

 Page: 0C
  Org: 00004000  Size: 00002000  Used: 00000000

   00004000    8192       <empty>

 Page: 0D
  Org: 00006000  Size: 00002000  Used: 00000000

   00006000    8192       <empty>

 Page: 0E
  Org: 00008000  Size: 00002000  Used: 00001991

   Address   Length Align   Label
   00008000    5137         demo_song
   00009411    1408         _level
   00009991    1647       <empty>

 Page: 0F
  Org: 0000A000  Size: 00002000  Used: 000002A0

   Address   Length Align   Label
   0000A000     672         _VOLUME_TABLE
   0000A2A0    7520       <empty>
