Sjasm Z80 Assembler v0.42c - www.xl2s.tk             [2015.04.08 - 00:30:33]

main.asm
Errors: 0

       1   00:0000                      ;----------------------------------------------------------------------------
       2   00:0000                      ;----------------------------------------------------------------------------
       3   00:0000                      
       4   00:0000                              output "urd_scr8.rom"
       5   00:0000                      
       6   00:0000                      		incdir ene_code
       7   00:0000                      
       8   00:0000                      		defpage	 0,0x4000, 0x2000		; page 0 main code + far call routines
       9   00:0000                      		defpage	 1,0x6000, 0x2000		; page 1 main code + far call routines
      10   00:0000                      		defpage	 2,0x8000, 0x2000		; swapped data 
      11   00:0000                      		defpage	 3,0xA000, 0x2000		; swapped data 
      12   00:0000                      		
      13   00:0000                      		defpage	 4,0xA000, 0x2000		; swapped data 
      14   00:0000                      		defpage	 5..11					; 64KB of swapped data 
      15   00:0000                      
      16   00:0000                      		defpage	12,0x4000, 0x2000		; swapped code
      17   00:0000                      		defpage	13,0x6000, 0x2000		; swapped code 
      18   00:0000                      		defpage	14,0x8000, 0x2000		; swapped data 
      19   00:0000                      		defpage	15,0xA000, 0x2000		; swapped data 
      20   00:0000                      
      21   00:0000                      		;	konami scc
      22   00:0000                      		
      23   00:0000  (00:5000)           _kBank1:	equ 05000h ;- 57FFh (5000h used)
      24   00:0000  (00:7000)           _kBank2: 	equ 07000h ;- 77FFh (7000h used)
      25   00:0000  (00:9000)           _kBank3: 	equ 09000h ;- 97FFh (9000h used)
      26   00:0000  (00:B000)           _kBank4: 	equ 0B000h ;- B7FFh (B000h used)
      27   00:0000                      	
      28   00:0000  (00:0100)           mapWidth	equ	256
      29   00:0000  (00:000B)           mapHeight	equ	11
      30   00:0000                      		
      31   00:0000                      	macro setpage_a
      32   00:0000                    < 		ld	(_kBank3),a
      33   00:0000                    < 		inc	a
      34   00:0000                    < 		ld	(_kBank4),a
      35   00:0000                    < 	endmacro
      36   00:0000                        
      37   00:0000  (00)                		page 0
      38   00:4000                      		
      39   00:4000                              org 4000h
      40   00:4000                              dw  4241h,START,0,0,0,0,0,0
      40   00:4000  41 42 46 48 00 00 00 00 00 00 00 00 00 00 00 00 
      41   00:4010                      
      42   00:4010                      	;-------------------------------------		
      43   00:4010                      
      44   00:4010                      		include "header.asm"
       1.  00:4010                      
       2.  00:4010  (00:00A0)           YSIZE	equ	160
      45   00:4010                      		include "rominit64.asm"
       1.  00:4010                      
       2.  00:4010                      ;;;;;;;;;;;;;;;;;;;;;;;;;;;;;;;;;;;;;;;;;;;;;;;;;;;;;;;;;;;;;;;;;;;;;;
       3.  00:4010                      ; set pages and subslot
       4.  00:4010                      ;
       5.  00:4010                      
       6.  00:4010                      
       7.  00:4010  (00:0024)           ENASLT:			equ		024h
       8.  00:4010  (00:0138)           RSLREG:			equ		0138h
       9.  00:4010  (00:FCC1)           EXPTBL:			equ		0FCC1h	; Bios Slot / Expansion Slot
      10.  00:4010                      
      11.  00:4010                      
      12.  00:4010                      ; ----------------------------
      13.  00:4010                      ; pre-set main slot for page 3
      14.  00:4010                      ; and set sub-slot for page 3
      15.  00:4010                      ; ----------------------------
      16.  00:4010                      	macro	mainslot_setup n
      17.  00:4010                    < 	and		3
      18.  00:4010                    < [2]	rrca
      19.  00:4010                    < 	and		0xC0
      20.  00:4010                    < 	ld		c,a
      21.  00:4010                    < 	ld		a,d
      22.  00:4010                    < 	and		0x3F
      23.  00:4010                    < 	or		c
      24.  00:4010                    < 	ld		c,a					; Primary slot value with main slot in page 3
      25.  00:4010                    < 
      26.  00:4010                    < 	ld		a,b
      27.  00:4010                    < 	and		0x0C
      28.  00:4010                    < [2]	rrca
      29.  00:4010                    < 	and		3
      30.  00:4010                    < 	ld		b,a					; B = Expanded slot in page 3
      31.  00:4010                    < 	ld		a,c
      32.  00:4010                    < 	out		(0A8h),a			; Slot : Main Slot, xx, xx, Main slot
      33.  00:4010                    < 	ld		a,(0FFFFh)
      34.  00:4010                    < 	cpl
      35.  00:4010                    < 	if (n<=4)
      36.  00:4010                    < [n]	RLCA
      37.  00:4010                    < 	else
      38.  00:4010                    < [8-n] RRCA	
      39.  00:4010                    < 	endif
      40.  00:4010                    < 	and		0xFC
      41.  00:4010                    < 	or		b
      42.  00:4010                    < 	if (n<=4)
      43.  00:4010                    < [n]	RRCA
      44.  00:4010                    < 	else
      45.  00:4010                    < [8-n] RLCA
      46.  00:4010                    < 	endif
      47.  00:4010                    < 	ld		(0FFFFh),a		; Expanded slot selected
      48.  00:4010                    < 	ld		b,a				; save for later	
      49.  00:4010                    < 	endmacro
      50.  00:4010                      		
      51.  00:4010                      
      52.  00:4010                      ; ------------------------------
      53.  00:4010                      ; SEARCH_SLOT
      54.  00:4010                      ; look for the slot of our rom
      55.  00:4010                      ; active in page 1
      56.  00:4010                      ; ------------------------------
      57.  00:4010                      
      58.  00:4010                      search_slot:
      59.  00:4010  CD 38 01            	call	RSLREG
      60.  00:4013  0F 0F               [2]	rrca
      61.  00:4015  E6 03               	and		3
      62.  00:4017  4F                  	ld		c,a
      63.  00:4018  06 00               	ld		b,0
      64.  00:401A  21 C1 FC            	ld		hl,EXPTBL
      65.  00:401D  09                  	add		hl,bc
      66.  00:401E  7E                  	ld		a,(hl)
      67.  00:401F  E6 80               	and		080h
      68.  00:4021  B1                  	or		c
      69.  00:4022  4F                  	ld		c,a
      70.  00:4023  23 23 23 23         [4]	inc		hl
      71.  00:4027  7E                  	ld		a,(hl)
      72.  00:4028  E6 0C               	and		0Ch
      73.  00:402A  B1                  	or		c
      74.  00:402B  32 4D D3            	ld		(slotvar),a
      75.  00:402E  C9                  	ret
      76.  00:402F                      	
      77.  00:402F                      ; ------------------------------
      78.  00:402F                      ; look for the slot of ram
      79.  00:402F                      ; active in page 3
      80.  00:402F                      ; ------------------------------
      81.  00:402F                      
      82.  00:402F                      search_slotram:
      83.  00:402F  F3                  	di
      84.  00:4030  CD 38 01            	call	RSLREG
      85.  00:4033  07 07               [2]	rlca
      86.  00:4035  E6 03               	and		3
      87.  00:4037  4F                  	ld		c,a
      88.  00:4038  06 00               	ld		b,0
      89.  00:403A  21 C1 FC            	ld		hl,EXPTBL
      90.  00:403D  09                  	add		hl,bc
      91.  00:403E  7E                  	ld		a,(hl)
      92.  00:403F  E6 80               	and		080h
      93.  00:4041  28 0D               	jr		z,search_slotram0
      94.  00:4043  B1                  	or		c
      95.  00:4044  4F                  	ld		c,a
      96.  00:4045  23 23 23 23         [4]	inc		hl
      97.  00:4049  7E                  	ld		a,(hl)
      98.  00:404A  07 07 07 07         [4]	rlca
      99.  00:404E  E6 0C               	and		0Ch
     100.  00:4050                      search_slotram0:
     101.  00:4050  B1                  	or		c
     102.  00:4051  32 4E D3            	ld		(slotram),a
     103.  00:4054  C9                  	ret
     104.  00:4055                      	
     105.  00:4055                      ; ------------------------------
     106.  00:4055                      ; SETROMPAGE0
     107.  00:4055                      ; Set the chart in
     108.  00:4055                      ; Page 0
     109.  00:4055                      ; -----------------------------
     110.  00:4055                      
     111.  00:4055                      setrompage0:
     112.  00:4055  3A 4D D3            	ld		a,(slotvar)
     113.  00:4058  C3 7C 40            	jp		setslotpage0
     114.  00:405B                      
     115.  00:405B                      setrampage0:
     116.  00:405B  3A 4E D3            	ld		a,(slotram)
     117.  00:405E  C3 7C 40            	jp		setslotpage0
     118.  00:4061                      
     119.  00:4061                      setrompage2:
     120.  00:4061  3A 4D D3            	ld		a,(slotvar)
     121.  00:4064  C3 F2 40            	jp		setslotpage2
     122.  00:4067                      
     123.  00:4067                      setrampage2:
     124.  00:4067  3A 4E D3            	ld		a,(slotram)
     125.  00:406A  C3 F2 40            	jp		setslotpage2
     126.  00:406D                      	
     127.  00:406D                      setrompage3:
     128.  00:406D  3A 4D D3            	ld		a,(slotvar)
     129.  00:4070  C3 39 41            	jp		setslotpage3
     130.  00:4073                      
     131.  00:4073                      setrampage3:
     132.  00:4073  3A 4E D3            	ld		a,(slotram)
     133.  00:4076  C3 39 41            	jp		setslotpage3
     134.  00:4079                      	
     135.  00:4079                      ; ------------------------------
     136.  00:4079                      ; RECBIOS
     137.  00:4079                      ; set the bios ROM
     138.  00:4079                      ; -------------------------------
     139.  00:4079                      recbios:
     140.  00:4079  3A C1 FC            	ld		a,(EXPTBL)
     141.  00:407C                      
     142.  00:407C                      ; ---------------------------
     143.  00:407C                      ; SETSLOTPAGE0
     144.  00:407C                      ; Set the slot passed in A
     145.  00:407C                      ; at page 0 in the Z80 address space
     146.  00:407C                      ; A: Format FxxxSSPP
     147.  00:407C                      ; ----------------------------
     148.  00:407C                      
     149.  00:407C                      setslotpage0:
     150.  00:407C  F3                  	di
     151.  00:407D  47                  	ld		b,a					; B = Slot param in FxxxSSPP format
     152.  00:407E  DB A8               	in		a,(0A8h)
     153.  00:4080  E6 FC               	and		0xFC
     154.  00:4082  57                  	ld		d,a					; D = Primary slot value
     155.  00:4083  78                  	ld		a,b
     156.  00:4084  E6 03               	and		3
     157.  00:4086  B2                  	or		d
     158.  00:4087  57                  	ld		d,a		; D = Final Value for primary slot
     159.  00:4088  78                  	ld		a,b		; Check if expanded
     160.  00:4089  CB 7F               	bit		7,a
     161.  00:408B  28 22               	jr		z,1f	; Not Expanded
     162.  00:408D                      	mainslot_setup	0
     162.  00:408D  E6 03             >  and  3
     162.  00:408F  0F 0F             > [2] rrca
     162.  00:4091  E6 C0             >  and  0xC0
     162.  00:4093  4F                >  ld  c,a
     162.  00:4094  7A                >  ld  a,d
     162.  00:4095  E6 3F             >  and  0x3F
     162.  00:4097  B1                >  or  c
     162.  00:4098  4F                >  ld  c,a
     162.  00:4099                    > 
     162.  00:4099  78                >  ld  a,b
     162.  00:409A  E6 0C             >  and  0x0C
     162.  00:409C  0F 0F             > [2] rrca
     162.  00:409E  E6 03             >  and  3
     162.  00:40A0  47                >  ld  b,a
     162.  00:40A1  79                >  ld  a,c
     162.  00:40A2  D3 A8             >  out  (0A8h),a
     162.  00:40A4  3A FF FF          >  ld  a,(0FFFFh)
     162.  00:40A7  2F                >  cpl
     162.  00:40A8                    >  if (n<=4)
     162.  00:40A8                    > [n] RLCA
     162.  00:40A8                    >  else
     162.  00:40A8                    ~ [8-n] RRCA
     162.  00:40A8                    ~  endif
     162.  00:40A8  E6 FC             >  and  0xFC
     162.  00:40AA  B0                >  or  b
     162.  00:40AB                    >  if (n<=4)
     162.  00:40AB                    > [n] RRCA
     162.  00:40AB                    >  else
     162.  00:40AB                    ~ [8-n] RLCA
     162.  00:40AB                    ~  endif
     162.  00:40AB  32 FF FF          >  ld  (0FFFFh),a
     162.  00:40AE  47                >  ld  b,a
     163.  00:40AF  7A                  1:	ld		a,d				; A = Final value
     164.  00:40B0  D3 A8               	out		(0A8h),a		; Slot Final. Ram, rom c, rom c, Main
     165.  00:40B2  C9                  	ret
     166.  00:40B3                      
     167.  00:40B3                      ; ---------------------------
     168.  00:40B3                      ; SETSLOTPAGE1
     169.  00:40B3                      ; Set the slot passed in A
     170.  00:40B3                      ; at page 1 in the Z80 address space
     171.  00:40B3                      ; A: Format FxxxSSPP
     172.  00:40B3                      ; ----------------------------
     173.  00:40B3                      
     174.  00:40B3                      setslotpage1:
     175.  00:40B3  F3                  	di
     176.  00:40B4  47                  	ld		b,a					; B = Slot param in FxxxSSPP format
     177.  00:40B5  DB A8               	in		a,(0A8h)
     178.  00:40B7  0F 0F               [2]	RRCA
     179.  00:40B9  E6 FC               	and		0xFC
     180.  00:40BB  57                  	ld		d,a					; D = Primary slot value
     181.  00:40BC  78                  	ld		a,b
     182.  00:40BD  E6 03               	and		3
     183.  00:40BF  B2                  	or		d
     184.  00:40C0  07 07               [2]	RLCA
     185.  00:40C2  57                  	ld		d,a		; D = Final Value for primary slot
     186.  00:40C3  78                  	ld		a,b		; Check if expanded
     187.  00:40C4  CB 7F               	bit		7,a
     188.  00:40C6  28 26               	jr		z,1f	; Not Expanded
     189.  00:40C8                      	mainslot_setup	6
     189.  00:40C8  E6 03             >  and  3
     189.  00:40CA  0F 0F             > [2] rrca
     189.  00:40CC  E6 C0             >  and  0xC0
     189.  00:40CE  4F                >  ld  c,a
     189.  00:40CF  7A                >  ld  a,d
     189.  00:40D0  E6 3F             >  and  0x3F
     189.  00:40D2  B1                >  or  c
     189.  00:40D3  4F                >  ld  c,a
     189.  00:40D4                    > 
     189.  00:40D4  78                >  ld  a,b
     189.  00:40D5  E6 0C             >  and  0x0C
     189.  00:40D7  0F 0F             > [2] rrca
     189.  00:40D9  E6 03             >  and  3
     189.  00:40DB  47                >  ld  b,a
     189.  00:40DC  79                >  ld  a,c
     189.  00:40DD  D3 A8             >  out  (0A8h),a
     189.  00:40DF  3A FF FF          >  ld  a,(0FFFFh)
     189.  00:40E2  2F                >  cpl
     189.  00:40E3                    >  if (n<=4)
     189.  00:40E3                    ~ [n] RLCA
     189.  00:40E3                    ~  else
     189.  00:40E3  0F 0F             > [8-n] RRCA
     189.  00:40E5                    >  endif
     189.  00:40E5  E6 FC             >  and  0xFC
     189.  00:40E7  B0                >  or  b
     189.  00:40E8                    >  if (n<=4)
     189.  00:40E8                    ~ [n] RRCA
     189.  00:40E8                    ~  else
     189.  00:40E8  07 07             > [8-n] RLCA
     189.  00:40EA                    >  endif
     189.  00:40EA  32 FF FF          >  ld  (0FFFFh),a
     189.  00:40ED  47                >  ld  b,a
     190.  00:40EE  7A                  1:	ld		a,d				; A = Final value
     191.  00:40EF  D3 A8               	out		(0A8h),a		; Slot Final. Ram, rom c, rom c, Main
     192.  00:40F1  C9                  	ret
     193.  00:40F2                      	
     194.  00:40F2                      
     195.  00:40F2                      ; ---------------------------
     196.  00:40F2                      ; SETSLOTPAGE2
     197.  00:40F2                      ; Set the slot passed in A
     198.  00:40F2                      ; at page 2 in the Z80 address space
     199.  00:40F2                      ; A: Format FxxxSSPP
     200.  00:40F2                      ; ----------------------------
     201.  00:40F2                      
     202.  00:40F2                      setslotpage2:
     203.  00:40F2  F3                  	di
     204.  00:40F3  47                  	ld		b,a					; B = Slot param in FxxxSSPP format
     205.  00:40F4  DB A8               	in		a,(0A8h)
     206.  00:40F6  07 07 07 07         [4]	RLCA
     207.  00:40FA  E6 FC               	and		0xFC
     208.  00:40FC  57                  	ld		d,a					; D = Primary slot value
     209.  00:40FD  78                  	ld		a,b
     210.  00:40FE  E6 03               	and		3
     211.  00:4100  B2                  	or		d
     212.  00:4101  0F 0F 0F 0F         [4]	RRCA
     213.  00:4105  57                  	ld		d,a		; D = Final Value for primary slot
     214.  00:4106  78                  	ld		a,b		; Check if expanded
     215.  00:4107  CB 7F               	bit		7,a
     216.  00:4109  28 2A               	jr		z,1f	; Not Expanded
     217.  00:410B                      	mainslot_setup	4
     217.  00:410B  E6 03             >  and  3
     217.  00:410D  0F 0F             > [2] rrca
     217.  00:410F  E6 C0             >  and  0xC0
     217.  00:4111  4F                >  ld  c,a
     217.  00:4112  7A                >  ld  a,d
     217.  00:4113  E6 3F             >  and  0x3F
     217.  00:4115  B1                >  or  c
     217.  00:4116  4F                >  ld  c,a
     217.  00:4117                    > 
     217.  00:4117  78                >  ld  a,b
     217.  00:4118  E6 0C             >  and  0x0C
     217.  00:411A  0F 0F             > [2] rrca
     217.  00:411C  E6 03             >  and  3
     217.  00:411E  47                >  ld  b,a
     217.  00:411F  79                >  ld  a,c
     217.  00:4120  D3 A8             >  out  (0A8h),a
     217.  00:4122  3A FF FF          >  ld  a,(0FFFFh)
     217.  00:4125  2F                >  cpl
     217.  00:4126                    >  if (n<=4)
     217.  00:4126  07 07 07 07       > [n] RLCA
     217.  00:412A                    >  else
     217.  00:412A                    ~ [8-n] RRCA
     217.  00:412A                    ~  endif
     217.  00:412A  E6 FC             >  and  0xFC
     217.  00:412C  B0                >  or  b
     217.  00:412D                    >  if (n<=4)
     217.  00:412D  0F 0F 0F 0F       > [n] RRCA
     217.  00:4131                    >  else
     217.  00:4131                    ~ [8-n] RLCA
     217.  00:4131                    ~  endif
     217.  00:4131  32 FF FF          >  ld  (0FFFFh),a
     217.  00:4134  47                >  ld  b,a
     218.  00:4135  7A                  1:	ld		a,d				; A = Final value
     219.  00:4136  D3 A8               	out		(0A8h),a		; Slot Final. Ram, rom c, rom c, Main
     220.  00:4138  C9                  	ret
     221.  00:4139                      	
     222.  00:4139                      ; ---------------------------
     223.  00:4139                      ; SETSLOTPAGE3
     224.  00:4139                      ; Set the slot passed in A
     225.  00:4139                      ; at page 3 in the Z80 address space
     226.  00:4139                      ; A: Format FxxxSSPP
     227.  00:4139                      ; ----------------------------
     228.  00:4139                      	
     229.  00:4139                      setslotpage3:
     230.  00:4139  F3                  	di
     231.  00:413A  47                  	ld		b,a					; B = Slot param in FxxxSSPP format
     232.  00:413B  DB A8               	in		a,(0A8h)
     233.  00:413D  07 07               [2]	RLCA
     234.  00:413F  E6 FC               	and		0xFC
     235.  00:4141  57                  	ld		d,a					; D = Primary slot value
     236.  00:4142  78                  	ld		a,b
     237.  00:4143  E6 03               	and		3
     238.  00:4145  B2                  	or		d
     239.  00:4146  0F 0F               [2]	RRCA	
     240.  00:4148  57                  	ld		d,a		; D = Final Value for primary slot
     241.  00:4149  78                  	ld		a,b		; Check if expanded
     242.  00:414A  CB 7F               	bit		7,a
     243.  00:414C  28 26               	jr		z,1f	; Not Expanded
     244.  00:414E                      	mainslot_setup	2
     244.  00:414E  E6 03             >  and  3
     244.  00:4150  0F 0F             > [2] rrca
     244.  00:4152  E6 C0             >  and  0xC0
     244.  00:4154  4F                >  ld  c,a
     244.  00:4155  7A                >  ld  a,d
     244.  00:4156  E6 3F             >  and  0x3F
     244.  00:4158  B1                >  or  c
     244.  00:4159  4F                >  ld  c,a
     244.  00:415A                    > 
     244.  00:415A  78                >  ld  a,b
     244.  00:415B  E6 0C             >  and  0x0C
     244.  00:415D  0F 0F             > [2] rrca
     244.  00:415F  E6 03             >  and  3
     244.  00:4161  47                >  ld  b,a
     244.  00:4162  79                >  ld  a,c
     244.  00:4163  D3 A8             >  out  (0A8h),a
     244.  00:4165  3A FF FF          >  ld  a,(0FFFFh)
     244.  00:4168  2F                >  cpl
     244.  00:4169                    >  if (n<=4)
     244.  00:4169  07 07             > [n] RLCA
     244.  00:416B                    >  else
     244.  00:416B                    ~ [8-n] RRCA
     244.  00:416B                    ~  endif
     244.  00:416B  E6 FC             >  and  0xFC
     244.  00:416D  B0                >  or  b
     244.  00:416E                    >  if (n<=4)
     244.  00:416E  0F 0F             > [n] RRCA
     244.  00:4170                    >  else
     244.  00:4170                    ~ [8-n] RLCA
     244.  00:4170                    ~  endif
     244.  00:4170  32 FF FF          >  ld  (0FFFFh),a
     244.  00:4173  47                >  ld  b,a
     245.  00:4174  7A                  1:	ld		a,d				; A = Final value
     246.  00:4175  D3 A8               	out		(0A8h),a		; Slot Final. Ram, rom c, rom c, Main
     247.  00:4177  C9                  	ret
     248.  00:4178                      
     249.  00:4178                      	
      46   00:4178                      		include "vdpio.asm"
       1.  00:4178                      
       2.  00:4178                             
       3.  00:4178                      ;-------------------------------------
       4.  00:4178                      _cls:		
       5.  00:4178  11 00 00            		ld		de,0
       6.  00:417B  4B                  		ld		c,e
       7.  00:417C  F3                  		di
       8.  00:417D  CD A8 41            		call	_vdpsetvramwr
       9.  00:4180  01 00 00            		ld		bc,0x0000
      10.  00:4183  3E 25               1:		ld		a,00100101B
      11.  00:4185  D3 98               		out		(0x98),a
      12.  00:4187  0B                  		dec		bc
      13.  00:4188  78                  		ld		a,b
      14.  00:4189  B1                  		or		c
      15.  00:418A  20 F7               		jr	nz,1b
      16.  00:418C  3E 25               1:		ld		a,00100101B
      17.  00:418E  D3 98               		out		(0x98),a
      18.  00:4190  0B                  		dec		bc
      19.  00:4191  78                  		ld		a,b
      20.  00:4192  B1                  		or		c
      21.  00:4193  20 F7               		jr	nz,1b
      22.  00:4195  C9                  		ret
      23.  00:4196                      ;-------------------------------------
      24.  00:4196                      		
      25.  00:4196  (00:0099)           vdpport1 equ 0x99
      26.  00:4196  (00:009A)           vdpport2 equ 0x9A
      27.  00:4196                      
      28.  00:4196                      levelcolors:
      29.  00:4196                      	; incbin "palette.bin"
      30.  00:4196                      
      31.  00:4196                      _SetPalet:   
      32.  00:4196  F3                  	di
      33.  00:4197  AF                  	xor a 			;Set pointer to zero.
      34.  00:4198  D3 99               	out (vdpport1),a        
      35.  00:419A  3E 90               	ld  a,16 | 010000000B
      36.  00:419C  D3 99               	out (vdpport1),a
      37.  00:419E                      
      38.  00:419E  21 96 41            	ld  hl,levelcolors
      39.  00:41A1  01 9A 20            	ld bc,vdpport2+32*256
      40.  00:41A4  ED B3               	otir
      41.  00:41A6  FB                  	ei
      42.  00:41A7  C9                  	ret
      43.  00:41A8                      
      44.  00:41A8                      ;Set VDP for writing at address CDE (17-bit) 
      45.  00:41A8                      
      46.  00:41A8                      _vdpsetvramwr:
      47.  00:41A8  79                  	ld a,c
      48.  00:41A9                      ;Set VDP for writing at address ADE (17-bit) ;
      49.  00:41A9  CB 02               	rlc d
      50.  00:41AB  17                  	rla
      51.  00:41AC  CB 02               	rlc d
      52.  00:41AE  17                  	rla
      53.  00:41AF  CB 3A               	srl d ; primo shift, il secondo dopo la out
      54.  00:41B1                      
      55.  00:41B1  D3 99               	out (0x99),a ;set bits 14-16
      56.  00:41B3  3E 8E               	ld a,14+128
      57.  00:41B5  D3 99               	out (0x99),a
      58.  00:41B7                      
      59.  00:41B7  CB 3A               	srl d ; secondo shift.     
      60.  00:41B9                      _vdpsetvramwr14
      61.  00:41B9  7B                  	ld a,e ;set bits 0-7
      62.  00:41BA  D3 99               	out (0x99),a
      63.  00:41BC  7A                  	ld a,d ;set bits 8-13
      64.  00:41BD  F6 40               	or 0x40 ; + write access
      65.  00:41BF  D3 99               	out (0x99),a
      66.  00:41C1  C9                  	ret
      67.  00:41C2                      	
      68.  00:41C2                      ;Set VDP port #98 to start reading at address CDE (17-bit) ;
      69.  00:41C2                      
      70.  00:41C2                      _vdpsetvramrd:
      71.  00:41C2  79                  	ld a,c
      72.  00:41C3                      ;Set VDP port #98 to start reading at address ADE (17-bit) ;
      73.  00:41C3  CB 02               	rlc d
      74.  00:41C5  17                  	rla
      75.  00:41C6  CB 02               	rlc d
      76.  00:41C8  17                  	rla
      77.  00:41C9  CB 3A               	srl d ; primo shift, il secondo dopo la out
      78.  00:41CB                      
      79.  00:41CB  D3 99               	out (0x99),a ;set bits 14-16
      80.  00:41CD  3E 8E               	ld a,14+128
      81.  00:41CF  D3 99               	out (0x99),a
      82.  00:41D1                      
      83.  00:41D1  CB 3A               	srl d ; secondo shift.            
      84.  00:41D3  7B                  	ld a,e ;set bits 0-7
      85.  00:41D4  D3 99               	out (0x99),a
      86.  00:41D6  7A                  	ld a,d ;set bits 8-13
      87.  00:41D7  E6 3F               	and 0x3F
      88.  00:41D9  D3 99               	out (0x99),a
      89.  00:41DB  C9                  	ret
      90.  00:41DC                      
      91.  00:41DC                      ;Display page E in screen 5
      92.  00:41DC                      _setpage:
      93.  00:41DC  7B                  	ld a,e
      94.  00:41DD  87 87 87 87 87      [5]	add a,a ;x32
      95.  00:41E2  F6 1F               	or	 00011111B
      96.  00:41E4  F3                  	di
      97.  00:41E5  D3 99               	out (0x99),a
      98.  00:41E7  3E 82               	ld a,2+128
      99.  00:41E9  D3 99               	out (0x99),a
     100.  00:41EB  FB                  	ei            
     101.  00:41EC  C9                  	ret
     102.  00:41ED                      
     103.  00:41ED  (00:005F)           chgmod        equ     0x005f      ;change graphic mode
     104.  00:41ED  (00:000C)           RDSLT         equ     0x000c      ;read address HL in slot A
     105.  00:41ED  (00:0156)           KILBUF        equ     0x0156      ;clear keyboard buffer
     106.  00:41ED                      
     107.  00:41ED                      set_scr:
     108.  00:41ED  3E 08               	ld  	a,8
     109.  00:41EF  CD 5F 00            	call	chgmod
     110.  00:41F2                      	
     111.  00:41F2  F3                  	di
     112.  00:41F3                      	// sprites 16x16
     113.  00:41F3  3A E0 F3            	ld		a,(0xF3E0)
     114.  00:41F6  F6 02               	or		2
     115.  00:41F8  32 E0 F3            	ld		(0xF3E0),a
     116.  00:41FB  D3 99               	out		(0x99),a
     117.  00:41FD  3E 81               	ld		a,128+1
     118.  00:41FF  D3 99               	out		(0x99),a
     119.  00:4201                      
     120.  00:4201                      	// border color
     121.  00:4201                      	; ld		a,0x55
     122.  00:4201  AF                  	xor		a
     123.  00:4202  D3 99               	out		(0x99),a
     124.  00:4204  3E 87               	ld		a,128+7
     125.  00:4206  D3 99               	out		(0x99),a
     126.  00:4208                      		
     127.  00:4208                      	// enable sprites + TP
     128.  00:4208  3A E7 FF            	ld		a,(0xFFE7)
     129.  00:420B  F6 22               	or		32+2
     130.  00:420D  32 E7 FF            	ld		(0xFFE7),a
     131.  00:4210  D3 99               	out		(0x99),a
     132.  00:4212  3E 88               	ld		a,128+8
     133.  00:4214  D3 99               	out		(0x99),a
     134.  00:4216                      		
     135.  00:4216                      	// Set 192 lines @50Hz (PAL assumed!)
     136.  00:4216  3A 4F D3            	ld	a,(SEL_NTSC)
     137.  00:4219  A7                  	and 	a
     138.  00:421A  20 0C               	jr		nz,1f
     139.  00:421C                      	
     140.  00:421C  3A E8 FF            	ld		a,(0xFFE8)		; PAL
     141.  00:421F  E6 7F               	and		01111111B
     142.  00:4221  F6 02               	or		2
     143.  00:4223  32 E8 FF            	ld		(0xFFE8),a
     144.  00:4226  18 08               	jr	2f
     145.  00:4228                      1:		
     146.  00:4228  3A E8 FF            	ld		a,(0xFFE8)		; NTSC
     147.  00:422B  E6 7D               	and		01111101B
     148.  00:422D  32 E8 FF            	ld		(0xFFE8),a
     149.  00:4230                      2:	
     150.  00:4230  D3 99               	out		(0x99),a
     151.  00:4232  3E 89               	ld		a,128+9
     152.  00:4234  D3 99               	out		(0x99),a
     153.  00:4236  FB                  	ei
     154.  00:4237                      
     155.  00:4237  C9                  	ret
     156.  00:4238                      
     157.  00:4238                      
     158.  00:4238                      _waitvdp:
     159.  00:4238  F3                  	di
     160.  00:4239  3E 02               	ld a,2
     161.  00:423B  D3 99               	out (0x99),a
     162.  00:423D  3E 8F               	ld a, 0x8f
     163.  00:423F  D3 99               	out (0x99),a
     164.  00:4241                      
     165.  00:4241  DB 99               1:  in a,(0x99)
     166.  00:4243  0F                  	rrca
     167.  00:4244  DA 41 42            	jp c, 1b
     168.  00:4247                      
     169.  00:4247  AF                  	xor a
     170.  00:4248  D3 99               	out (0x99),a
     171.  00:424A  3E 8F               	ld a, 0x8f
     172.  00:424C  D3 99               	out (0x99),a
     173.  00:424E  FB                  	ei
     174.  00:424F  C9                  	ret
     175.  00:4250                      	
      47   00:4250                      		include "turbo.asm"
       1.  00:4250                      
       2.  00:4250  (00:000C)           rdslt	equ	0x000c
       3.  00:4250  (00:001C)           CALSLT	equ	0x001c
       4.  00:4250  (00:0180)           chgcpu	equ	0x0180	; change cpu mode
       5.  00:4250  (00:FCC1)           exttbl	equ	0xfcc1	; main rom slot
       6.  00:4250                      
       7.  00:4250                      ; Switch to r800 rom mode
       8.  00:4250                      	
       9.  00:4250                      _set_r800:
      10.  00:4250  DB AA               		in	a,(0aah)
      11.  00:4252  E6 F0               		and 011110000B			; upper 4 bits contain info to preserve
      12.  00:4254  F6 06               		or	6
      13.  00:4256  D3 AA               		out (0aah),a
      14.  00:4258  DB A9               		in	a,(0a9h)
      15.  00:425A  6F                  		ld	l,a
      16.  00:425B                      
      17.  00:425B  3A 2D 00            		ld	a,(0x002d)
      18.  00:425E  FE 03               		cp	3					; this is a TR
      19.  00:4260  7D                  		ld	a,l
      20.  00:4261  28 0E               		jr	z,set_turbo_tr
      21.  00:4263                      								; this is anything else
      22.  00:4263  E6 02               		and	0x02				; CTR
      23.  00:4265  C0                  		ret	nz					; if NZ, CTR is not pressed set the turbo
      24.  00:4266                      
      25.  00:4266  3A 80 01            		ld	A,(chgcpu)
      26.  00:4269  FE C3               		cp	0C3h
      27.  00:426B  3E 81               		ld	a,81h              ; R800 ROM mode or any other turbo
      28.  00:426D  CC 80 01            		call	z,chgcpu
      29.  00:4270  C9                  		ret
      30.  00:4271                      
      31.  00:4271                      set_turbo_tr
      32.  00:4271  E6 02               		and	0x02				; CTR
      33.  00:4273  C8                  		ret	z					; if Z, CTR is pressed -> do not set the turbo
      34.  00:4274  3E 81               		ld	a,81h              	; R800 ROM mode
      35.  00:4276  C3 80 01            		jp chgcpu
      36.  00:4279                      		
      48   00:4279                      		include "isr.asm"
       1.  00:4279                      
       2.  00:4279                      		; include "header.asm"
       3.  00:4279                      		
       4.  00:4279  (00:F3DF)           RG0SAV EQU 0xF3DF
       5.  00:4279  (00:F3E0)           RG1SAV equ 0xF3E0
       6.  00:4279  (00:F3E6)           RG7SAV equ 0xF3E6 ; border color
       7.  00:4279  (00:F3E7)           RG8SAV equ 0xF3E7 ; VDP Register 8 Save copy.
       8.  00:4279                      
       9.  00:4279  (00:FC9E)           _jiffy: equ 0xFC9E 
      10.  00:4279                      
      11.  00:4279                      	; global _intinit,_intreset,_scroll_sx,_scroll_dx
      12.  00:4279                      	; global _jiffy
      13.  00:4279                      	; global _xoffset
      14.  00:4279                      	; global _displaypage
      15.  00:4279                      	; global _direction
      16.  00:4279                      	; global _jiffy
      17.  00:4279                      
      18.  00:4279                      
      19.  00:4279                      _isrinit:
      20.  00:4279  F3                  	di
      21.  00:427A  21 38 00            	ld	hl,0x0038
      22.  00:427D  36 C3               	ld	(hl),0xC3
      23.  00:427F  23                  	inc	hl
      24.  00:4280  36 AE               	ld	(hl),low _scroll
      25.  00:4282  23                  	inc	hl
      26.  00:4283  36 42               	ld	(hl),high _scroll
      27.  00:4285                      
      28.  00:4285                      ; set interrupt line
      29.  00:4285  3E 9E               	LD    A,YSIZE-2
      30.  00:4287  D3 99               	OUT   (0x99),A
      31.  00:4289  3E 93               	LD    A,0x93
      32.  00:428B  D3 99               	OUT   (0x99),A
      33.  00:428D                      	
      34.  00:428D                      ; enable line interrupt
      35.  00:428D  3A DF F3            	LD    A,(RG0SAV)
      36.  00:4290  F6 10               	OR    0x10
      37.  00:4292  32 DF F3            	LD    (RG0SAV),A
      38.  00:4295  D3 99               	OUT   (0x99),A
      39.  00:4297  3E 80               	LD    A,0x80
      40.  00:4299  D3 99               	OUT   (0x99),A
      41.  00:429B  FB                  	ei
      42.  00:429C  C9                  	ret
      43.  00:429D                      	
      44.  00:429D                      _intreset:
      45.  00:429D                      ; disable line interrupt
      46.  00:429D  F3                  	di
      47.  00:429E  3A DF F3            	LD    A,(RG0SAV)
      48.  00:42A1  E6 EF               	and    0xEF
      49.  00:42A3  32 DF F3            	LD    (RG0SAV),A
      50.  00:42A6  D3 99               	OUT   (0x99),A
      51.  00:42A8  3E 80               	LD    A,0x80
      52.  00:42AA  D3 99               	OUT   (0x99),A
      53.  00:42AC  FB                  	ei
      54.  00:42AD  C9                  	ret
      55.  00:42AE                      	
      56.  00:42AE                      ;;;;;;;;;;;;;;;;;;;;;;
      57.  00:42AE                      ; actual ISR handler
      58.  00:42AE                      ;;;;;;;;;;;;;;;;;;;;;;
      59.  00:42AE                      
      60.  00:42AE                      _scroll:
      61.  00:42AE  F3                  	di
      62.  00:42AF  F5                  	push	af
      63.  00:42B0                      	
      64.  00:42B0  AF                  	xor	a 			; read S#0
      65.  00:42B1  D3 99               	out (0x99),a
      66.  00:42B3  3E 8F               	ld a,128+15
      67.  00:42B5  D3 99               	out (0x99),a
      68.  00:42B7  DB 99               	in	a,(0x99)
      69.  00:42B9  07                  	rlca
      70.  00:42BA  DA 75 43            	jp	c,vblank
      71.  00:42BD                      	
      72.  00:42BD  3E 01               	ld a,1 			; read S#1
      73.  00:42BF  D3 99               	out (0x99),a
      74.  00:42C1  3E 8F               	ld a,128+15
      75.  00:42C3  D3 99               	out (0x99),a
      76.  00:42C5  DB 99               	in a,(0x99)
      77.  00:42C7  1F                  	rra
      78.  00:42C8  DA CE 42            	jp	c,lint	
      79.  00:42CB                      	
      80.  00:42CB  F1                  	pop	af			; none of them (?)
      81.  00:42CC  FB                  	ei
      82.  00:42CD  C9                  	ret
      83.  00:42CE                      	
      84.  00:42CE                      ;;;;;;;;;;;;;;;;;;;;;;;;;;;;;;;;;;;;;	
      85.  00:42CE                      ; manage scorebar at YSIZE
      86.  00:42CE                      ;;;;;;;;;;;;;;;;;;;;;;;;;;;;;;;;;;;;;	
      87.  00:42CE                      	
      88.  00:42CE                      lint:					
      89.  00:42CE  3A E0 F3            	ld	a,(RG1SAV)
      90.  00:42D1  E6 BF               	and	0xBF			; disable screen
      91.  00:42D3  D3 99               	out	(0x99),a
      92.  00:42D5  3E 81               	ld	a,1+128
      93.  00:42D7  D3 99               	out	(0x99),a
      94.  00:42D9                      
      95.  00:42D9  3E 02               	ld a,2 				; read S#2
      96.  00:42DB  D3 99               	out (0x99),a
      97.  00:42DD  3E 8F               	ld a,128+15
      98.  00:42DF  D3 99               	out (0x99),a		; poll for HBLANK
      99.  00:42E1                      
     100.  00:42E1  DB 99               1:	in	a,(0x99)		; we are in HBLANK already, so wait until end of HBLANK
     101.  00:42E3  E6 20               	and	0x20
     102.  00:42E5  C2 E1 42            	jp	nz,1b			
     103.  00:42E8  DB 99               2:	in	a,(0x99)		; wait until end of the active area
     104.  00:42EA  E6 20               	and	0x20
     105.  00:42EC  CA E8 42            	jp	z,2b
     106.  00:42EF                      						; now we are at the start of HBLANK
     107.  00:42EF  AF                  	xor	a
     108.  00:42F0  D3 99               	out	(099h),a
     109.  00:42F2  3E 92               	ld	a,18+128
     110.  00:42F4  D3 99               	out	(099h),a		; setadjust 0,0
     111.  00:42F6                      	
     112.  00:42F6  3E 22               	LD    A,192-(YSIZE-2)	; SCROLL DOWN
     113.  00:42F8  D3 99               	OUT   (0x99),A
     114.  00:42FA  3E 97               	LD    A,23+128
     115.  00:42FC  D3 99               	OUT   (0x99),A
     116.  00:42FE                      
     117.  00:42FE  3E 1F               	ld a,00011111B		; 0XX11111B
     118.  00:4300  D3 99               	out (0x99),a
     119.  00:4302  3E 82               	ld a,2+128			; R#2 
     120.  00:4304  D3 99               	out (0x99),a		; score bar in page 0
     121.  00:4306                      
     122.  00:4306  3A E7 F3            	ld	a,(RG8SAV)
     123.  00:4309  F6 02               	or	2				; disable sprites
     124.  00:430B  D3 99               	out	(0x99),a
     125.  00:430D  3E 88               	ld	a,8+128
     126.  00:430F  D3 99               	out	(0x99),a
     127.  00:4311                      
     128.  00:4311  3A E0 F3            	ld	a,(RG1SAV)
     129.  00:4314  F6 42               	or 	0x42			; enable screen
     130.  00:4316  D3 99               	out	(0x99),a
     131.  00:4318  3E 81               	ld	a,1+128
     132.  00:431A  D3 99               	out	(0x99),a
     133.  00:431C                      	
     134.  00:431C  3E 00               	ld	a,border_color;00000001B		; dark blue colour
     135.  00:431E  D3 99               	out	(0x99),a
     136.  00:4320  3E 87               	ld	a,7+128
     137.  00:4322  D3 99               	out	(0x99),a
     138.  00:4324                      	
     139.  00:4324  E5                  	push   hl         
     140.  00:4325  D5                  	push   de         
     141.  00:4326  C5                  	push   bc         
     142.  00:4327  F5                  	push   af         
     143.  00:4328  D9                  	exx               
     144.  00:4329  08                  	ex     af,af'     
     145.  00:432A  E5                  	push   hl         
     146.  00:432B  D5                  	push   de         
     147.  00:432C  C5                  	push   bc         
     148.  00:432D  F5                  	push   af         
     149.  00:432E  FD E5               	push   iy         
     150.  00:4330  DD E5               	push   ix         
     151.  00:4332                      	
     152.  00:4332  3E 25               	ld	a,00100101B		; dark blue colour
     153.  00:4334  D3 99               	out	(0x99),a
     154.  00:4336  3E 87               	ld	a,7+128
     155.  00:4338  D3 99               	out	(0x99),a
     156.  00:433A                      	
     157.  00:433A  CD 82 44            	call plot_enemy
     158.  00:433D                      	
     159.  00:433D  3E 2D               	ld	a,00101101B
     160.  00:433F  D3 99               	out	(0x99),a
     161.  00:4341  3E 87               	ld	a,7+128
     162.  00:4343  D3 99               	out	(0x99),a
     163.  00:4345                      	
     164.  00:4345  21 57 43            	ld	hl,.exit
     165.  00:4348  E5                  	push	hl
     166.  00:4349  3A 81 D3            	ld	a,(_direction)
     167.  00:434C  CB 07               	rlc a
     168.  00:434E  28 06               	jr	z,1f
     169.  00:4350  D2 89 49            	jp	nc,inc_xoffset			; >0 == dx
     170.  00:4353  DA D0 49            	jp	 c,dec_xoffset			; <0 == sx
     171.  00:4356  E1                  1:	pop	hl
     172.  00:4357                      .exit:
     173.  00:4357                      
     174.  00:4357  CD CE 6A            	call	replay_route		; first output data
     175.  00:435A  CD 51 61            	call	replay_play			; calculate next output
     176.  00:435D                      
     177.  00:435D  AF                  	xor		a				; black colour
     178.  00:435E  D3 99               	out		(0x99),a
     179.  00:4360  3E 87               	ld		a,128+7
     180.  00:4362  D3 99               	out		(0x99),a
     181.  00:4364                      
     182.  00:4364  DD E1               	pop    ix         
     183.  00:4366  FD E1               	pop    iy         
     184.  00:4368  F1                  	pop    af         
     185.  00:4369  C1                  	pop    bc         
     186.  00:436A  D1                  	pop    de         
     187.  00:436B  E1                  	pop    hl         
     188.  00:436C  08                  	ex     af,af'     
     189.  00:436D  D9                  	exx               
     190.  00:436E  F1                  	pop    af         
     191.  00:436F  C1                  	pop    bc         
     192.  00:4370  D1                  	pop    de         
     193.  00:4371  E1                  	pop    hl         
     194.  00:4372                      
     195.  00:4372  F1                  	pop		af
     196.  00:4373  FB                  	ei
     197.  00:4374  C9                  	ret
     198.  00:4375                      
     199.  00:4375                      ;;;;;;;;;;;;;;;;;;;;;;;;;;;;;;;;;;;;;	
     200.  00:4375                      ;   manage normal vblank routine
     201.  00:4375                      ;;;;;;;;;;;;;;;;;;;;;;;;;;;;;;;;;;;;;	
     202.  00:4375                      
     203.  00:4375                      vblank:
     204.  00:4375  3A E7 F3            	ld	a,(RG8SAV)		; enable sprites
     205.  00:4378  E6 FD               	and	11111101B
     206.  00:437A  D3 99               	out	(0x99),a
     207.  00:437C  3E 88               	ld	a,8+128
     208.  00:437E  D3 99               	out	(0x99),a
     209.  00:4380  3A 80 D3            	ld	a,(_displaypage)
     210.  00:4383  87 87 87 87 87      [5]	add a,a 			; x32
     211.  00:4388  F6 1F               	or	00011111B
     212.  00:438A  D3 99               	out (0x99),a
     213.  00:438C  3E 82               	ld a,2+128
     214.  00:438E  D3 99               	out (0x99),a
     215.  00:4390                      
     216.  00:4390  E5                  	push	hl
     217.  00:4391  2A 9E FC            	ld	hl,(_jiffy)
     218.  00:4394  23                  	inc	hl
     219.  00:4395  22 9E FC            	ld	(_jiffy),hl
     220.  00:4398  E1                  	pop		hl
     221.  00:4399                      
     222.  00:4399  3A 84 D3            	LD    A,(_yoffset)		; SCROLL DOWN
     223.  00:439C  D3 99               	OUT   (0x99),A
     224.  00:439E  3E 97               	LD    A,23+128
     225.  00:43A0  D3 99               	OUT   (0x99),A
     226.  00:43A2                      
     227.  00:43A2  3A 84 D3            	LD    A,(_yoffset)		; set interrupt line
     228.  00:43A5  C6 9E               	add    A,YSIZE-2
     229.  00:43A7  D3 99               	OUT   (0x99),A
     230.  00:43A9  3E 93               	LD    A,0x93
     231.  00:43AB  D3 99               	OUT   (0x99),A
     232.  00:43AD                      			
     233.  00:43AD                      	; ld      a,2              ; wait VDPready
     234.  00:43AD                      	; out     (0x99),a         ; select s#2
     235.  00:43AD                      	; ld      a,15+128
     236.  00:43AD                      	; out     (0x99),a
     237.  00:43AD                      ; 1:	in      a,(0x99)
     238.  00:43AD                      	; rra
     239.  00:43AD                      	; jp      c,1b			; do not set R#18 if vdp is busy
     240.  00:43AD                      
     241.  00:43AD  3A 83 D3            	ld	a,(_xoffset)		; set R#18 only if not scrolling
     242.  00:43B0  C6 F8               	add	a,-8
     243.  00:43B2  E6 0F               	and	0Fh
     244.  00:43B4  D3 99               	out	(099h),a
     245.  00:43B6  3E 92               	ld	a,18+128
     246.  00:43B8  D3 99               	out	(099h),a
     247.  00:43BA                      	
     248.  00:43BA  F1                  	pop		af
     249.  00:43BB  FB                  	ei
     250.  00:43BC  C9                  	ret
      49   00:43BD                      		
      50   00:43BD                      		include checkkbd.asm
       1.  00:43BD                      
       2.  00:43BD                      ; // Line Bit_7 Bit_6 Bit_5 Bit_4 Bit_3 Bit_2 Bit_1 Bit_0
       3.  00:43BD                      ; // 0 "7" "6" "5" "4" "3" "2" "1" "0"
       4.  00:43BD                      ; // 1 ";" "]" "[" "\" "=" "-" "9" "8"
       5.  00:43BD                      ; // 2 "B" "A" ??? "/" "." "," "'" "`"
       6.  00:43BD                      ; // 3 "J" "I" "H" "G" "F" "E" "D" "C"
       7.  00:43BD                      ; // 4 "R" "Q" "P" "O" "N" "M" "L" "K"
       8.  00:43BD                      ; // 5 "Z" "Y" "X" "W" "V" "U" "T" "S"
       9.  00:43BD                      ; // 6 F3 F2 F1 CODE CAP GRAPH CTRL SHIFT
      10.  00:43BD                      ; // 7 RET SEL BS STOP TAB ESC F5 F4
      11.  00:43BD                      ; // 8 RIGHT DOWN UP LEFT DEL INS HOME SPACE
      12.  00:43BD                      
      13.  00:43BD                      checkkbd:
      14.  00:43BD  F3                  		di
      15.  00:43BE  DB AA               		in	a,(0aah)
      16.  00:43C0  E6 F0               		and 011110000B			; upper 4 bits contain info to preserve
      17.  00:43C2  B3                  		or	e
      18.  00:43C3  D3 AA               		out (0aah),a
      19.  00:43C5  DB A9               		in	a,(0a9h)
      20.  00:43C7  6F                  		ld	l,a
      21.  00:43C8  FB                  		ei
      22.  00:43C9  C9                  		ret
      51   00:43CA                      		include sprts.asm
       1.  00:43CA                      
       2.  00:43CA                      _hw_sprite_init:
       3.  00:43CA                      
       4.  00:43CA  0E 00               		ld		c,0
       5.  00:43CC  11 00 F0            		ld		de,0F000h
       6.  00:43CF  CD A8 41            		call	_vdpsetvramwr
       7.  00:43D2  21 00 AB            		ld		hl,sprtdata
       8.  00:43D5  01 98 00            		ld		bc,0x0098
       9.  00:43D8  3E 08               		ld		a,8
      10.  00:43DA  ED B3               1:		otir
      11.  00:43DC  3D                  		dec	a
      12.  00:43DD  20 FB               		jr	nz,1b
      13.  00:43DF                      
      14.  00:43DF  0E 00               		ld		c,0
      15.  00:43E1  11 00 FA            		ld		de,0FA00h
      16.  00:43E4  CD A8 41            		call	_vdpsetvramwr
      17.  00:43E7  3E D8               		ld		a,0xD8
      18.  00:43E9  D3 98               		out 	(0x98),a
      19.  00:43EB                      
      20.  00:43EB  C9                  		ret
      21.  00:43EC                      	
      22.  00:43EC                      ;;;;;;;;;;;;fake
      23.  00:43EC                      npc_init1:
      24.  00:43EC  06 06               	ld  b,max_bullets + max_enem_bullets
      25.  00:43EE  DD 21 97 D3         	ld  ix,any_object
      26.  00:43F2  11 0E 00            	ld	de,enemy_data
      27.  00:43F5                      	
      28.  00:43F5  DD 36 07 01         1:	ld  (ix+enemy_data.status),1
      29.  00:43F9  CD 65 4D            	call	rand8
      30.  00:43FC  DD 77 01            	ld	(ix+enemy_data.x+0),a
      31.  00:43FF  DD 36 02 03         	ld	(ix+enemy_data.x+1),3
      32.  00:4403  78                  	ld	a,b
      33.  00:4404  3D                  	dec a
      34.  00:4405  87 87 87 87         [4]	add	a,a
      35.  00:4409  DD 77 00            	ld	(ix+enemy_data.y),a
      36.  00:440C  DD 36 0A 20         	ld	(ix+enemy_data.frame),8*4
      37.  00:4410  DD 19               	add ix,de
      38.  00:4412  10 E1               	djnz 	1b
      39.  00:4414                      	
      40.  00:4414  06 0A               	ld  b,max_enem
      41.  00:4416  DD 36 07 01         1:	ld  (ix+enemy_data.status),1
      42.  00:441A  CD 65 4D            	call	rand8
      43.  00:441D  DD 77 01            	ld	(ix+enemy_data.x+0),a
      44.  00:4420  DD 36 02 02         	ld	(ix+enemy_data.x+1),2
      45.  00:4424  78                  	ld	a,b
      46.  00:4425  3D                  	dec a
      47.  00:4426  87 87 87 87         [4]	add	a,a
      48.  00:442A  DD 77 00            	ld	(ix+enemy_data.y),a
      49.  00:442D  CD 65 4D            	call	rand8
      50.  00:4430  E6 07               	and		7
      51.  00:4432  87 87 87 87         [4]	add	a,a
      52.  00:4436  C6 40               	add	a,16*4
      53.  00:4438  DD 77 0A            	ld	(ix+enemy_data.frame),a
      54.  00:443B  DD 19               	add ix,de
      55.  00:443D  10 D7               	djnz 	1b
      56.  00:443F                      		
      57.  00:443F                      	; load fake colors 
      58.  00:443F                      	
      59.  00:443F  0E 00               	ld		c,0
      60.  00:4441  11 00 F8            	ld		de,0FA00h-512
      61.  00:4444  CD A8 41            	call	_vdpsetvramwr
      62.  00:4447                      				
      63.  00:4447  0E 06               	ld	c,max_bullets + max_enem_bullets
      64.  00:4449  06 10               2:	ld	b,16
      65.  00:444B  3E 0F               	ld	a,15
      66.  00:444D  D3 98               1:	out	(0x98),a
      67.  00:444F  10 FC               	djnz 1b		
      68.  00:4451  0D                  	dec	c
      69.  00:4452  C2 49 44            	jp	nz,2b
      70.  00:4455                      		
      71.  00:4455  0E 05               	ld	c,max_enem/2
      72.  00:4457  06 10               2:	ld	b,16
      73.  00:4459  3E 08               	ld	a,8
      74.  00:445B  D3 98               1:	out	(0x98),a
      75.  00:445D  10 FC               	djnz 1b		
      76.  00:445F  06 10               	ld	b,16
      77.  00:4461  3E 43               	ld	a,3+64
      78.  00:4463  D3 98               1:	out	(0x98),a
      79.  00:4465  10 FC               	djnz 1b
      80.  00:4467  0D                  	dec	c
      81.  00:4468  C2 57 44            	jp	nz,2b
      82.  00:446B                      
      83.  00:446B  0E 05               	ld	c,max_enem/2
      84.  00:446D  06 10               2:	ld	b,16
      85.  00:446F  3E 0D               	ld	a,13
      86.  00:4471  D3 98               1:	out	(0x98),a
      87.  00:4473  10 FC               	djnz 1b		
      88.  00:4475  06 10               	ld	b,16
      89.  00:4477  3E 46               	ld	a,6+64
      90.  00:4479  D3 98               1:	out	(0x98),a
      91.  00:447B  10 FC               	djnz 1b
      92.  00:447D  0D                  	dec	c
      93.  00:447E  C2 6D 44            	jp	nz,2b
      94.  00:4481  C9                  	ret
      95.  00:4482                      ;;;;;;;;;;;;fake	
      96.  00:4482                      
      52   00:4482                      		include sat_update.asm
       1.  00:4482                      
       2.  00:4482                      ; _plot_enemy:
       3.  00:4482                      
       4.  00:4482                      ; __sat_update
       5.  00:4482                      	; ld		c,0
       6.  00:4482                      	; ld		de,0FA00h
       7.  00:4482                      	; call	_vdpsetvramwr
       8.  00:4482                      	; ld		hl,_sat
       9.  00:4482                      	; ld		bc,0x8098
      10.  00:4482                      ; 1:	outi
      11.  00:4482                      	; ld	a,(_xoffset)		; set R#18 only if not scrolling
      12.  00:4482                      	; add	a,(hl)
      13.  00:4482                      	; out (0x98),a
      14.  00:4482                      	; inc hl
      15.  00:4482                      ; [2]	outi
      16.  00:4482                      	; djnz 1b
      17.  00:4482                      	; ret
      18.  00:4482                      	
      19.  00:4482                      	
      20.  00:4482                      plot_enemy:
      21.  00:4482  0E 00               	ld		c,0
      22.  00:4484  11 00 FA            	ld		de,0FA00h	;+4*3	; 3 positions for main ship and its shadow
      23.  00:4487  CD A8 41            	call	_vdpsetvramwr
      24.  00:448A                      
      25.  00:448A  DD 21 97 D3         	ld	ix,any_object
      26.  00:448E                      
      27.  00:448E                      ; process MS bullets and enemy bullets
      28.  00:448E                      
      29.  00:448E  01 98 06            	ld	bc,0x98+256*(max_bullets + max_enem_bullets)
      30.  00:4491                      	
      31.  00:4491  DD 7E 07            1:	ld	a,(ix+enemy_data.status)
      32.  00:4494  E6 01               	and 1
      33.  00:4496  CA 1D 45            	jp	z,.spriteoff1
      34.  00:4499                      	
      35.  00:4499  DD 6E 01            	ld	l,(ix+enemy_data.x+0)
      36.  00:449C  DD 66 02            	ld	h,(ix+enemy_data.x+1)
      37.  00:449F  ED 5B 8E D3         	ld	de,(xmap)
      38.  00:44A3  AF                  	xor a
      39.  00:44A4  ED 52               	sbc hl,de				; dx = enemy.x - xmap
      40.  00:44A6  FA 1D 45            	jp	m,.spriteoff1		; dx <0
      41.  00:44A9                      
      42.  00:44A9  B4                  	or	h
      43.  00:44AA  C2 1D 45            	jp	nz,.spriteoff1		; dx >255
      44.  00:44AD                      
      45.  00:44AD  3A 83 D3            	ld	a,(_xoffset)		; compensate R#18 
      46.  00:44B0  85                  	add	a,l
      47.  00:44B1  DA 1D 45            	jp	c,.spriteoff1		; remove if off screen i.e. dx + _xoffset > 255
      48.  00:44B4  FE F0               	cp	240
      49.  00:44B6  D2 1D 45            	jp	nc,.spriteoff1		; remove if dx + _xoffset > 240
      50.  00:44B9                      	
      51.  00:44B9  DD 56 00            	ld	d,(ix+enemy_data.y)	; write Y
      52.  00:44BC  ED 51               	out (c),d
      53.  00:44BE  D3 98               	out (0x98),a			; write X
      54.  00:44C0  DD 7E 0A            	ld	a,(ix+enemy_data.frame)
      55.  00:44C3  D3 98               	out (0x98),a			; write shape
      56.  00:44C5  D3 98               	out (0x98),a			; write crap
      57.  00:44C7                      	
      58.  00:44C7                      .next1
      59.  00:44C7  11 0E 00            	ld	de,enemy_data
      60.  00:44CA  DD 19               	add ix,de
      61.  00:44CC  10 C3               	djnz	1b
      62.  00:44CE                      
      63.  00:44CE                      ; process two layer enemies
      64.  00:44CE                      
      65.  00:44CE  06 0A               	ld	b,max_enem 
      66.  00:44D0  DD 7E 07            1:	ld	a,(ix+enemy_data.status)
      67.  00:44D3  E6 01               	and 1
      68.  00:44D5  CA 2A 45            	jp	z,.spriteoff2
      69.  00:44D8                      
      70.  00:44D8  DD 6E 01            	ld	l,(ix+enemy_data.x+0)
      71.  00:44DB  DD 66 02            	ld	h,(ix+enemy_data.x+1)
      72.  00:44DE  ED 5B 8E D3         	ld	de,(xmap)
      73.  00:44E2  AF                  	xor a
      74.  00:44E3  ED 52               	sbc hl,de				; dx = enemy.x - xmap
      75.  00:44E5  FA 2A 45            	jp	m,.spriteoff2		; dx <0
      76.  00:44E8                      
      77.  00:44E8  B4                  	or	h
      78.  00:44E9  C2 2A 45            	jp	nz,.spriteoff2		; dx >255
      79.  00:44EC                      
      80.  00:44EC  3A 83 D3            	ld	a,(_xoffset)		; compensate R#18 
      81.  00:44EF  85                  	add	a,l
      82.  00:44F0  DA 2A 45            	jp	c,.spriteoff2		; remove if off screen i.e. dx + _xoffset > 255
      83.  00:44F3  FE F0               	cp	240
      84.  00:44F5  D2 2A 45            	jp	nc,.spriteoff2		; remove if dx + _xoffset > 240
      85.  00:44F8                      	
      86.  00:44F8  DD 56 00            	ld	d,(ix+enemy_data.y)	
      87.  00:44FB  ED 51               	out (c),d				; write Y
      88.  00:44FD  D3 98               	out (0x98),a			; write X
      89.  00:44FF  6F                  	ld  l,a
      90.  00:4500  DD 7E 0A            	ld	a,(ix+enemy_data.frame)
      91.  00:4503  D3 98               	out (0x98),a			; write shape
      92.  00:4505  D3 98               	out (0x98),a			; write crap
      93.  00:4507                      
      94.  00:4507  ED 51               	out (c),d				; write Y
      95.  00:4509  ED 69               	out (c),l				; write X
      96.  00:450B  C6 08               	add	a,8
      97.  00:450D  D3 98               	out (0x98),a			; write shape
      98.  00:450F  D3 98               	out (0x98),a			; write crap
      99.  00:4511                      	
     100.  00:4511                      .next2
     101.  00:4511  11 0E 00            	ld	de,enemy_data
     102.  00:4514  DD 19               	add ix,de
     103.  00:4516  10 B8               	djnz	1b
     104.  00:4518                      	
     105.  00:4518  3E D8               	ld	a,0xD8
     106.  00:451A  D3 98               	out (0x98),a			; SAT terminator
     107.  00:451C  C9                  	ret
     108.  00:451D                      	
     109.  00:451D                      
     110.  00:451D                      	
     111.  00:451D                      ;;;;;;;;;;;;;;;;;;;;;;;;;;;;;;;;;;;;;;;;;;;;;;;;;;;;;;;;;;;;;;;;;;;;;;
     112.  00:451D                      	
     113.  00:451D                      .spriteoff1
     114.  00:451D  3E D9               	ld	a,0xD9
     115.  00:451F                      [4]	out (0x98),a			; write crap
     115.  00:451F  D3 98 D3 98 D3 98 D3 98 
     116.  00:4527  C3 C7 44            	jp	.next1
     117.  00:452A                      
     118.  00:452A                      .spriteoff2
     119.  00:452A  3E D9               	ld	a,0xD9
     120.  00:452C                      [8]	out (0x98),a			; write crap
     120.  00:452C  D3 98 D3 98 D3 98 D3 98 D3 98 D3 98 D3 98 D3 98 
     121.  00:453C  C3 11 45            	jp	.next2
     122.  00:453F                      
     123.  00:453F                      ;;;;;;;;;;;;;;;;;;;;;;;;;;;;;;;;;;;;;;;;;;;;;;;;;;;;;;;;;;;;;;;;;;;;;;
      53   00:453F                      		include collision_tst.asm
       1.  00:453F  (00C1)              	align 0x100
       2.  00:4600                      sprite_collision_windows:
       3.  00:4600  00 (12)             	ds	3*4				; first 3 frames are missing
       4.  00:460C                      	include sprite_collision_window.asm
       1:  00:460C                      
       2:  00:460C                       ; xoff			db	0 
       3:  00:460C                       ; yoff			db	0 
       4:  00:460C                       ; xsize		db	0 
       5:  00:460C                       ; ysize		db	0 
       6:  00:460C                      
       7:  00:460C                      sprite_0:
       8:  00:460C                      sprite_1:
       9:  00:460C                      sprite_2:
      10:  00:460C                      sprite_3:
      11:  00:460C  03 03 0A 0B             defb  3, 3,10,11 
      12:  00:4610                      sprite_4:
      13:  00:4610  00 00 10 10             defb  0, 0,16,16 
      14:  00:4614                      sprite_5:
      15:  00:4614  00 00 10 10             defb  0, 0,16,16 
      16:  00:4618                      sprite_6:
      17:  00:4618  00 00 10 0F             defb  0, 0,16,15 
      18:  00:461C                      sprite_7:
      19:  00:461C  00 00 10 10             defb  0, 0,16,16 
      20:  00:4620                      sprite_8:
      21:  00:4620  04 01 08 0E             defb  4, 1, 8,14 
      22:  00:4624                      sprite_9:
      23:  00:4624  04 03 08 0B             defb  4, 3, 8,11 
      24:  00:4628                      sprite_10:
      25:  00:4628  04 05 08 07             defb  4, 5, 8, 7 
      26:  00:462C                      sprite_11:
      27:  00:462C  04 06 08 05             defb  4, 6, 8, 5 
      28:  00:4630                      sprite_12:
      29:  00:4630  04 07 08 02             defb  4, 7, 8, 2 
      30:  00:4634                      sprite_13:
      31:  00:4634  04 06 08 05             defb  4, 6, 8, 5 
      32:  00:4638                      sprite_14:
      33:  00:4638  04 05 08 07             defb  4, 5, 8, 7 
      34:  00:463C                      sprite_15:
      35:  00:463C  04 03 08 0B             defb  4, 3, 8,11 
      36:  00:4640                      sprite_16:
      37:  00:4640  00 00 10 0F             defb  0, 0,16,15 
      38:  00:4644                      sprite_17:
      39:  00:4644  00 00 10 0F             defb  0, 0,16,15 
      40:  00:4648                      sprite_18:
      41:  00:4648  00 01 10 0F             defb  0, 1,16,15 
      42:  00:464C                      sprite_19:
      43:  00:464C  00 01 10 0F             defb  0, 1,16,15 
      44:  00:4650                      sprite_20:
      45:  00:4650  00 00 10 0F             defb  0, 0,16,15 
      46:  00:4654                      sprite_21:
      47:  00:4654  00 00 10 0F             defb  0, 0,16,15 
      48:  00:4658                      sprite_22:
      49:  00:4658  00 03 10 0D             defb  0, 3,16,13 
      50:  00:465C                      sprite_23:
      51:  00:465C  00 03 10 0D             defb  0, 3,16,13 
      52:  00:4660                      sprite_24:
      53:  00:4660  00 00 10 10             defb  0, 0,16,16 
      54:  00:4664                      sprite_25:
      55:  00:4664  00 00 10 10             defb  0, 0,16,16 
      56:  00:4668                      sprite_26:
      57:  00:4668  00 00 10 10             defb  0, 0,16,16 
      58:  00:466C                      sprite_27:
      59:  00:466C  00 00 10 10             defb  0, 0,16,16 
      60:  00:4670                      sprite_28:
      61:  00:4670  00 00 10 0F             defb  0, 0,16,15 
      62:  00:4674                      sprite_29:
      63:  00:4674  00 00 10 0F             defb  0, 0,16,15 
      64:  00:4678                      sprite_30:
      65:  00:4678  00 01 10 0F             defb  0, 1,16,15 
      66:  00:467C                      sprite_31:
      67:  00:467C  00 01 10 0F             defb  0, 1,16,15 
      68:  00:4680                      sprite_32:
      69:  00:4680  00 00 10 0F             defb  0, 0,16,15 
      70:  00:4684                      sprite_33:
      71:  00:4684  00 00 10 0F             defb  0, 0,16,15 
      72:  00:4688                      sprite_34:
      73:  00:4688  00 00 10 10             defb  0, 0,16,16 
      74:  00:468C                      sprite_35:
      75:  00:468C  00 00 10 10             defb  0, 0,16,16 
      76:  00:4690                      sprite_36:
      77:  00:4690  00 00 10 10             defb  0, 0,16,16 
      78:  00:4694                      sprite_37:
      79:  00:4694  00 00 10 10             defb  0, 0,16,16 
      80:  00:4698                      sprite_38:
      81:  00:4698  00 00 10 10             defb  0, 0,16,16 
      82:  00:469C                      sprite_39:
      83:  00:469C  00 00 10 10             defb  0, 0,16,16 
      84:  00:46A0                      sprite_40:
      85:  00:46A0  00 00 10 0F             defb  0, 0,16,15 
      86:  00:46A4                      sprite_41:
      87:  00:46A4  00 00 10 0F             defb  0, 0,16,15 
      88:  00:46A8                      sprite_42:
      89:  00:46A8  00 01 10 0F             defb  0, 1,16,15 
      90:  00:46AC                      sprite_43:
      91:  00:46AC  00 01 10 0F             defb  0, 1,16,15 
      92:  00:46B0                      sprite_44:
      93:  00:46B0  00 00 10 0F             defb  0, 0,16,15 
      94:  00:46B4                      sprite_45:
      95:  00:46B4  00 00 10 0F             defb  0, 0,16,15 
      96:  00:46B8                      sprite_46:
      97:  00:46B8  00 01 10 0F             defb  0, 1,16,15 
      98:  00:46BC                      sprite_47:
      99:  00:46BC  00 01 10 0F             defb  0, 1,16,15 
     100:  00:46C0                      sprite_48:
     101:  00:46C0  00 00 10 0F             defb  0, 0,16,15 
     102:  00:46C4                      sprite_49:
     103:  00:46C4  00 00 10 0F             defb  0, 0,16,15 
     104:  00:46C8                      sprite_50:
     105:  00:46C8  00 00 10 10             defb  0, 0,16,16 
     106:  00:46CC                      sprite_51:
     107:  00:46CC  00 00 10 10             defb  0, 0,16,16 
     108:  00:46D0                      sprite_52:
     109:  00:46D0  00 01 10 0D             defb  0, 1,16,13 
     110:  00:46D4                      sprite_53:
     111:  00:46D4  00 01 10 0D             defb  0, 1,16,13 
     112:  00:46D8                      sprite_54:
     113:  00:46D8  00 01 10 0E             defb  0, 1,16,14 
     114:  00:46DC                      sprite_55:
     115:  00:46DC  00 01 10 0E             defb  0, 1,16,14 
     116:  00:46E0                      sprite_56:
     117:  00:46E0  00 03 10 09             defb  0, 3,16, 9 
     118:  00:46E4                      sprite_57:
     119:  00:46E4  00 03 10 09             defb  0, 3,16, 9 
     120:  00:46E8                      sprite_58:
     121:  00:46E8  00 03 10 0A             defb  0, 3,16,10 
     122:  00:46EC                      sprite_59:
     123:  00:46EC  00 03 10 0A             defb  0, 3,16,10 
     124:  00:46F0                      sprite_60:
     125:  00:46F0  00 05 10 05             defb  0, 5,16, 5 
     126:  00:46F4                      sprite_61:
     127:  00:46F4  00 05 10 05             defb  0, 5,16, 5 
     128:  00:46F8                      sprite_62:
     129:  00:46F8  00 06 10 05             defb  0, 6,16, 5 
     130:  00:46FC                      sprite_63:
     131:  00:46FC  00 06 10 05             defb  0, 6,16, 5 
       5.  00:4700                      
       6.  00:4700                      ;	in: 
       7.  00:4700                      ;		IX-> current sprite
       8.  00:4700                      ;		(ix+enemy_data.frame) = frame in the SPT
       9.  00:4700                      ;	out;
      10.  00:4700                      ;		IX -> xoff,yoff,xsize,ysize are set
      11.  00:4700                      	
      12.  00:4700                      set_size:
      13.  00:4700  08                   	ex	af,af'
      14.  00:4701  DD 7E 0A            	ld	a,(ix+enemy_data.frame)
      15.  00:4704  D9                  	exx
      16.  00:4705  E6 FC               	and	%11111100
      17.  00:4707  6F                  	ld	l,a
      18.  00:4708  26 46               	ld	h,high sprite_collision_windows		
      19.  00:470A  7E                  	ld	a,(hl)
      20.  00:470B  DD 77 03            	ld	(ix+enemy_data.xoff),a
      21.  00:470E  23                  	inc	hl
      22.  00:470F  7E                  	ld	a,(hl)
      23.  00:4710  DD 77 04            	ld	(ix+enemy_data.yoff),a
      24.  00:4713  23                  	inc	hl
      25.  00:4714  7E                  	ld	a,(hl)
      26.  00:4715  DD 77 05            	ld	(ix+enemy_data.xsize),a
      27.  00:4718  23                  	inc	hl
      28.  00:4719  7E                  	ld	a,(hl)
      29.  00:471A  DD 77 06            	ld	(ix+enemy_data.ysize),a
      30.  00:471D  D9                  	exx
      31.  00:471E  08                  	ex		af,af'
      32.  00:471F  C9                  	ret
      33.  00:4720                      
      34.  00:4720                      ;	in: 
      35.  00:4720                      ;		IY-> current sprite
      36.  00:4720                      ;		(iY+enemy_data.frame) = frame in the SPT
      37.  00:4720                      ;	out;
      38.  00:4720                      ;		IY -> xoff,yoff,xsize,ysize are set
      39.  00:4720                      	
      40.  00:4720                      set_size2:
      41.  00:4720  08                   	ex	af,af'
      42.  00:4721  FD 7E 0A            	ld	a,(iy+enemy_data.frame)
      43.  00:4724  D9                  	exx
      44.  00:4725  E6 FC               	and	%11111100
      45.  00:4727  6F                  	ld	l,a
      46.  00:4728  26 46               	ld	h,high sprite_collision_windows		
      47.  00:472A  7E                  	ld	a,(hl)
      48.  00:472B  FD 77 03            	ld	(iy+enemy_data.xoff),a
      49.  00:472E  23                  	inc	hl
      50.  00:472F  7E                  	ld	a,(hl)
      51.  00:4730  FD 77 04            	ld	(iy+enemy_data.yoff),a
      52.  00:4733  23                  	inc	hl
      53.  00:4734  7E                  	ld	a,(hl)
      54.  00:4735  FD 77 05            	ld	(iy+enemy_data.xsize),a
      55.  00:4738  23                  	inc	hl
      56.  00:4739  7E                  	ld	a,(hl)
      57.  00:473A  FD 77 06            	ld	(iy+enemy_data.ysize),a
      58.  00:473D  D9                  	exx
      59.  00:473E  08                  	ex		af,af'
      60.  00:473F  C9                  	ret
      61.  00:4740                      	
      62.  00:4740                      
      63.  00:4740                      ;	in: 
      64.  00:4740                      ;		IX-> current bullet
      65.  00:4740                      ;		(iY+enemy_data.frame) = frame in the SPT
      66.  00:4740                      ;		xship,yship,ms_ysize,ms_xoff ecc ecc
      67.  00:4740                      ;	out:
      68.  00:4740                      ;		Carry set = MS is hit
      69.  00:4740                      ;
      70.  00:4740                      test_collision_enemy_bullets:
      71.  00:4740                      	
      72.  00:4740  DD 7E 00            	ld  a,(ix+enemy_data.y)
      73.  00:4743  DD 86 04            	add a,(ix+enemy_data.yoff)
      74.  00:4746  47                  	ld  b,a
      75.  00:4747  DD 4E 06            	ld  c,(ix+enemy_data.ysize)
      76.  00:474A                      	
      77.  00:474A                      	;[minx(h) maxx(h) miny(h) maxy(h)]
      78.  00:474A                      	
      79.  00:474A  3A 90 D3            	ld  a,(yship)
      80.  00:474D  FD 86 02            	add	a,(iy+2)
      81.  00:4750  57                  	ld  d,a
      82.  00:4751                      	
      83.  00:4751  FD 7E 03            	ld	a,(iy+3)
      84.  00:4754  FD 96 02            	sub	a,(iy+2)
      85.  00:4757  3C                  	inc	a
      86.  00:4758  5F                  	ld  e,a 		; 	ms_ysize
      87.  00:4759                      	
      88.  00:4759  CD DF 47            	call	CollisionCheck_8b
      89.  00:475C  D0                  	ret nc
      90.  00:475D                      	
      91.  00:475D                      	;[minx(h) maxx(h) miny(h) maxy(h)]
      92.  00:475D                      	
      93.  00:475D  DD 6E 01            	ld l,(ix+enemy_data.x)
      94.  00:4760  DD 66 02            	ld h,(ix+enemy_data.x+1)
      95.  00:4763  16 00               	ld d,0
      96.  00:4765  DD 5E 03            	ld e,(ix+enemy_data.xoff)
      97.  00:4768  19                  	add hl,de
      98.  00:4769  EB                  	ex de,hl
      99.  00:476A                      	
     100.  00:476A  44                  	ld b,h
     101.  00:476B  2A 91 D3            	ld hl,(xship)
     102.  00:476E  FD 4E 00            	ld c,(iy+0) ;	ms_xoff
     103.  00:4771  09                  	add hl,bc
     104.  00:4772                      
     105.  00:4772  DD 4E 05            	ld c,(ix+enemy_data.xsize)
     106.  00:4775                      	
     107.  00:4775  FD 7E 01            	ld	a,(iy+1)
     108.  00:4778  FD 96 00            	sub	a,(iy+0)
     109.  00:477B  3C                  	inc	a
     110.  00:477C  47                  	ld  b,a 		; ms_xsize
     111.  00:477D                      
     112.  00:477D  C3 CF 47            	jp CalcCollision
     113.  00:4780                      	; call CalcCollision
     114.  00:4780                      	; ret 
     115.  00:4780                      	
     116.  00:4780                      ;	in: 
     117.  00:4780                      ;		ix -> current enemy
     118.  00:4780                      ;	out;
     119.  00:4780                      ; 		Carry set = collision
     120.  00:4780                      	
     121.  00:4780                      test_collision_msbullets:
     122.  00:4780                      
     123.  00:4780  FD 21 97 D3             ld  iy,ms_bullets
     124.  00:4784  11 0E 00            	ld  de,enemy_data
     125.  00:4787  06 03                   ld  b,max_bullets
     126.  00:4789  A7                      and	a
     127.  00:478A                      	
     128.  00:478A  D9                  1:	exx
     129.  00:478B                          
     130.  00:478B  FD CB 07 46         	bit 0,(iy+enemy_data.status)
     131.  00:478F  C4 99 47            	call	nz,test_collision
     132.  00:4792  D8                  	ret	c
     133.  00:4793                      	
     134.  00:4793  D9                  	exx
     135.  00:4794  FD 19                   add iy,de
     136.  00:4796  10 F2                   djnz   1b
     137.  00:4798  C9                  	ret
     138.  00:4799                      	
     139.  00:4799                      
     140.  00:4799                      ; struct enemy_data
     141.  00:4799                      ; y               db  0
     142.  00:4799                      ; x               dw  0
     143.  00:4799                      ; xoff			db	0
     144.  00:4799                      ; yoff			db	0
     145.  00:4799                      ; xsize			db	0
     146.  00:4799                      ; ysize			db	0
     147.  00:4799                      ; status          db  0
     148.  00:4799                      ; cntr            db  0
     149.  00:4799                      ; kind            db  0
     150.  00:4799                      ; frame			db	0
     151.  00:4799                      ; color			db	0
     152.  00:4799                      ; speed           dw  0
     153.  00:4799                      ; ends
     154.  00:4799                      
     155.  00:4799                      
     156.  00:4799                      ; IN: 
     157.  00:4799                      ; 	ix -> object 1
     158.  00:4799                      ; 	iy -> object 2
     159.  00:4799                      ;
     160.  00:4799                      ; OUT: 
     161.  00:4799                      ; Carry set = collision
     162.  00:4799                      
     163.  00:4799                      test_collision:
     164.  00:4799  DD 7E 00            	ld  a,(ix+enemy_data.y)
     165.  00:479C  DD 86 04            	add a,(ix+enemy_data.yoff)
     166.  00:479F  47                  	ld  b,a
     167.  00:47A0  DD 4E 06            	ld  c,(ix+enemy_data.ysize)
     168.  00:47A3                      	
     169.  00:47A3  FD 7E 00            	ld  a,(iy+enemy_data.y)
     170.  00:47A6  FD 86 04            	add	a,(iy+enemy_data.yoff)
     171.  00:47A9  57                  	ld  d,a
     172.  00:47AA  FD 5E 06            	ld  e,(iy+enemy_data.ysize)
     173.  00:47AD                      	
     174.  00:47AD  CD DF 47            	call	CollisionCheck_8b
     175.  00:47B0  D0                  	ret nc
     176.  00:47B1                      	
     177.  00:47B1  DD 6E 01            	ld l,(ix+enemy_data.x)
     178.  00:47B4  DD 66 02            	ld h,(ix+enemy_data.x+1)
     179.  00:47B7  16 00               	ld d,0
     180.  00:47B9  42                  	ld b,d
     181.  00:47BA  DD 5E 03            	ld e,(ix+enemy_data.xoff)
     182.  00:47BD  19                  	add hl,de
     183.  00:47BE  EB                  	ex de,hl
     184.  00:47BF                      	
     185.  00:47BF  FD 6E 01            	ld l,(iy+enemy_data.x)
     186.  00:47C2  FD 66 02            	ld h,(iy+enemy_data.x+1)
     187.  00:47C5  FD 4E 03            	ld c,(iy+enemy_data.xoff)
     188.  00:47C8  09                  	add hl,bc
     189.  00:47C9                      
     190.  00:47C9  DD 4E 05            	ld c,(ix+enemy_data.xsize)
     191.  00:47CC  FD 46 05            	ld b,(iy+enemy_data.xsize)
     192.  00:47CF                      
     193.  00:47CF                      	; call CalcCollision
     194.  00:47CF                      	; ret 
     195.  00:47CF                      
     196.  00:47CF                      ; CalcCollision
     197.  00:47CF                      ;
     198.  00:47CF                      ; 1D collision check
     199.  00:47CF                      ;
     200.  00:47CF                      ; IN: 
     201.  00:47CF                      ; 	DE = Location object 1
     202.  00:47CF                      ; 	C = Size object 1
     203.  00:47CF                      ; 	HL = Location object 2
     204.  00:47CF                      ; 	B = Size object 2
     205.  00:47CF                      ; OUT: 
     206.  00:47CF                      ; Carry set = collision
     207.  00:47CF                      ;
     208.  00:47CF                      CalcCollision:
     209.  00:47CF  AF                  	xor a
     210.  00:47D0  ED 52               	sbc hl,de		; x2-x1
     211.  00:47D2  57                  	ld  d,a
     212.  00:47D3  38 04               	jr  c,.switch 	; jump if x2<x1
     213.  00:47D5                      	
     214.  00:47D5                      					; x2>=x1
     215.  00:47D5  59                  	ld  e,c
     216.  00:47D6  ED 52               	sbc hl,de		; C == x2-x1<dx1	
     217.  00:47D8  C9                  	ret
     218.  00:47D9                      
     219.  00:47D9                      
     220.  00:47D9                      .switch:			; x2-x1<0
     221.  00:47D9  57                  	ld	d,a
     222.  00:47DA  58                  	ld	e,b
     223.  00:47DB  AF                  	xor	a
     224.  00:47DC  ED 52               	sbc hl,de		; x2-x1 - dx2
     225.  00:47DE  C9                  	ret				; C == x1-x2<dx2
     226.  00:47DF                      
     227.  00:47DF                      ;
     228.  00:47DF                      ; CollisionCheck
     229.  00:47DF                      ;
     230.  00:47DF                      ;   Calculates whether a collision occurs between two objects
     231.  00:47DF                      ;   of a certain size
     232.  00:47DF                      ;
     233.  00:47DF                      ; IN: b = coordinate of object 1
     234.  00:47DF                      ;     c = size of object 1
     235.  00:47DF                      ;     d = coordinate of object 2
     236.  00:47DF                      ;     e = size of object 2
     237.  00:47DF                      ; OUT: Carry set if collision
     238.  00:47DF                      ; CHANGES: AF
     239.  00:47DF                      ;
     240.  00:47DF                      CollisionCheck_8b:
     241.  00:47DF  7A                          ld      a,d             ; get x2                       [5]
     242.  00:47E0  90                          sub     b               ; calculate x2-x1              [5]
     243.  00:47E1  38 02                       jr      c,.other        ; jump if x2<x1                [13/8]
     244.  00:47E3  91                          sub     c               ; compare with size 1          [5]
     245.  00:47E4  C9                          ret                     ; return result                [11]
     246.  00:47E5                      .other:
     247.  00:47E5  ED 44                       neg                     ; use negative value           [10]
     248.  00:47E7  93                          sub     e               ; compare with size 1          [5]
     249.  00:47E8  C9                          ret                     ; return result                [11]
     250.  00:47E9                      
     251.  00:47E9                      
     252.  00:47E9                      	
     253.  00:47E9                      ;;;;;;;;;;;;;;;;;;;;;;;;;;;;;;;;;;;;;;;;;;;;;;;;;;;;;;;;;;;;;;;;;;;;;;;;;;;;;
     254.  00:47E9                      ; check_obj_collision
     255.  00:47E9                      ; (obj *obj1,                          DE
     256.  00:47E9                      ;  obj *obj2);                         BC
     257.  00:47E9                      ;
     258.  00:47E9                      ; obj->
     259.  00:47E9                      ;    dw x,y
     260.  00:47E9                      ;    db dx,dy
     261.  00:47E9                      ;
     262.  00:47E9                      ; if collision 
     263.  00:47E9                      ;	return HL = -1 
     264.  00:47E9                      ; else 
     265.  00:47E9                      ;	return HL = 0
     266.  00:47E9                      
     267.  00:47E9                      	struct obj_data
     268.  00:47E9                    < y               db  0
     269.  00:47E9                    < x               dw  0
     270.  00:47E9                    < xoff			db	0
     271.  00:47E9                    < yoff			db	0
     272.  00:47E9                    < xsize			db	0
     273.  00:47E9                    < ysize			db	0
     274.  00:47E9                    <     ends
     275.  00:47E9                      
     276.  00:47E9                      
     277.  00:47E9                      _check_obj_collision:
     278.  00:47E9                      
     279.  00:47E9                      ;;;;;;;;;;;;;;;;;;;;;;;;;;;;;;;;;;;;;;;;;;;;;;;;;;;;;;;;;;;;;;;;;;;;;;;;;;;;;
     280.  00:47E9                      
     281.  00:47E9  D5                  	push de
     282.  00:47EA  DD E1               	pop ix		; ix   -> obj_data1
     283.  00:47EC  C5                  	push bc
     284.  00:47ED  FD E1               	pop iy		; iy   -> obj_data1
     285.  00:47EF                      
     286.  00:47EF                      check_obj_collision_8_16:
     287.  00:47EF                      ;;;;;;;;;;;;;;;;;;;;;;;;;;;;;;;;;;;;;;;;;;;;;;;;;;;;;;;;;;;;;;;;;;;;;;;;;;;;;
     288.  00:47EF                      
     289.  00:47EF  DD 7E 00            	ld  a,(ix+obj_data.y)        ; TEST Y
     290.  00:47F2  DD 86 04            	add	a,(ix+obj_data.yoff)
     291.  00:47F5  6F                  	ld	l,a				; HL=vertical pos. object 1 + 256 (i.e. Y1+256)
     292.  00:47F6  26 01               	ld	h,1
     293.  00:47F8                      	
     294.  00:47F8                      	
     295.  00:47F8  FD 7E 00            	ld  a,(iy+obj_data.y)
     296.  00:47FB  FD 86 04            	add	a,(iy+obj_data.yoff)
     297.  00:47FE  5F                  	ld	e,a		    	; DE=vertical pos. object 2 + 256 (i.e. Y2+256)
     298.  00:47FF  54                  	ld	d,h               
     299.  00:4800                      
     300.  00:4800  FD 46 06            	ld      b,(iy+obj_data.ysize)    ; B=number of pixels, object 2 (i.e. Ysize2)
     301.  00:4803                      
     302.  00:4803  AF                  	xor      a
     303.  00:4804  ED 52               	sbc     hl,de
     304.  00:4806  30 08               	jr      nc,1f       ; if HL<DE swap objects
     305.  00:4808                      
     306.  00:4808                      swap_objects_y:
     307.  00:4808                      
     308.  00:4808  DD 46 06            	ld      b,(ix+obj_data.ysize)    ; B=number of pixels, object 1 (i.e. Ysize1)
     309.  00:480B                      
     310.  00:480B  EB                  	ex      de,hl
     311.  00:480C  67                  	ld      h,a			; NB: A is 0
     312.  00:480D  6F                  	ld      l,a
     313.  00:480E  ED 52               	sbc     hl,de       ; HL = - HL
     314.  00:4810                      
     315.  00:4810  B4                  1:	or      h			; NB: A was 0
     316.  00:4811  20 30               	jr      nz,9f       ; Delta Y>256 == test failed (NB: CF = 0)
     317.  00:4813                      
     318.  00:4813  7D                  	ld      a,l         ; A = abs(Y2+256-(Y1+256)); B = (Y2>Y1) ? Ysize1 : Ysize2;
     319.  00:4814  B8                  	cp      b
     320.  00:4815  30 2C               	jr      nc,9f       ; delta Y> B == test failed
     321.  00:4817                      
     322.  00:4817                      ;;;;;;;;;;;;;;;;;;;;;;;;;;;;;;;;;;;;;;;;;;;;;;;;;;;;;;;;;;;;;;;;;;;;;;;;;;;;;
     323.  00:4817  06 01               	ld	b,1
     324.  00:4819                      
     325.  00:4819  DD 6E 01            	ld  l,(ix+obj_data.x)        ; TEST X
     326.  00:481C  DD 66 02            	ld  h,(ix+obj_data.x+1)
     327.  00:481F  DD 4E 03            	ld	c,(ix+obj_data.xoff)
     328.  00:4822  09                  	add	hl,bc		    ; HL=x pos. object 1 + 256 (i.e. X1+256)
     329.  00:4823                      
     330.  00:4823  FD 5E 01            	ld  e,(iy+obj_data.x)
     331.  00:4826  FD 56 02            	ld  d,(iy+obj_data.x+1)
     332.  00:4829  FD 4E 03            	ld	c,(iy+obj_data.xoff)
     333.  00:482C  09                  	add	hl,bc		    ; DE=x pos. object 2 + 256 (i.e. X2+256)
     334.  00:482D  EB                  	ex	de,hl               
     335.  00:482E                      
     336.  00:482E  FD 46 05            	ld      b,(iy+obj_data.xsize)    ; Xsize2 in b
     337.  00:4831                      
     338.  00:4831  AF                  	xor      a
     339.  00:4832  ED 52               	sbc     hl,de       ; x1-x2
     340.  00:4834  30 08               	jr      nc,1f       ; if (x1-x2>=0) swap objects (NB CF=0)
     341.  00:4836                      
     342.  00:4836                      swap_objects_x:
     343.  00:4836                      
     344.  00:4836  DD 46 05            	ld      b,(ix+obj_data.xsize)    ; Xsize1 in b
     345.  00:4839                      
     346.  00:4839  EB                  	ex      de,hl
     347.  00:483A  67                  	ld      h,a			; NB: A is 0
     348.  00:483B  6F                  	ld      l,a
     349.  00:483C  ED 52               	sbc     hl,de       ; hl=x1-x2
     350.  00:483E                      
     351.  00:483E  B4                  1:	or      h
     352.  00:483F  20 02               	jr      nz,9f       ; if delta X>256 the test on X failed (NB CF=0)
     353.  00:4841                      
     354.  00:4841  7D                  	ld      a,l
     355.  00:4842  B8                  	cp      b           ; CF holds the test result on X
     356.  00:4843                      
     357.  00:4843                      ;;;;;;;;;;;;;;;;;;;;;;;;;;;;;;;;;;;;;;;;;;;;;;;;;;;;;;;;;;;;;;;;;;;;;;;;;;;;;
     358.  00:4843                      
     359.  00:4843                      9:              
     360.  00:4843  ED 62               	sbc     hl,hl       ; return hl = -1 if obj1 and obj2 collide
     361.  00:4845                      
     362.  00:4845  C9                  	ret
     363.  00:4846                      
     364.  00:4846                      ;;;;;;;;;;;;;;;;;;;;;;;;;;;;;;;;;;;;;;;;;;;;;;;;;;;;;;;;;;;;;;;;;;;;;;;;;;;;;
     365.  00:4846                      ;;;;;;;;;;;;;;;;;;;;;;;;;;;;;;;;;;;;;;;;;;;;;;;;;;;;;;;;;;;;;;;;;;;;;;;;;;;;;
     366.  00:4846                      ;;;;;;;;;;;;;;;;;;;;;;;;;;;;;;;;;;;;;;;;;;;;;;;;;;;;;;;;;;;;;;;;;;;;;;;;;;;;;
     367.  00:4846                      
     368.  00:4846                      	
     369.  00:4846                      	
     370.  00:4846                      	
      54   00:4846                      		
      55   00:4846                      ;-------------------------------------
      56   00:4846                      ; Entry point
      57   00:4846                      ;-------------------------------------
      58   00:4846                      START:
      59   00:4846  1E 06               		ld e,6
      60   00:4848  CD BD 43            		call	checkkbd
      61   00:484B  3E 01               		ld	a,1
      62   00:484D  CB 0D               		rrc	l				; shift
      63   00:484F  D2 53 48            		jp	nc,_ntsc
      64   00:4852  AF                  		xor	a
      65   00:4853  32 4F D3            _ntsc:	ld	(SEL_NTSC),a	; if set NSTC, if reset PAL
      66   00:4856                      
      67   00:4856  CD 5C 4D            		call 	rand8_init								
      68   00:4859  CD ED 41            		call	set_scr
      69   00:485C                      
      70   00:485C                      		; call 	_set_r800
      71   00:485C                      ;-------------------------------------
      72   00:485C                      ;   Power-up routine for 32K ROM
      73   00:485C                      ;   set pages and sub slot
      74   00:485C                      ;-------------------------------------
      75   00:485C  CD 10 40                    call    search_slot
      76   00:485F  CD 2F 40                    call    search_slotram
      77   00:4862  CD 61 40            		call	setrompage2
      78   00:4865  CD 5B 40            		call	setrampage0
      79   00:4868  3E C9               		ld		a,0xc9
      80   00:486A  32 38 00            		ld		(0x38),a
      81   00:486D                      
      82   00:486D  AF                  		xor	a
      83   00:486E  32 00 50            		ld	(_kBank1),a
      84   00:4871  3C                  		inc	a
      85   00:4872  32 00 70            		ld	(_kBank2),a
      86   00:4875                      		
      87   00:4875  CD 78 41            		call	_cls
      88   00:4878  3E 0F               		ld	a, :sprtdata
      89   00:487A  32 00 B0            		ld	(_kBank4),a
      90   00:487D  CD CA 43            		call 	_hw_sprite_init
      91   00:4880                      
      92   00:4880  3E 02               		ld	a, :_scorebar
      93   00:4882                      		setpage_a
      93   00:4882  32 00 90          >   ld (_kBank3),a
      93   00:4885  3C                >   inc a
      93   00:4886  32 00 B0          >   ld (_kBank4),a
      94   00:4889  0E 00               		ld		c,0
      95   00:488B  11 00 C8            		ld		de,256*(192+8)
      96   00:488E  CD A8 41            		call	_vdpsetvramwr
      97   00:4891  21 00 80            		ld		hl,_scorebar
      98   00:4894  01 98 00            		ld		bc,0x0098
      99   00:4897  3E 18               		ld		a,24
     100   00:4899  ED B3               1:		otir
     101   00:489B  3D                  		dec	a
     102   00:489C  20 FB               		jr	nz,1b
     103   00:489E                      		
     104   00:489E                      	;--- initialise demo song
     105   00:489E  01 CD 02            		ld	bc,	_levelmap-ttreplayRAM
     106   00:48A1  21 00 C0            		ld	hl,	ttreplayRAM
     107   00:48A4  11 01 C0            		ld	de,	ttreplayRAM+1
     108   00:48A7  36 00               		ld	(hl),0
     109   00:48A9  ED B0               		ldir
     110   00:48AB                      	
     111   00:48AB  3E 0E               		ld	a,:demo_song
     112   00:48AD                      		setpage_a
     112   00:48AD  32 00 90          >   ld (_kBank3),a
     112   00:48B0  3C                >   inc a
     112   00:48B1  32 00 B0          >   ld (_kBank4),a
     113   00:48B4                      		
     114   00:48B4  01 B1 16            		ld	bc,	end_demo_song-musbuff
     115   00:48B7  21 00 80            		ld	hl,	demo_song
     116   00:48BA  11 40 00            		ld	de,	musbuff
     117   00:48BD  ED B0               		ldir
     118   00:48BF                      			
     119   00:48BF  CD 00 60            		call	replay_init
     120   00:48C2  21 40 00            		ld	hl,musbuff
     121   00:48C5  CD 5A 60            		call	replay_loadsong
     122   00:48C8                      
     123   00:48C8                      		; call	_clean_buffs
     124   00:48C8                      
     125   00:48C8  1E 00               		ld		e,0
     126   00:48CA  CD DC 41                    call	_setpage
     127   00:48CD                      		
     128   00:48CD                      		; unpack level map (bit field for collisions)
     129   00:48CD                      		; ld	a, :_level_bf
     130   00:48CD                      		; setpage_a
     131   00:48CD                      		
     132   00:48CD                      		; ld	bc,	mapWidth*mapHeight
     133   00:48CD                      		; ld	hl,	_level_bf
     134   00:48CD                      		; ld	de,	_cur_level_bf
     135   00:48CD                      		; ldir
     136   00:48CD                      
     137   00:48CD                      
     138   00:48CD                      		;copy in ram the map 
     139   00:48CD                      		
     140   00:48CD  3E 0F               		ld	a, :_level
     141   00:48CF  32 00 90            		ld	(_kBank3),a
     142   00:48D2                      		
     143   00:48D2  21 00 A0            		ld		hl,_level
     144   00:48D5  11 CD C2            		ld		de,_levelmap
     145   00:48D8  01 00 0B            		ld		bc,mapWidth*mapHeight
     146   00:48DB  ED B0               		ldir
     147   00:48DD                      				
     148   00:48DD                      		; unpack mc frames
     149   00:48DD                      		; ld		a, :_mc_sprites
     150   00:48DD                      		; setpage_a
     151   00:48DD                      		; xor	a
     152   00:48DD                      		; ld		(_vbit16 ),a
     153   00:48DD                      		; ld		de,	_mc_sprites
     154   00:48DD                      		; ld		bc,192*128+256*128
     155   00:48DD                      		; call	_vuitpakker 
     156   00:48DD                      		
     157   00:48DD                      		; di
     158   00:48DD                      		; ld	a,:int_sprites
     159   00:48DD                      		; ld	(_kBank2),a
     160   00:48DD                      		; call	int_sprites
     161   00:48DD                      		; ld	a,1
     162   00:48DD                      		; ld	(_kBank2),a
     163   00:48DD                      		; ei
     164   00:48DD                      		
     165   00:48DD                      		; main init
     166   00:48DD                      		
     167   00:48DD                      		; call	init_hero
     168   00:48DD  FB                  		ei
     169   00:48DE                      		
     170   00:48DE  21 00 00            		ld		hl,0
     171   00:48E1  7C                  		ld		a,h
     172   00:48E2  32 78 D3            		ld		(_ymappos),a
     173   00:48E5  22 79 D3            		ld		(_xmappos),hl
     174   00:48E8                      		
     175   00:48E8  22 74 D3            		ld		(_nframes),hl
     176   00:48EB  32 7F D3            		ld		(_currentpage),a
     177   00:48EE  22 5B D3            		ld		(_mcdx),hl
     178   00:48F1  32 59 D3            		ld		(_mcframe),a
     179   00:48F4                      		
     180   00:48F4  32 83 D3            		ld		(_xoffset),a		;  0 tutto a destra
     181   00:48F7                      									; 15 tutto a sinistra
     182   00:48F7  32 84 D3            		ld		(_yoffset),a		;  0 tutto su
     183   00:48FA                      
     184   00:48FA  21 DD C2            		ld		hl,_levelmap+16
     185   00:48FD  22 7B D3            		ld		(_levelmap_pos),hl
     186   00:4900  21 00 01            		ld		hl,16*16
     187   00:4903  22 8E D3            		ld		(xmap),hl
     188   00:4906                      								
     189   00:4906  CD 90 4D            		call 	npc_init								
     190   00:4909  CD EC 43            		call 	npc_init1
     191   00:490C                      		
     192   00:490C                      		; ld		a,1
     193   00:490C                      		; ld		(_displaypage),a		
     194   00:490C                      		; call	init_page1
     195   00:490C                      
     196   00:490C  AF                  		xor		a
     197   00:490D  32 80 D3            		ld		(_displaypage),a		
     198   00:4910  CD 9E 4B            		call	init_page0
     199   00:4913                      
     200   00:4913  3E 01               		ld		a,1
     201   00:4915  32 81 D3            		ld		(_direction),a
     202   00:4918  3E 06               		ld		a,6
     203   00:491A  32 87 D3            		ld		(cur_level),a
     204   00:491D  3E 80               		ld		a,128
     205   00:491F  32 90 D3            		ld		(yship),a
     206   00:4922                      
     207   00:4922  CD 79 42            		call	_isrinit
     208   00:4925                      		
     209   00:4925                      main_loop:
     210   00:4925  21 00 00            		ld	hl,0
     211   00:4928  22 9E FC            		ld	(_jiffy),hl
     212   00:492B                      
     213   00:492B  21 49 49            		ld	hl,.nomove
     214   00:492E  E5                  		push	hl
     215   00:492F  1E 08               		ld	e,8
     216   00:4931  CD BD 43            		call	checkkbd
     217   00:4934                      
     218   00:4934  CB 7D               		bit	7,l
     219   00:4936  CA 5E 49            		jp	z,test_move_right
     220   00:4939  CB 65               		bit	4,l
     221   00:493B  CA 69 49            		jp	z,test_move_left
     222   00:493E                      		
     223   00:493E  CB 75               		bit	6,l
     224   00:4940  CA 75 49            		jp	z,_dw
     225   00:4943  CB 6D               		bit	5,l
     226   00:4945  CA 80 49            		jp	z,_up
     227   00:4948                      		
     228   00:4948  E1                  		pop	hl				
     229   00:4949                      		
     230   00:4949                      .nomove:
     231   00:4949  CD D3 4D            		call	wave_timer
     232   00:494C  CD DF 52            		call	npc_loop
     233   00:494F  CD 46 58            		call	enemy_bullet_loop
     234   00:4952                      		
     235   00:4952  CD 1B 4A            		call	_print_probe
     236   00:4955                      		
     237   00:4955                      		; ld		hl,(_nframes)
     238   00:4955                      		; inc		hl
     239   00:4955                      		; ld		(_nframes),hl
     240   00:4955                      	
     241   00:4955  3A 9E FC            1:		ld	a,(_jiffy)		; wait for vblank (and not for linit)
     242   00:4958  B7                  		or	a
     243   00:4959  28 FA               		jr	z,1b
     244   00:495B                      	
     245   00:495B  C3 25 49            		jp      main_loop
     246   00:495E                      
     247   00:495E                      ;-------------------------------------
     248   00:495E                      test_move_right:
     249   00:495E  3A 83 D3            		ld		a,(_xoffset)
     250   00:4961  A7                  		and		a
     251   00:4962  C0                  		ret		nz
     252   00:4963                      		
     253   00:4963  3E 01               		ld		a,1
     254   00:4965  32 81 D3            		ld		(_direction),a			; moving right
     255   00:4968  C9                  		ret
     256   00:4969                      test_move_left
     257   00:4969  3A 83 D3            		ld		a,(_xoffset)
     258   00:496C  FE 0F               		cp		15
     259   00:496E  C0                  		ret		nz
     260   00:496F                      		
     261   00:496F  3E FF               		ld		a,-1
     262   00:4971  32 81 D3            		ld		(_direction),a			; moving left
     263   00:4974  C9                  		ret
     264   00:4975                      ;-------------------------------------
     265   00:4975                      
     266   00:4975  3A 84 D3            _dw:	ld		a,(_yoffset)
     267   00:4978  3C                  		inc		a
     268   00:4979  FE 10               		cp		176-YSIZE
     269   00:497B  F0                  		ret 	p
     270   00:497C  32 84 D3            		ld		(_yoffset),a
     271   00:497F  C9                  		ret
     272   00:4980                      
     273   00:4980                      		; ld		a,(_direction)
     274   00:4980                      		; and		a
     275   00:4980                      		; ret		z
     276   00:4980                      		; ld		(_old_direction),a
     277   00:4980                      		; xor		a
     278   00:4980                      		; ld		(_direction),a
     279   00:4980                      		; ret
     280   00:4980                      		
     281   00:4980  3A 84 D3            _up:	ld		a,(_yoffset)
     282   00:4983  3D                  		dec		a
     283   00:4984  F8                  		ret		m
     284   00:4985  32 84 D3            		ld		(_yoffset),a
     285   00:4988  C9                  		ret
     286   00:4989                      
     287   00:4989                      		; ld		a,(_old_direction)
     288   00:4989                      		; and		a
     289   00:4989                      		; ret		z
     290   00:4989                      		; ld		(_direction),a
     291   00:4989                      		; ret
     292   00:4989                      ;-------------------------------------		
     293   00:4989  (00:0000)           border_color	equ 	0;	00100101B
     294   00:4989                      		
     295   00:4989                      inc_xoffset
     296   00:4989  CD B0 4A            		call	blank_line_lft
     297   00:498C  CD EE 4A            		call	plot_line_rgt
     298   00:498F                      
     299   00:498F  3A 83 D3            		ld		a,(_xoffset)
     300   00:4992  A7                  		and		a
     301   00:4993  20 0F               		jr		nz,.case1_15
     302   00:4995                      .case0
     303   00:4995  3A 80 D3            		ld 		a,(_displaypage)
     304   00:4998  EE 01               		xor		1
     305   00:499A  57                  		ld 		d,a
     306   00:499B  1E F0               		ld		e,240
     307   00:499D  2E 00               		ld		l,border_color
     308   00:499F  CD FA 4B            		call	clrboder
     309   00:49A2  18 0B               		jr	.cont
     310   00:49A4                      .case1_15
     311   00:49A4  87 87 87 87         [4]		add		a,a
     312   00:49A8  5F                  		ld		e,a
     313   00:49A9  D6 10               		sub		a,16
     314   00:49AB  57                  		ld		d,a
     315   00:49AC  CD 2B 4C            		call	move_block
     316   00:49AF                      .cont
     317   00:49AF  2A 8E D3            		ld		hl,(xmap)
     318   00:49B2  23                  		inc		hl
     319   00:49B3  22 8E D3            		ld		(xmap),hl
     320   00:49B6  3A 83 D3            		ld		a,(_xoffset)
     321   00:49B9  3C                  		inc	a
     322   00:49BA  E6 0F               		and	15
     323   00:49BC  32 83 D3            		ld		(_xoffset),a
     324   00:49BF  C0                  		ret	nz
     325   00:49C0  3A 80 D3            		ld		a,(_displaypage)
     326   00:49C3  EE 01               		xor		1
     327   00:49C5  32 80 D3            		ld		(_displaypage),a
     328   00:49C8  2A 7B D3            		ld		hl,(_levelmap_pos)
     329   00:49CB  23                  		inc		hl
     330   00:49CC  22 7B D3            		ld		(_levelmap_pos),hl
     331   00:49CF  C9                  		ret
     332   00:49D0                      dec_xoffset
     333   00:49D0  CD AB 4A            		call	blank_line_rgt
     334   00:49D3  CD E6 4A            		call	plot_line_lft
     335   00:49D6  3A 83 D3            		ld		a,(_xoffset)
     336   00:49D9  FE 0F               		cp	15
     337   00:49DB  20 0F               		jr		nz,.case0_14
     338   00:49DD                      .case15
     339   00:49DD  3A 80 D3            		ld 		a,(_displaypage)
     340   00:49E0  EE 01               		xor		1
     341   00:49E2  57                  		ld 		d,a
     342   00:49E3  1E 00               		ld		e,0
     343   00:49E5  2E 00               		ld		l,border_color
     344   00:49E7  CD FA 4B            		call	clrboder
     345   00:49EA  18 0B               		jr	.cont
     346   00:49EC                      .case0_14
     347   00:49EC  87 87 87 87         [4]		add		a,a
     348   00:49F0  5F                  		ld		e,a
     349   00:49F1  C6 10               		add		a,16
     350   00:49F3  57                  		ld		d,a
     351   00:49F4  CD 2B 4C            		call	move_block
     352   00:49F7                      .cont	
     353   00:49F7  2A 8E D3            		ld		hl,(xmap)
     354   00:49FA  2B                  		dec		hl
     355   00:49FB  22 8E D3            		ld		(xmap),hl
     356   00:49FE  3A 83 D3            		ld		a,(_xoffset)
     357   00:4A01  3D                  		dec	a
     358   00:4A02  E6 0F               		and	15
     359   00:4A04  32 83 D3            		ld		(_xoffset),a
     360   00:4A07  FE 0F               		cp	15
     361   00:4A09  C0                  		ret	nz
     362   00:4A0A  3A 80 D3            		ld		a,(_displaypage)
     363   00:4A0D  EE 01               		xor		1
     364   00:4A0F  32 80 D3            		ld		(_displaypage),a
     365   00:4A12  2A 7B D3            		ld		hl,(_levelmap_pos)
     366   00:4A15  2B                  		dec		hl
     367   00:4A16  22 7B D3            		ld		(_levelmap_pos),hl
     368   00:4A19  C9                  		ret
     369   00:4A1A                      ;-------------------------------------
     370   00:4A1A                      AFXPLAY:
     371   00:4A1A  C9                  		ret
     372   00:4A1B                      ;	include vuitpakker.asm
     373   00:4A1B                      	include print.asm
       1.  00:4A1B                      
       2.  00:4A1B                      	
       3.  00:4A1B                      ;;;;;;;;;;;;;;;;;;;;;;;;;;;;;;;;;;;;;;;;;
       4.  00:4A1B                      
       5.  00:4A1B                      _print_probe
       6.  00:4A1B  3A 60 D3            	ld	a,(_mcprobeb)
       7.  00:4A1E  5F                  	ld	e,a
       8.  00:4A1F  16 00               	ld	d,0
       9.  00:4A21  21 C0 07            	ld	hl,32*(64-2)
      10.  00:4A24  19                  	add	hl,de
      11.  00:4A25  EB                  	ex	de,hl
      12.  00:4A26  21 C0 05            	ld	hl,2*(23*32+0)
      13.  00:4A29                      	; call 	plot_foreground
      14.  00:4A29                      	
      15.  00:4A29  ED 5B 61 D3         	ld	de,(_ticxframe)
      16.  00:4A2D  16 00               	ld	d,0
      17.  00:4A2F  01 62 D3            	ld	bc,_buffer
      18.  00:4A32  CD 84 4A            	call	int2ascii
      19.  00:4A35                      	
      20.  00:4A35  3A 64 D3            	ld	a,(_buffer+2)
      21.  00:4A38  5F                  	ld	e,a
      22.  00:4A39  16 00               	ld	d,0
      23.  00:4A3B  21 90 07            	ld	hl,32*(64-2)-'0'
      24.  00:4A3E  19                  	add	hl,de
      25.  00:4A3F  EB                  	ex	de,hl
      26.  00:4A40  21 80 05            	ld	hl,2*(22*32)
      27.  00:4A43                      	; call 	plot_foreground
      28.  00:4A43                      
      29.  00:4A43  3A 65 D3            	ld	a,(_buffer+3)
      30.  00:4A46  5F                  	ld	e,a
      31.  00:4A47  16 00               	ld	d,0
      32.  00:4A49  21 90 07            	ld	hl,32*(64-2)-'0'
      33.  00:4A4C  19                  	add	hl,de
      34.  00:4A4D  EB                  	ex	de,hl
      35.  00:4A4E  21 82 05            	ld	hl,2*(22*32+1)
      36.  00:4A51                      	; call 	plot_foreground
      37.  00:4A51                      
      38.  00:4A51  3A 66 D3            	ld	a,(_buffer+4)
      39.  00:4A54  5F                  	ld	e,a
      40.  00:4A55  16 00               	ld	d,0
      41.  00:4A57  21 90 07            	ld	hl,32*(64-2)-'0'
      42.  00:4A5A  19                  	add	hl,de
      43.  00:4A5B  EB                  	ex	de,hl
      44.  00:4A5C  21 84 05            	ld	hl,2*(22*32+2)
      45.  00:4A5F                      	; call 	plot_foreground
      46.  00:4A5F  C9                  	ret
      47.  00:4A60                      	
      48.  00:4A60                      	
      49.  00:4A60                      _print_fps:
      50.  00:4A60  3A 65 D3            	ld	a,(_buffer+3)
      51.  00:4A63  5F                  	ld	e,a
      52.  00:4A64  16 00               	ld	d,0
      53.  00:4A66  21 90 07            	ld	hl,32*(64-2)-'0'
      54.  00:4A69  19                  	add	hl,de
      55.  00:4A6A  EB                  	ex	de,hl
      56.  00:4A6B                      	
      57.  00:4A6B  21 FC 05            	ld	hl,2*(23*32+30)
      58.  00:4A6E                      	; call 	plot_foreground
      59.  00:4A6E                      
      60.  00:4A6E  3A 66 D3            	ld	a,(_buffer+4)
      61.  00:4A71  5F                  	ld	e,a
      62.  00:4A72  16 00               	ld	d,0
      63.  00:4A74  21 90 07            	ld	hl,32*(64-2)-'0'
      64.  00:4A77  19                  	add	hl,de
      65.  00:4A78  EB                  	ex	de,hl
      66.  00:4A79                      	
      67.  00:4A79  21 FE 05            	ld	hl,2*(23*32+31)
      68.  00:4A7C                      	; call 	plot_foreground
      69.  00:4A7C  C9                  	ret
      70.  00:4A7D                      
      71.  00:4A7D                      ;-------------------------------------
      72.  00:4A7D                      _compute_fps:
      73.  00:4A7D  ED 5B 72 D3         	ld	de,(_fps)
      74.  00:4A81  01 62 D3            	ld	bc,_buffer
      75.  00:4A84                      
      76.  00:4A84                      int2ascii:
      77.  00:4A84                      	
      78.  00:4A84                      ; in de input 
      79.  00:4A84                      ; in bc output
      80.  00:4A84                      
      81.  00:4A84  EB                  	ex  de,hl
      82.  00:4A85  59                  	ld  e,c
      83.  00:4A86  50                  	ld  d,b
      84.  00:4A87                      
      85.  00:4A87                      Num2asc:
      86.  00:4A87  01 F0 D8            	ld  bc,-10000
      87.  00:4A8A  CD A0 4A            	call    Num1
      88.  00:4A8D  01 18 FC            	ld  bc,-1000
      89.  00:4A90  CD A0 4A            	call    Num1
      90.  00:4A93  01 9C FF            	ld  bc,-100
      91.  00:4A96  CD A0 4A            	call    Num1
      92.  00:4A99  0E F6               	ld  c,-10
      93.  00:4A9B  CD A0 4A            	call    Num1
      94.  00:4A9E  0E FF               	ld  c,-1
      95.  00:4AA0                      
      96.  00:4AA0                      Num1:   
      97.  00:4AA0  3E 2F               	ld  a,'0'-1  ; '0' in the tileset
      98.  00:4AA2                      
      99.  00:4AA2                      Num2:   
     100.  00:4AA2  3C                  	inc a
     101.  00:4AA3  09                  	add hl,bc
     102.  00:4AA4  38 FC               	jr  c,Num2
     103.  00:4AA6  ED 42               	sbc hl,bc
     104.  00:4AA8                      
     105.  00:4AA8  12                  	ld  (de),a
     106.  00:4AA9  13                  	inc de
     107.  00:4AAA  C9                  	ret
     374   00:4AAB                      	include plot_line.asm
       1.  00:4AAB                      ;;;;;;;;;;;;;;;;;;;;;;;;;;;;;;;;;;;;;;;;;;;
       2.  00:4AAB                      ; no input
       3.  00:4AAB                      ;;;;;;;;;;;;;;;;;;;;;;;;;;;;;;;;;;;;;;;;;;;
       4.  00:4AAB                      blank_line_rgt:
       5.  00:4AAB  1E F0               	ld	e,240
       6.  00:4AAD  C3 B2 4A            	jp	blank_line
       7.  00:4AB0                      blank_line_lft:
       8.  00:4AB0  1E 00               	ld	e,0
       9.  00:4AB2                      blank_line:
      10.  00:4AB2  F3                  	di
      11.  00:4AB3  3E 24               	ld 		a, 36
      12.  00:4AB5  D3 99               	out 	(0x99),a
      13.  00:4AB7  3E 91               	ld 		a, 17+128
      14.  00:4AB9  D3 99               	out 	(0x99),a
      15.  00:4ABB  FB                  	ei
      16.  00:4ABC                      	
      17.  00:4ABC  CD 38 42            	call _waitvdp
      18.  00:4ABF                      	
      19.  00:4ABF  3A 83 D3            	ld		a,(_xoffset)
      20.  00:4AC2  83                  	add		a,e
      21.  00:4AC3  D3 9B               	out 	(0x9B), a 			; dx
      22.  00:4AC5  AF                  	xor a
      23.  00:4AC6  D3 9B               	out 	(0x9B), a			; dx (high)
      24.  00:4AC8                      	
      25.  00:4AC8  D3 9B               	out 	(0x9B), a			; dy
      26.  00:4ACA  3A 80 D3            	ld 		a,(_displaypage)	; destination page
      27.  00:4ACD  D3 9B               	out 	(0x9B), a			; dy (high-> page 0 or 1)
      28.  00:4ACF                      	
      29.  00:4ACF  3E 01               	ld		a,1
      30.  00:4AD1  D3 9B               	out 	(0x9B), a			; x block size
      31.  00:4AD3  AF                  	xor a
      32.  00:4AD4  D3 9B               	out 	(0x9B), a
      33.  00:4AD6                      
      34.  00:4AD6  3E B0               	ld		a,11*16
      35.  00:4AD8  D3 9B               	out 	(0x9B), a			; y block size
      36.  00:4ADA  AF                  	xor a
      37.  00:4ADB  D3 9B               	out 	(0x9B), a
      38.  00:4ADD                      
      39.  00:4ADD  D3 9B               	out 	(0x9B), a			; color
      40.  00:4ADF  D3 9B               	out 	(0x9B), a
      41.  00:4AE1                      
      42.  00:4AE1  3E C0               	ld		a,11000000B
      43.  00:4AE3  D3 9B               	out 	(0x9B), a		; command LMMM
      44.  00:4AE5  C9                  	ret
      45.  00:4AE6                      
      46.  00:4AE6                      ;;;;;;;;;;;;;;;;;;;;;;;;;;;;;;;;;;;;;;;;;;;
      47.  00:4AE6                      ; input
      48.  00:4AE6                      ; e = x configured in 0-255
      49.  00:4AE6                      ;;;;;;;;;;;;;;;;;;;;;;;;;;;;;;;;;;;;;;;;;;;
      50.  00:4AE6                      plot_line_lft:
      51.  00:4AE6  2A 7B D3            	ld	hl,(_levelmap_pos)
      52.  00:4AE9  1E 00               	ld	e,0
      53.  00:4AEB  C3 F7 4A            	jp plot_line
      54.  00:4AEE                      plot_line_rgt:
      55.  00:4AEE  2A 7B D3            	ld	hl,(_levelmap_pos)
      56.  00:4AF1  11 0F 00            	ld	de,15
      57.  00:4AF4  19                  	add	hl,de
      58.  00:4AF5  1E F0               	ld	e,240
      59.  00:4AF7                      plot_line:		
      60.  00:4AF7  16 00               	ld	d,0
      61.  00:4AF9  3A 83 D3            	ld	a,(_xoffset)
      62.  00:4AFC  83                  	add a,e
      63.  00:4AFD  5F                  	ld	e,a		; de = y*256+x
      64.  00:4AFE                      	
      65.  00:4AFE                      111:
      66.  00:4AFE  7E                  	ld	a,(hl)
      67.  00:4AFF  D5                  	push	de
      68.  00:4B00  E5                  	push	hl
      69.  00:4B01                      	
      70.  00:4B01  4F                  	ld	c,a
      71.  00:4B02  0F 0F 0F 0F 0F      [5]	rrca
      72.  00:4B07  E6 07               	and	00000111B
      73.  00:4B09  C6 04               	add	a,:_tiles0
      74.  00:4B0B  32 00 B0            	ld	(_kBank4),a
      75.  00:4B0E  79                  	ld	a,c
      76.  00:4B0F  E6 1F               	and	00011111B
      77.  00:4B11  C6 A0               	add	a,high _tiles0
      78.  00:4B13  67                  	ld	h,a
      79.  00:4B14  3A 83 D3            	ld	a,(_xoffset)
      80.  00:4B17  87 87 87 87         [4]	add	a,a
      81.  00:4B1B  6F                  	ld	l,a
      82.  00:4B1C                      	
      83.  00:4B1C  3A 80 D3            	ld	a,(_displaypage)
      84.  00:4B1F  CB 02               	rlc d			; set VDP for writing at address ADE (17-bit) ;
      85.  00:4B21  17                  	rla
      86.  00:4B22  CB 02               	rlc d
      87.  00:4B24  17                  	rla
      88.  00:4B25  CB 3A               	srl d 			; first shift
      89.  00:4B27  F3                  	di
      90.  00:4B28  D3 99               	out (0x99),a 	; set bits 14-16
      91.  00:4B2A  3E 8E               	ld a,14+128
      92.  00:4B2C  D3 99               	out (0x99),a
      93.  00:4B2E  FB                  	ei
      94.  00:4B2F  CB 3A               	srl d 			; second shift    
      95.  00:4B31  CB F2               	set 6,d			; write access
      96.  00:4B33                      	
      97.  00:4B33  01 98 10            	ld	bc,16*256+0x98
      98.  00:4B36                      
      99.  00:4B36  F3                  1:	di
     100.  00:4B37  7B                  	ld a,e 		;set bits 0-7
     101.  00:4B38  D3 99               	out (0x99),a
     102.  00:4B3A  7A                  	ld a,d 		;set bits 8-13
     103.  00:4B3B  D3 99               	out (0x99),a
     104.  00:4B3D  FB                  	ei
     105.  00:4B3E  14                  	inc	d
     106.  00:4B3F  ED A3               	outi
     107.  00:4B41  20 F3               	jr	nz,1b
     108.  00:4B43                      	
     109.  00:4B43  E1                  	pop	hl
     110.  00:4B44  11 00 01            	ld	de,mapWidth
     111.  00:4B47  19                  	add	hl,de
     112.  00:4B48  D1                  	pop	de
     113.  00:4B49  7A                  	ld	a,d
     114.  00:4B4A  C6 10               	add	a,16
     115.  00:4B4C  57                  	ld	d,a
     116.  00:4B4D  FE B0               	cp	11*16
     117.  00:4B4F  38 AD               	jr	c,111b
     118.  00:4B51  C9                  	ret
     119.  00:4B52                      	
     120.  00:4B52                      
     121.  00:4B52                      
     122.  00:4B52                      ;;;;;;;;;;;;;;;;;;;;;;;;;;;;;;;;;;;;;;;;;;;
     123.  00:4B52                      ; input
     124.  00:4B52                      ; de = y,x configured in window map 256x256
     125.  00:4B52                      ; a  tile to be plot
     126.  00:4B52                      ;;;;;;;;;;;;;;;;;;;;;;;;;;;;;;;;;;;;;;;;;;;
     127.  00:4B52                      plot_tile:
     128.  00:4B52  D5                  		push	de
     129.  00:4B53  D9                  		exx
     130.  00:4B54  D1                  		pop		de
     131.  00:4B55                      		
     132.  00:4B55  67                  		ld	h,a
     133.  00:4B56  0F 0F 0F 0F 0F      [5]		rrca
     134.  00:4B5B  E6 07               		and	00000111B
     135.  00:4B5D  C6 04               		add	a,:_tiles0
     136.  00:4B5F  32 00 B0            		ld	(_kBank4),a
     137.  00:4B62  7C                  		ld	a,h
     138.  00:4B63  E6 1F               		and	00011111B
     139.  00:4B65  C6 A0               		add	a,high _tiles0
     140.  00:4B67  67                  		ld	h,a
     141.  00:4B68  2E 00               		ld	l,0
     142.  00:4B6A                      
     143.  00:4B6A  3A 80 D3            		ld	a,(_displaypage)
     144.  00:4B6D                      					; de = y*256+x
     145.  00:4B6D  CB 02               		rlc d		; set VDP for writing at address ADE (17-bit) ;
     146.  00:4B6F  17                  		rla
     147.  00:4B70  CB 02               		rlc d
     148.  00:4B72  17                  		rla
     149.  00:4B73  CB 3A               		srl d 		 ; first shift
     150.  00:4B75  F3                  		di
     151.  00:4B76  D3 99               		out (0x99),a ; set bits 14-16
     152.  00:4B78  3E 8E               		ld a,14+128
     153.  00:4B7A  D3 99               		out (0x99),a
     154.  00:4B7C  FB                  		ei
     155.  00:4B7D  CB 3A               		srl d 		 ;  second shift.     
     156.  00:4B7F  CB F2               		set 6,d		 ;  write access
     157.  00:4B81                      
     158.  00:4B81  01 98 10            		ld	bc,16*256+0x98
     159.  00:4B84                      	
     160.  00:4B84  C5                  2:		push	bc
     161.  00:4B85  06 10               		ld	b,16
     162.  00:4B87                      
     163.  00:4B87  F3                  1:		di
     164.  00:4B88  7B                  		ld a,e 		;set bits 0-7
     165.  00:4B89  D3 99               		out (0x99),a
     166.  00:4B8B  7A                  		ld a,d 		;set bits 8-13
     167.  00:4B8C  D3 99               		out (0x99),a
     168.  00:4B8E  FB                  		ei
     169.  00:4B8F  14                  		inc	d
     170.  00:4B90  ED A3               		outi
     171.  00:4B92  20 F3               		jr nz,1b
     172.  00:4B94  3E F0               		ld	a,-16
     173.  00:4B96  82                  		add	a,d
     174.  00:4B97  57                  		ld	d,a
     175.  00:4B98  1C                  		inc	e
     176.  00:4B99  C1                  		pop	bc
     177.  00:4B9A  10 E8               		djnz 2b
     178.  00:4B9C  D9                  		exx
     179.  00:4B9D  C9                  		ret
     180.  00:4B9E                      
     181.  00:4B9E                      init_page0:
     182.  00:4B9E  3A 80 D3            		ld		a,(_displaypage)
     183.  00:4BA1  57                  		ld		d,a
     184.  00:4BA2  1E F0               		ld		e,240
     185.  00:4BA4  2E 00               		ld		l,border_color
     186.  00:4BA6  CD FA 4B            		call	clrboder
     187.  00:4BA9  2A 7B D3            		ld		hl,(_levelmap_pos)
     188.  00:4BAC  11 00 00            		ld		de,0x0000			; e=x=0, d=y=0
     189.  00:4BAF                      		
     190.  00:4BAF  06 0B               		ld		b,11
     191.  00:4BB1  C5                  2:		push	bc
     192.  00:4BB2  06 0F               		ld		b,15
     193.  00:4BB4  7E                  1:		ld		a,(hl)
     194.  00:4BB5  CD 52 4B            		call 	plot_tile
     195.  00:4BB8  23                  		inc		hl
     196.  00:4BB9  3E 10               		ld	a,16
     197.  00:4BBB  83                  		add	a,e
     198.  00:4BBC  5F                  		ld	e,a
     199.  00:4BBD  10 F5               		djnz	1b
     200.  00:4BBF                      				
     201.  00:4BBF  58                  		ld	e,b
     202.  00:4BC0  3E 10               		ld	a,16
     203.  00:4BC2  82                  		add	a,d
     204.  00:4BC3  57                  		ld	d,a
     205.  00:4BC4  01 F1 00            		ld	bc,mapWidth-15
     206.  00:4BC7  09                  		add	hl,bc
     207.  00:4BC8  C1                  		pop	bc
     208.  00:4BC9  10 E6               		djnz	2b
     209.  00:4BCB  C9                  		ret
     210.  00:4BCC                      		
     211.  00:4BCC                      init_page1:
     212.  00:4BCC  3A 80 D3            		ld		a,(_displaypage)
     213.  00:4BCF  57                  		ld		d,a
     214.  00:4BD0  1E 00               		ld		e,0
     215.  00:4BD2  2E 00               		ld		l,border_color
     216.  00:4BD4  CD FA 4B            		call	clrboder
     217.  00:4BD7  2A 7B D3            		ld		hl,(_levelmap_pos)
     218.  00:4BDA  11 10 00            		ld		de,0x0010			; e=x=16, d=y=0
     219.  00:4BDD                      		
     220.  00:4BDD  06 0B               		ld		b,11
     221.  00:4BDF  C5                  2:		push	bc
     222.  00:4BE0  06 0F               		ld		b,15
     223.  00:4BE2  7E                  1:		ld		a,(hl)
     224.  00:4BE3  CD 52 4B            		call 	plot_tile
     225.  00:4BE6  23                  		inc		hl
     226.  00:4BE7  3E 10               		ld	a,16
     227.  00:4BE9  83                  		add	a,e
     228.  00:4BEA  5F                  		ld	e,a
     229.  00:4BEB  10 F5               		djnz	1b
     230.  00:4BED                      		
     231.  00:4BED  1E 10               		ld	e,0x10
     232.  00:4BEF  7B                  		ld	a,e
     233.  00:4BF0  82                  		add	a,d
     234.  00:4BF1  57                  		ld	d,a
     235.  00:4BF2  01 F1 00            		ld	bc,mapWidth-15
     236.  00:4BF5  09                  		add	hl,bc
     237.  00:4BF6  C1                  		pop	bc
     238.  00:4BF7  10 E6               		djnz	2b
     239.  00:4BF9  C9                  		ret
     240.  00:4BFA                      ;;;;;;;;;;;;;;;;;;;;;;;;;;;;;;;;;;;;;;;;;;;
     241.  00:4BFA                      ; input
     242.  00:4BFA                      ; d = page
     243.  00:4BFA                      ; e = dx
     244.  00:4BFA                      ; l = background color
     245.  00:4BFA                      ;;;;;;;;;;;;;;;;;;;;;;;;;;;;;;;;;;;;;;;;;;;
     246.  00:4BFA                      		
     247.  00:4BFA                      clrboder:
     248.  00:4BFA  F3                  	di
     249.  00:4BFB  3E 24               	ld 		a, 36
     250.  00:4BFD  D3 99               	out 	(0x99),a
     251.  00:4BFF  3E 91               	ld 		a, 17+128
     252.  00:4C01  D3 99               	out 	(0x99),a
     253.  00:4C03  FB                  	ei
     254.  00:4C04                      	
     255.  00:4C04  CD 38 42            	call _waitvdp
     256.  00:4C07                      	
     257.  00:4C07  7B                  	ld		a,e
     258.  00:4C08  D3 9B               	out 	(0x9B), a 			; dx
     259.  00:4C0A  AF                  	xor		a
     260.  00:4C0B  D3 9B               	out 	(0x9B), a			; dx (high)
     261.  00:4C0D                      	
     262.  00:4C0D  D3 9B               	out 	(0x9B), a			; dy
     263.  00:4C0F  7A                  	ld 		a,d					; destination page
     264.  00:4C10  D3 9B               	out 	(0x9B), a			; dy (high-> page 0 or 1)
     265.  00:4C12                      	
     266.  00:4C12  3E 10               	ld a,16
     267.  00:4C14  D3 9B               	out 	(0x9B), a			; x block size
     268.  00:4C16  AF                  	xor	a
     269.  00:4C17  D3 9B               	out 	(0x9B), a
     270.  00:4C19                      
     271.  00:4C19  3E B0               	ld		a,11*16
     272.  00:4C1B  D3 9B               	out 	(0x9B), a			; y block size
     273.  00:4C1D  AF                  	xor a
     274.  00:4C1E  D3 9B               	out 	(0x9B), a
     275.  00:4C20                      
     276.  00:4C20  7D                  	ld		a,l
     277.  00:4C21  D3 9B               	out 	(0x9B), a			; color
     278.  00:4C23  AF                  	xor a
     279.  00:4C24  D3 9B               	out 	(0x9B), a
     280.  00:4C26                      
     281.  00:4C26  3E C0               	ld		a,11000000B
     282.  00:4C28  D3 9B               	out 	(0x9B), a		; command LMMM
     283.  00:4C2A  C9                  	ret
     284.  00:4C2B                      
     285.  00:4C2B                      move_block:
     286.  00:4C2B                      ;;;;;;;;;;;;;;;;;;;;;;;;;;;;;;;;;;;;;;;;;;;
     287.  00:4C2B                      ; input
     288.  00:4C2B                      ; e = sx	from not _displaypage
     289.  00:4C2B                      ; d = dx	to _displaypage
     290.  00:4C2B                      ;;;;;;;;;;;;;;;;;;;;;;;;;;;;;;;;;;;;;;;;;;;
     291.  00:4C2B                      
     292.  00:4C2B  F3                  	di
     293.  00:4C2C  3E 20               	ld 		a, 32
     294.  00:4C2E  D3 99               	out 	(0x99),a
     295.  00:4C30  3E 91               	ld 		a, 17+128
     296.  00:4C32  D3 99               	out 	(0x99),a
     297.  00:4C34  FB                  	ei
     298.  00:4C35                      
     299.  00:4C35  0E 9B               	ld 		c, 0x9B
     300.  00:4C37                      	
     301.  00:4C37  CD 38 42            	call _waitvdp;
     302.  00:4C3A                      	
     303.  00:4C3A  ED 59               	out		(c), e 		; sx
     304.  00:4C3C  AF                  	xor a
     305.  00:4C3D  D3 9B               	out		(0x9B), a 	; sx (high)
     306.  00:4C3F                      	
     307.  00:4C3F  D3 9B               	out		(0x9B), a 	; sy
     308.  00:4C41  3A 80 D3            	ld 		a,(_displaypage)	; source page
     309.  00:4C44  D3 9B               	out 	(0x9B), a 	; sy 	(high-> page 0 or 1)
     310.  00:4C46                      
     311.  00:4C46  ED 51               	out 	(c), d 		; dx
     312.  00:4C48  AF                  	xor a
     313.  00:4C49  D3 9B               	out 	(0x9B), a	; dx (high)
     314.  00:4C4B                      	
     315.  00:4C4B  D3 9B               	out 	(0x9B), a 		; dy
     316.  00:4C4D  3A 80 D3            	ld 		a,(_displaypage)	; destination page
     317.  00:4C50  EE 01               	xor	1				
     318.  00:4C52  D3 9B               	out 	(0x9B), a	; dy 	(high-> page 0 or 1)
     319.  00:4C54                      
     320.  00:4C54  3E 10               	ld 		a,16 		; block size
     321.  00:4C56  D3 9B               	out 	(0x9B), a
     322.  00:4C58  AF                  	xor a
     323.  00:4C59  D3 9B               	out 	(0x9B), a	
     324.  00:4C5B  3E B0               	ld		a,11*16
     325.  00:4C5D  D3 9B               	out 	(0x9B), a
     326.  00:4C5F  AF                  	xor		a
     327.  00:4C60  D3 9B               	out 	(0x9B), a
     328.  00:4C62  D3 9B               	out 	(0x9B), a
     329.  00:4C64  D3 9B               	out 	(0x9B), a
     330.  00:4C66                      
     331.  00:4C66  3E D0               	ld		a,11010000B
     332.  00:4C68  D3 9B               	out 	(0x9B), a		; command HMMM
     333.  00:4C6A  C9                  	ret
     334.  00:4C6B                      	
     375   00:4C6B                      	include enemies.asm
       1.  00:4C6B                      	
       2.  00:4C6B  (00:0000)           ms_fly__right				equ	0
       3.  00:4C6B  (00:0001)           ms_spin_face_right			equ	1
       4.  00:4C6B  (00:0002)           ms_side_dwn_face_right		equ	2
       5.  00:4C6B  (00:0003)           ms_side_up__face_right		equ	3
       6.  00:4C6B                      
       7.  00:4C6B  (00:0004)           ms_fly__left				equ	4
       8.  00:4C6B  (00:0005)           ms_spin_face_left			equ	5
       9.  00:4C6B  (00:0006)           ms_side_dwn_face_left		equ	6
      10.  00:4C6B  (00:0007)           ms_side_up__face_left		equ	7
      11.  00:4C6B                      
      12.  00:4C6B  (00:0008)           ms_loop_right2left			equ	8
      13.  00:4C6B  (00:0009)           ms_loop_left2right			equ	9
      14.  00:4C6B                      
      15.  00:4C6B  (00:000A)           ms_explode					equ	10
      16.  00:4C6B  (00:000B)           ms_landing					equ	11
      17.  00:4C6B  (00:000C)           ms_reset					equ	12
      18.  00:4C6B                      
      19.  00:4C6B                      
      20.  00:4C6B  (00:0010)           maxspeed:					equ 16		; the actual speed is divided by 4
      21.  00:4C6B  (00:000A)           max_enem:					equ 10		; max 12
      22.  00:4C6B  (00:0003)           max_enem_bullets:			equ 3
      23.  00:4C6B  (00:0003)           max_bullets:				equ 3		; max number of enemies*2 + ms_bullets + enem_bullets + 3 for ms	<= 32 sprites
      24.  00:4C6B  (00:00B4)           assault_wave_timer_preset:	equ	3*60	; a wave each 3 seconds
      25.  00:4C6B  (00:0002)           enemy_bullet_speed:			equ	2	
      26.  00:4C6B  (00:0078)           xship_rel:					equ (128-8)
      27.  00:4C6B                      
      28.  00:4C6B                      ;;;;;;;;;;;;;;;;;;;;;;;;;;;;;;;;;;;;;;;;;
      29.  00:4C6B                      ms_ani:
      30.  00:4C6B                      	include ms_demo_ani.asm
       1:  00:4C6B                      ms_demo_ani:
       2:  00:4C6B  22                      defb 34 
       3:  00:4C6C  0A                      defb 10 
       4:  00:4C6D  08                      defb 8 
       5:  00:4C6E  07                      defb 7 
       6:  00:4C6F  06                      defb 6 
       7:  00:4C70  01                      defb 1 
       8:  00:4C71  05                      defb 5 
       9:  00:4C72  0B                      defb 11 
      10:  00:4C73  27                      defb 39 
      11:  00:4C74  1E                      defb 30 
      12:  00:4C75  17                      defb 23 
      13:  00:4C76  0E                      defb 14 
      14:  00:4C77  10                      defb 16 
      15:  00:4C78  0F                      defb 15 
      16:  00:4C79  1B                      defb 27 
      17:  00:4C7A  20                      defb 32 
      18:  00:4C7B  26                      defb 38 
      19:  00:4C7C  25                      defb 37 
      20:  00:4C7D  09                      defb 9 
      21:  00:4C7E  03                      defb 3 
      22:  00:4C7F  00                      defb 0 
      23:  00:4C80  02                      defb 2 
      24:  00:4C81  04                      defb 4 
      25:  00:4C82  23                      defb 35 
      26:  00:4C83  24                      defb 36 
      27:  00:4C84  1F                      defb 31 
      28:  00:4C85  19                      defb 25 
      29:  00:4C86  14                      defb 20 
      30:  00:4C87  11                      defb 17 
      31:  00:4C88  15                      defb 21 
      32:  00:4C89  1A                      defb 26 
      33:  00:4C8A  1D                      defb 29 
      34:  00:4C8B  22                      defb 34 
      35:  00:4C8C  1D                      defb 29 
      36:  00:4C8D  1A                      defb 26 
      37:  00:4C8E  15                      defb 21 
      38:  00:4C8F  11                      defb 17 
      39:  00:4C90  15                      defb 21 
      40:  00:4C91  1A                      defb 26 
      41:  00:4C92  1D                      defb 29 
      42:  00:4C93  22                      defb 34 
      43:  00:4C94  1C                      defb 28 
      44:  00:4C95  16                      defb 22 
      45:  00:4C96  13                      defb 19 
      46:  00:4C97  0C                      defb 12 
      47:  00:4C98  13                      defb 19 
      48:  00:4C99  16                      defb 22 
      49:  00:4C9A  1C                      defb 28 
      50:  00:4C9B  26                      defb 38 
      51:  00:4C9C  21                      defb 33 
      52:  00:4C9D  18                      defb 24 
      53:  00:4C9E  12                      defb 18 
      54:  00:4C9F  0D                      defb 13 
      55:  00:4CA0  12                      defb 18 
      56:  00:4CA1  18                      defb 24 
      57:  00:4CA2  21                      defb 33 
      58:  00:4CA3  26                      defb 38 
      59:  00:4CA4  20                      defb 32 
      60:  00:4CA5  1B                      defb 27 
      61:  00:4CA6  0F                      defb 15 
      62:  00:4CA7  10                      defb 16 
      63:  00:4CA8  0F                      defb 15 
      64:  00:4CA9  1B                      defb 27 
      65:  00:4CAA  20                      defb 32 
      66:  00:4CAB  28                      defb 40 
      67:  00:4CAC  29                      defb 41 
      68:  00:4CAD  2A                      defb 42 
      69:  00:4CAE  2B                      defb 43 
      70:  00:4CAF  2C                      defb 44 
      71:  00:4CB0  2D                      defb 45 
      72:  00:4CB1  2E                      defb 46 
      73:  00:4CB2  2F                      defb 47 
      74:  00:4CB3  30                      defb 48 
      75:  00:4CB4  31                      defb 49 
      76:  00:4CB5  32                      defb 50 
      77:  00:4CB6  33                      defb 51 
      78:  00:4CB7  34                      defb 52 
      79:  00:4CB8  35                      defb 53 
      80:  00:4CB9  36                      defb 54 
      81:  00:4CBA  37                      defb 55 
      31.  00:4CBB                      ms_col_win:
      32.  00:4CBB                      	include ms_demo_frm_coll_wind.asm
       1:  00:4CBB                      ms_demo_coll_wind:
       2:  00:4CBB  07 0D 01 0F             defb 7,13,1,15 
       3:  00:4CBF  07 0B 01 0F             defb 7,11,1,15 
       4:  00:4CC3  05 09 01 0F             defb 5,9,1,15 
       5:  00:4CC7  04 0D 01 0F             defb 4,13,1,15 
       6:  00:4CCB  04 0C 01 0F             defb 4,12,1,15 
       7:  00:4CCF  04 0C 01 0F             defb 4,12,1,15 
       8:  00:4CD3  03 09 01 0F             defb 3,9,1,15 
       9:  00:4CD7  03 0C 01 0F             defb 3,12,1,15 
      10:  00:4CDB  03 0D 01 0F             defb 3,13,1,15 
      11:  00:4CDF  03 0D 01 0F             defb 3,13,1,15 
      12:  00:4CE3  03 0F 01 0F             defb 3,15,1,15 
      13:  00:4CE7  03 0F 01 0F             defb 3,15,1,15 
      14:  00:4CEB  01 0F 07 0D             defb 1,15,7,13 
      15:  00:4CEF  01 0F 04 0A             defb 1,15,4,10 
      16:  00:4CF3  01 0F 07 0C             defb 1,15,7,12 
      17:  00:4CF7  01 0F 06 0C             defb 1,15,6,12 
      18:  00:4CFB  01 0F 07 0D             defb 1,15,7,13 
      19:  00:4CFF  01 0F 04 0A             defb 1,15,4,10 
      20:  00:4D03  01 0F 05 0B             defb 1,15,5,11 
      21:  00:4D07  01 0F 06 0C             defb 1,15,6,12 
      22:  00:4D0B  01 0F 05 0A             defb 1,15,5,10 
      23:  00:4D0F  01 0F 05 0B             defb 1,15,5,11 
      24:  00:4D13  01 0F 05 0C             defb 1,15,5,12 
      25:  00:4D17  01 0F 06 0D             defb 1,15,6,13 
      26:  00:4D1B  01 0F 05 0C             defb 1,15,5,12 
      27:  00:4D1F  01 0F 04 0B             defb 1,15,4,11 
      28:  00:4D23  01 0F 05 0C             defb 1,15,5,12 
      29:  00:4D27  01 0F 05 0C             defb 1,15,5,12 
      30:  00:4D2B  01 0F 03 0E             defb 1,15,3,14 
      31:  00:4D2F  01 0F 03 0E             defb 1,15,3,14 
      32:  00:4D33  01 0F 05 0F             defb 1,15,5,15 
      33:  00:4D37  01 0F 02 0C             defb 1,15,2,12 
      34:  00:4D3B  01 0F 03 0E             defb 1,15,3,14 
      35:  00:4D3F  01 0F 03 0E             defb 1,15,3,14 
      36:  00:4D43  01 0F 01 0F             defb 1,15,1,15 
      37:  00:4D47  01 0D 01 0F             defb 1,13,1,15 
      38:  00:4D4B  01 0F 01 0F             defb 1,15,1,15 
      39:  00:4D4F  01 0D 01 0F             defb 1,13,1,15 
      40:  00:4D53  01 0F 01 0F             defb 1,15,1,15 
      41:  00:4D57  01 0F 01 0F             defb 1,15,1,15 
      42:  00:4D5B                      
      33.  00:4D5B                      
      34.  00:4D5B                      ;--------------------------------------------------------------------
      35.  00:4D5B                      ;--------------------------------------------------------------------
      36.  00:4D5B                      add_bc_score_bin
      37.  00:4D5B  C9                  	ret
      38.  00:4D5C                      ;--------------------------------------------------------------------
      39.  00:4D5C                      
      40.  00:4D5C                      ; Fast random number generator using the same method
      41.  00:4D5C                      ; as the CDMA used in cellular telephones
      42.  00:4D5C                      ;--------------------------------------------------------------------
      43.  00:4D5C                      ; init random seed 
      44.  00:4D5C                      
      45.  00:4D5C                      rand8_init:
      46.  00:4D5C  2A 9E FC            	LD      HL,(_jiffy)
      47.  00:4D5F  CB C5               	SET		0,L
      48.  00:4D61  22 85 D3            	LD      (randSeed),HL
      49.  00:4D64  C9                  	RET
      50.  00:4D65                      
      51.  00:4D65                      
      52.  00:4D65                      ; -------------------------------------------------------------------
      53.  00:4D65                      ; rand8
      54.  00:4D65                      ; -------------------------------------------------------------------
      55.  00:4D65                      ;
      56.  00:4D65                      ; choose a random number in the set [0,127] with uniform distribution
      57.  00:4D65                      ; return: A = random value
      58.  00:4D65                      
      59.  00:4D65                      rand8:
      60.  00:4D65  2A 85 D3            	ld      hl,(randSeed)
      61.  00:4D68  29                  	add     hl,hl
      62.  00:4D69  9F                  	sbc     a,a
      63.  00:4D6A  E6 83               	and     083h
      64.  00:4D6C  AD                  	xor     l
      65.  00:4D6D  6F                  	ld      l,a
      66.  00:4D6E  22 85 D3            	ld      (randSeed),hl
      67.  00:4D71  C9                  	ret
      68.  00:4D72                      ;;;;;;;;;;;;;;;;;;;;;;;;;;;;;;;;;;;;;;;;;
      69.  00:4D72                      ;	increase the wave counter
      70.  00:4D72                      ; 	and test for landing permission
      71.  00:4D72                      	
      72.  00:4D72                      land_now_test:
      73.  00:4D72  3A 88 D3            	ld	a,(wave_count)
      74.  00:4D75  3C                  	inc	a
      75.  00:4D76  32 88 D3            	ld	(wave_count),a
      76.  00:4D79  5F                  	ld	e,a
      77.  00:4D7A  3A 87 D3            	ld	a,(cur_level)
      78.  00:4D7D  0F 0F               [2]	rrca
      79.  00:4D7F  E6 0F               	and	15
      80.  00:4D81  C6 19               	add	a,25
      81.  00:4D83  BB                  	cp	e				; 'land now' counter after  25+cur_level/4 waves
      82.  00:4D84  C0                  	ret nz
      83.  00:4D85                      
      84.  00:4D85                      	; ld	hl,land_now
      85.  00:4D85                      	; ld	de,0x1C00+8*3*32
      86.  00:4D85                      	; call	print_strf
      87.  00:4D85  3E FF               	ld	a,-1
      88.  00:4D87  32 89 D3            	ld	(landing_permission),a
      89.  00:4D8A                      	
      90.  00:4D8A  3E 0E               	ld	a,14			; Land Now
      91.  00:4D8C  CD 1A 4A            	call AFXPLAY
      92.  00:4D8F                      	
      93.  00:4D8F  C9                  	ret
      94.  00:4D90                      ;;;;;;;;;;;;;;;;;;;;;;;;;;;;;;;;;;;;;;;;;
      95.  00:4D90                      ;
      96.  00:4D90                      ; NPC initialization 
      97.  00:4D90                      ; it removes also bullets
      98.  00:4D90                      ;
      99.  00:4D90                      npc_init:
     100.  00:4D90  DD 21 EB D3         	ld  ix,enemies
     101.  00:4D94  06 0A               	ld  b,max_enem
     102.  00:4D96  11 0E 00            	ld	de,enemy_data
     103.  00:4D99                      
     104.  00:4D99  DD 36 07 00         1:  ld  (ix+enemy_data.status),0
     105.  00:4D9D  DD 36 09 FF         	ld  (ix+enemy_data.kind),255
     106.  00:4DA1  DD 36 08 00         	ld	(ix+enemy_data.cntr),0
     107.  00:4DA5  DD 36 00 D9         	ld	(ix+enemy_data.y),0xD9
     108.  00:4DA9                      
     109.  00:4DA9  DD 19               	add ix,de
     110.  00:4DAB  10 EC               	djnz    1b
     111.  00:4DAD                      
     112.  00:4DAD  21 B4 00            	ld	hl,assault_wave_timer_preset
     113.  00:4DB0  22 8A D3            	ld	(assault_wave_timer),hl
     114.  00:4DB3  AF                  	xor	a
     115.  00:4DB4  32 88 D3            	ld	(wave_count),a
     116.  00:4DB7  32 89 D3            	ld	(landing_permission),a
     117.  00:4DBA                      	
     118.  00:4DBA                      ; turn off MS and enemy bullets
     119.  00:4DBA                      
     120.  00:4DBA                      bull_init:
     121.  00:4DBA  AF                  	xor a
     122.  00:4DBB  32 8C D3            	ld  (bullet_rate),a
     123.  00:4DBE                      
     124.  00:4DBE  DD 21 97 D3         	ld  ix,ms_bullets
     125.  00:4DC2  11 0E 00            	ld  de,enemy_data
     126.  00:4DC5  06 06               	ld	b,max_bullets+max_enem_bullets
     127.  00:4DC7                      	
     128.  00:4DC7  DD 77 07            1:	ld  (ix+enemy_data.status),a
     129.  00:4DCA  DD 36 0B 0F         	ld	(ix+enemy_data.color),15
     130.  00:4DCE  DD 19               	add ix,de
     131.  00:4DD0  10 F5               	djnz	1b
     132.  00:4DD2                      
     133.  00:4DD2  C9                  	ret
     134.  00:4DD3                      
     135.  00:4DD3                      
     136.  00:4DD3                      ;;;;;;;;;;;;;;;;;;;;;;;;;;;;;;;;;;;;;;;;;
     137.  00:4DD3                      ;
     138.  00:4DD3                      ;	timer for wave assaults
     139.  00:4DD3                      ;
     140.  00:4DD3                      wave_timer:
     141.  00:4DD3  2A 8A D3            	ld	hl,(assault_wave_timer)
     142.  00:4DD6  2B                  	dec	hl
     143.  00:4DD7  7C                  	ld	a,h
     144.  00:4DD8  B5                  	or	l
     145.  00:4DD9  22 8A D3            	ld	(assault_wave_timer),hl
     146.  00:4DDC  C0                  	ret	nz
     147.  00:4DDD                      
     148.  00:4DDD  3E 01               	ld	a,1			; wave incoming
     149.  00:4DDF  CD 1A 4A            	call AFXPLAY
     150.  00:4DE2                      	
     151.  00:4DE2  21 B4 00            	ld	hl,assault_wave_timer_preset
     152.  00:4DE5  3A 87 D3            	ld	a,(cur_level)
     153.  00:4DE8  87                  	add	a,a
     154.  00:4DE9  5F                  	ld	e,a
     155.  00:4DEA  16 00               	ld	d,0
     156.  00:4DEC  A7                  	and	a
     157.  00:4DED  ED 52               	sbc	hl,de	; at level 15 frequency is a wave each 2,5 seconds
     158.  00:4DEF  22 8A D3            	ld	(assault_wave_timer),hl	; 180 - 2*cur_level
     159.  00:4DF2                      	
     160.  00:4DF2                      
     161.  00:4DF2  CD 72 4D            	call	land_now_test
     162.  00:4DF5                      	
     163.  00:4DF5  CD 65 4D            	call	rand8
     164.  00:4DF8  E6 07               	and	7
     165.  00:4DFA                      	
     166.  00:4DFA  CA 08 4F            	jp	z,wave0
     167.  00:4DFD  3D                  	dec	a
     168.  00:4DFE  CA 08 4F            	jp	z,wave1
     169.  00:4E01  3D                  	dec	a
     170.  00:4E02  CA 98 4F            	jp	z,wave2
     171.  00:4E05  3D                  	dec	a
     172.  00:4E06  CA 2E 50            	jp	z,wave3
     173.  00:4E09  3D                  	dec	a
     174.  00:4E0A  CA B5 50            	jp	z,wave4
     175.  00:4E0D  3D                  	dec	a
     176.  00:4E0E  CA 4B 51            	jp	z,wave5
     177.  00:4E11  3D                  	dec	a
     178.  00:4E12  CA C4 51            	jp	z,wave6
     179.  00:4E15  C3 66 52            	jp	wave7
     180.  00:4E18                      
     181.  00:4E18                      ;;;;;;;;;;;;;;;;;;;;;;;;;;;;;;;;;;;;;;;;;
     182.  00:4E18                      ;
     183.  00:4E18                      ;	enemies coming frontally
     184.  00:4E18                      ;
     185.  00:4E18  (00E8)              	align 0x100
     186.  00:4F00                      spritecolors:
     187.  00:4F00  0F 0E 09 07         	db       15,14, 9, 7
     188.  00:4F04  09 03 0E 0F         	db        9, 3,14,15
     189.  00:4F08                      	
     190.  00:4F08                      wave0:
     191.  00:4F08                      wave1:
     192.  00:4F08  CD 65 4D            	call	rand8
     193.  00:4F0B  E6 0F               	and	15
     194.  00:4F0D  4F                  	ld 	c,a		; Y off set
     195.  00:4F0E  D9                  	exx
     196.  00:4F0F                      
     197.  00:4F0F  CD 65 4D            	call	rand8
     198.  00:4F12  E6 07               	and	7
     199.  00:4F14  6F                  	ld	l,a
     200.  00:4F15  26 4F               	ld	h, high spritecolors
     201.  00:4F17  7E                  	ld	a,(hl)	
     202.  00:4F18  FD 6F               	ld	iyl,a	; color
     203.  00:4F1A  7D                  	ld	a,l
     204.  00:4F1B  87                  	add	a,a
     205.  00:4F1C  87                  	add	a,a
     206.  00:4F1D  87                  	add	a,a
     207.  00:4F1E  87                  	add	a,a
     208.  00:4F1F                      
     209.  00:4F1F  C6 40               	add	a,64
     210.  00:4F21  47                  	ld	b,a			; frame
     211.  00:4F22                      	
     212.  00:4F22  3A 8D D3            	ld	a,(dxmap)
     213.  00:4F25  E6 80               	and	0x80
     214.  00:4F27  28 0C               	jr	z,.pos
     215.  00:4F29                      .neg
     216.  00:4F29  11 C0 FF            	ld	de,-64
     217.  00:4F2C  0E 01               	ld	c,+1		; enemies going right
     218.  00:4F2E  D9                  	exx	
     219.  00:4F2F  11 01 00            	ld 	de,1		; enemy speed = 1
     220.  00:4F32  D9                  	exx
     221.  00:4F33  18 0E               	jr	1f
     222.  00:4F35                      .pos
     223.  00:4F35  11 20 01            	ld	de,256+32
     224.  00:4F38  0E 41               	ld	c,1+64	; enemies going left
     225.  00:4F3A  3E 04               	ld	a,4
     226.  00:4F3C  80                  	add	a,b
     227.  00:4F3D  47                  	ld	b,a
     228.  00:4F3E  D9                  	exx	
     229.  00:4F3F  11 FF FF            	ld 	de,-1		; enemy speed = -1
     230.  00:4F42  D9                  	exx
     231.  00:4F43                      1:
     232.  00:4F43  D9                  	exx	
     233.  00:4F44  3E 40               	ld	a,64
     234.  00:4F46  81                  	add	a,c
     235.  00:4F47  D9                  	exx		
     236.  00:4F48                      	
     237.  00:4F48  2A 8E D3            	ld	hl,(xmap)
     238.  00:4F4B  19                  	add	hl,de
     239.  00:4F4C                      
     240.  00:4F4C  DD 21 EB D3         	ld  ix,enemies
     241.  00:4F50  FD 26 0A            	ld	iyh,max_enem
     242.  00:4F53  11 0E 00            	ld  de,enemy_data
     243.  00:4F56                      	
     244.  00:4F56                      1:
     245.  00:4F56  DD CB 07 46         	bit	0,(ix+enemy_data.status)
     246.  00:4F5A  20 35               	jr  nz,.next
     247.  00:4F5C                      
     248.  00:4F5C  DD 71 07            	ld  (ix+enemy_data.status),c
     249.  00:4F5F  DD 70 0A            	ld	(ix+enemy_data.frame),b
     250.  00:4F62                      
     251.  00:4F62  DD 36 09 00         	ld  (ix+enemy_data.kind),0
     252.  00:4F66  D9                  	exx
     253.  00:4F67  FD 45               	ld	b,iyl
     254.  00:4F69  DD 70 0B            	ld	(ix+enemy_data.color),b
     255.  00:4F6C  DD 73 0C            	ld	(ix+enemy_data.speed),e
     256.  00:4F6F  DD 72 0D            	ld	(ix+enemy_data.speed+1),d
     257.  00:4F72  D9                  	exx
     258.  00:4F73                      
     259.  00:4F73  C5                  	push	bc
     260.  00:4F74  01 10 00            	ld bc,16
     261.  00:4F77  09                  	add hl,bc 
     262.  00:4F78  DD 75 01            	ld  (ix+enemy_data.x),l
     263.  00:4F7B  DD 74 02            	ld  (ix+enemy_data.x+1),h
     264.  00:4F7E  C1                  	pop	bc
     265.  00:4F7F                      	
     266.  00:4F7F  DD 77 00            	ld  (ix+enemy_data.y),a
     267.  00:4F82  C6 20               	add	a,32
     268.  00:4F84                      	
     269.  00:4F84  CD 00 47            	call	set_size
     270.  00:4F87                      
     271.  00:4F87  DD 19               	add ix,de
     272.  00:4F89  FD 25               	dec	iyh
     273.  00:4F8B  C8                  	ret	z
     274.  00:4F8C  FE AF               	cp	191-16
     275.  00:4F8E  38 C6               	jr	c,1b
     276.  00:4F90  C9                  	ret
     277.  00:4F91                      
     278.  00:4F91                      .next
     279.  00:4F91  DD 19               	add ix,de
     280.  00:4F93  FD 25               	dec	iyh
     281.  00:4F95  C8                  	ret	z
     282.  00:4F96  18 BE               	jr	1b
     283.  00:4F98                      	
     284.  00:4F98                      ;;;;;;;;;;;;;;;;;;;;;;;;;;;;;;;;;;;;;;;;;
     285.  00:4F98                      ;
     286.  00:4F98                      ;	enemies coming from back
     287.  00:4F98                      ;
     288.  00:4F98                      wave2:
     289.  00:4F98  CD 65 4D            	call	rand8
     290.  00:4F9B  E6 0F               	and	15
     291.  00:4F9D  4F                  	ld 	c,a		; Y off set
     292.  00:4F9E  D9                  	exx
     293.  00:4F9F                      
     294.  00:4F9F  CD 65 4D            	call	rand8
     295.  00:4FA2  E6 07               	and	7
     296.  00:4FA4  6F                  	ld	l,a
     297.  00:4FA5  26 4F               	ld	h, high spritecolors
     298.  00:4FA7  7E                  	ld	a,(hl)	
     299.  00:4FA8  FD 6F               	ld	iyl,a		; color
     300.  00:4FAA                      	
     301.  00:4FAA  7D                  	ld	a,l
     302.  00:4FAB  87                  	add	a,a
     303.  00:4FAC  87                  	add	a,a
     304.  00:4FAD  87                  	add	a,a
     305.  00:4FAE  87                  	add	a,a
     306.  00:4FAF                      
     307.  00:4FAF  C6 40               	add	a,64
     308.  00:4FB1  47                  	ld	b,a			; frame
     309.  00:4FB2                      
     310.  00:4FB2  D9                  	exx
     311.  00:4FB3  3A 8D D3            	ld	a,(dxmap)
     312.  00:4FB6  F6 02               	or	2
     313.  00:4FB8  CB 2F CB 2F         [2] sra a			; de' = player speed 
     314.  00:4FBC  5F                  	ld	e,a
     315.  00:4FBD  17                  	rla
     316.  00:4FBE  9F                  	sbc a,a
     317.  00:4FBF  57                  	ld	d,a
     318.  00:4FC0  D9                  	exx
     319.  00:4FC1                      
     320.  00:4FC1  28 0E               	jr	z,.pos				
     321.  00:4FC3                      .neg
     322.  00:4FC3  11 20 01            	ld	de,256+32
     323.  00:4FC6  0E 41               	ld	c,1+64		; enemies going left
     324.  00:4FC8  3E 04               	ld	a,4
     325.  00:4FCA  80                  	add	a,b
     326.  00:4FCB  47                  	ld	b,a
     327.  00:4FCC  D9                  	exx	
     328.  00:4FCD  1B                  	dec 	de				; enemy speed = player speed -1
     329.  00:4FCE  D9                  	exx
     330.  00:4FCF  18 08               	jr	1f
     331.  00:4FD1                      .pos
     332.  00:4FD1  11 C0 FF            	ld	de,-64
     333.  00:4FD4  0E 01               	ld	c,+1		; enemies going right
     334.  00:4FD6  D9                  	exx	
     335.  00:4FD7  13                  	inc 	de			; enemy speed = player speed +1
     336.  00:4FD8  D9                  	exx
     337.  00:4FD9                      	
     338.  00:4FD9                      1:
     339.  00:4FD9  2A 8E D3            	ld	hl,(xmap)
     340.  00:4FDC  19                  	add	hl,de
     341.  00:4FDD                      
     342.  00:4FDD  DD 21 EB D3         	ld  ix,enemies
     343.  00:4FE1  3E 40               	ld	a,64
     344.  00:4FE3  D9                  	exx	
     345.  00:4FE4  81                  	add	a,c			; random offset
     346.  00:4FE5  D9                  	exx	
     347.  00:4FE6                      
     348.  00:4FE6  FD 26 0A            	ld	iyh,max_enem
     349.  00:4FE9  11 0E 00            	ld  de,enemy_data
     350.  00:4FEC                      
     351.  00:4FEC                      1:
     352.  00:4FEC  DD CB 07 46         	bit	0,(ix+enemy_data.status)
     353.  00:4FF0  20 35               	jr  nz,.next
     354.  00:4FF2                      
     355.  00:4FF2  DD 71 07            	ld  (ix+enemy_data.status),c
     356.  00:4FF5  DD 70 0A            	ld	(ix+enemy_data.frame),b
     357.  00:4FF8                      
     358.  00:4FF8  DD 36 09 02         	ld  (ix+enemy_data.kind),2
     359.  00:4FFC                      
     360.  00:4FFC  D9                  	exx	
     361.  00:4FFD  FD 45               	ld	b,iyl
     362.  00:4FFF  DD 70 0B            	ld	(ix+enemy_data.color),b
     363.  00:5002  DD 73 0C            	ld	(ix+enemy_data.speed),e
     364.  00:5005  DD 72 0D            	ld	(ix+enemy_data.speed+1),d
     365.  00:5008  D9                  	exx
     366.  00:5009                      	
     367.  00:5009  C5                  	push	bc
     368.  00:500A  01 10 00            	ld bc,16
     369.  00:500D  09                  	add hl,bc 
     370.  00:500E  DD 75 01            	ld  (ix+enemy_data.x),l
     371.  00:5011  DD 74 02            	ld  (ix+enemy_data.x+1),h
     372.  00:5014  C1                  	pop		bc
     373.  00:5015                      	
     374.  00:5015  DD 77 00            	ld  (ix+enemy_data.y),a
     375.  00:5018  C6 20               	add	a,32
     376.  00:501A                      
     377.  00:501A  CD 00 47            	call	set_size
     378.  00:501D                      
     379.  00:501D  DD 19               	add ix,de
     380.  00:501F  FD 25               	dec	iyh
     381.  00:5021  C8                  	ret	z
     382.  00:5022  FE AF               	cp	191-16
     383.  00:5024  38 C6               	jr	c,1b
     384.  00:5026  C9                  	ret
     385.  00:5027                      
     386.  00:5027                      .next
     387.  00:5027  DD 19               	add ix,de
     388.  00:5029  FD 25               	dec	iyh
     389.  00:502B  C8                  	ret	z
     390.  00:502C  18 BE               	jr	1b
     391.  00:502E                      ;;;;;;;;;;;;;;;;;;;;;;;;;;;;;;;;;;;;;;;;;
     392.  00:502E                      wave3:
     393.  00:502E  CD 65 4D            	call	rand8
     394.  00:5031  E6 0F               	and	15
     395.  00:5033  C6 07               	add	a,7
     396.  00:5035  4F                  	ld 	c,a		; Y off set
     397.  00:5036                      		
     398.  00:5036  3A 8D D3            	ld	a,(dxmap)
     399.  00:5039  F6 02               	or	2
     400.  00:503B  CB 2F CB 2F         [2] sra a			; de' = player speed 
     401.  00:503F  5F                  	ld	e,a
     402.  00:5040  17                  	rla
     403.  00:5041  9F                  	sbc a,a
     404.  00:5042  57                  	ld	d,a
     405.  00:5043  D9                  	exx
     406.  00:5044                      
     407.  00:5044  28 0B               	jr	z,.pos				
     408.  00:5046                      .neg
     409.  00:5046  11 20 01            	ld	de,256+32
     410.  00:5049  01 41 64            	ld	bc,256*100+1+64		; enemies going left
     411.  00:504C  D9                  	exx	
     412.  00:504D  1B                  	dec 	de				; enemy speed = player speed -1
     413.  00:504E  D9                  	exx
     414.  00:504F  18 09               	jr	1f
     415.  00:5051                      .pos
     416.  00:5051  11 C0 FF            	ld	de,-64
     417.  00:5054  01 01 60            	ld	bc,256*96+1		; enemies going right
     418.  00:5057  D9                  	exx	
     419.  00:5058  13                  	inc 	de			; enemy speed = player speed +1
     420.  00:5059  D9                  	exx
     421.  00:505A                      	
     422.  00:505A                      1:
     423.  00:505A  2A 8E D3            	ld	hl,(xmap)
     424.  00:505D  19                  	add	hl,de
     425.  00:505E                      
     426.  00:505E  DD 21 EB D3         	ld  ix,enemies
     427.  00:5062  3E 40               	ld	a,64
     428.  00:5064  D9                  	exx	
     429.  00:5065  81                  	add	a,c			; random Y offset
     430.  00:5066  D9                  	exx	
     431.  00:5067                      
     432.  00:5067  FD 26 0A            	ld	iyh,max_enem
     433.  00:506A  11 0E 00            	ld  de,enemy_data
     434.  00:506D                      
     435.  00:506D                      1:
     436.  00:506D  DD CB 07 46         	bit	0,(ix+enemy_data.status)
     437.  00:5071  20 3B               	jr  nz,.next
     438.  00:5073                      
     439.  00:5073  DD 71 07            	ld  (ix+enemy_data.status),c
     440.  00:5076  DD 70 0A            	ld	(ix+enemy_data.frame),b
     441.  00:5079                      
     442.  00:5079  DD 36 09 05         	ld  (ix+enemy_data.kind),5
     443.  00:507D  DD 36 0B 0A         	ld	(ix+enemy_data.color),10
     444.  00:5081                      
     445.  00:5081  D9                  	exx	
     446.  00:5082  DD 73 0C            	ld	(ix+enemy_data.speed),e
     447.  00:5085  DD 72 0D            	ld	(ix+enemy_data.speed+1),d
     448.  00:5088  D9                  	exx
     449.  00:5089                      	
     450.  00:5089  C5                  	push	bc
     451.  00:508A  CB 67               	bit	4,a
     452.  00:508C  01 10 00            	ld bc,16
     453.  00:508F  28 03               	jr	z,2f
     454.  00:5091  01 F0 FF            	ld	bc,-16
     455.  00:5094                      2:	
     456.  00:5094  09                  	add hl,bc 
     457.  00:5095  DD 75 01            	ld  (ix+enemy_data.x),l
     458.  00:5098  DD 74 02            	ld  (ix+enemy_data.x+1),h
     459.  00:509B  C1                  	pop		bc
     460.  00:509C                      	
     461.  00:509C  DD 77 00            	ld  (ix+enemy_data.y),a
     462.  00:509F  C6 18               	add	a,24
     463.  00:50A1                      
     464.  00:50A1  CD 00 47            	call	set_size
     465.  00:50A4                      
     466.  00:50A4  DD 19               	add ix,de
     467.  00:50A6  FD 25               	dec	iyh
     468.  00:50A8  C8                  	ret	z
     469.  00:50A9  FE AF               	cp	191-16
     470.  00:50AB  38 C0               	jr	c,1b
     471.  00:50AD  C9                  	ret
     472.  00:50AE                      
     473.  00:50AE                      .next
     474.  00:50AE  DD 19               	add ix,de
     475.  00:50B0  FD 25               	dec	iyh
     476.  00:50B2  C8                  	ret	z
     477.  00:50B3  18 B8               	jr	1b
     478.  00:50B5                      ;;;;;;;;;;;;;;;;;;;;;;;;;;;;;;;;;;;;;;;;;
     479.  00:50B5                      
     480.  00:50B5                      ;	enemies coming from back
     481.  00:50B5                      ;;;;;;;;;;;;;;;;;;;;;;;;;;;;;;;;;;;;;;;;;
     482.  00:50B5                      wave4:
     483.  00:50B5  CD 65 4D            	call	rand8
     484.  00:50B8  E6 0F               	and	15
     485.  00:50BA  4F                  	ld 	c,a		; Y off set
     486.  00:50BB  D9                  	exx
     487.  00:50BC                      
     488.  00:50BC  CD 65 4D            	call	rand8
     489.  00:50BF  E6 07               	and	7
     490.  00:50C1  6F                  	ld	l,a
     491.  00:50C2  26 4F               	ld	h, high spritecolors
     492.  00:50C4  7E                  	ld	a,(hl)	
     493.  00:50C5  FD 6F               	ld	iyl,a		; color
     494.  00:50C7                      	
     495.  00:50C7  7D                  	ld	a,l
     496.  00:50C8  87                  	add	a,a
     497.  00:50C9  87                  	add	a,a
     498.  00:50CA  87                  	add	a,a
     499.  00:50CB  87                  	add	a,a
     500.  00:50CC                      
     501.  00:50CC  C6 40               	add	a,64
     502.  00:50CE  47                  	ld	b,a			; frame
     503.  00:50CF                      	
     504.  00:50CF  D9                  	exx
     505.  00:50D0  3A 8D D3            	ld	a,(dxmap)
     506.  00:50D3  F6 02               	or	2
     507.  00:50D5  CB 2F CB 2F         [2] sra a			; de' = player speed 
     508.  00:50D9  5F                  	ld	e,a
     509.  00:50DA  17                  	rla
     510.  00:50DB  9F                  	sbc a,a
     511.  00:50DC  57                  	ld	d,a
     512.  00:50DD  D9                  	exx
     513.  00:50DE                      
     514.  00:50DE  28 0E               	jr	z,.pos				
     515.  00:50E0                      .neg
     516.  00:50E0  11 20 01            	ld	de,256+32
     517.  00:50E3  0E 41               	ld	c,+1+64		; enemies going left
     518.  00:50E5  3E 04               	ld	a,4
     519.  00:50E7  80                  	add	a,b
     520.  00:50E8  47                  	ld	b,a
     521.  00:50E9  D9                  	exx	
     522.  00:50EA  1B                  	dec 	de				; enemy speed = player speed -1
     523.  00:50EB  D9                  	exx
     524.  00:50EC  18 08               	jr	1f
     525.  00:50EE                      .pos
     526.  00:50EE  11 C0 FF            	ld	de,-64
     527.  00:50F1  0E 01               	ld	c,+1		; enemies going right
     528.  00:50F3  D9                  	exx	
     529.  00:50F4  13                  	inc 	de				; enemy speed = player speed +1
     530.  00:50F5  D9                  	exx
     531.  00:50F6                      	
     532.  00:50F6                      1:
     533.  00:50F6  2A 8E D3            	ld	hl,(xmap)
     534.  00:50F9  19                  	add	hl,de
     535.  00:50FA                      
     536.  00:50FA  DD 21 EB D3         	ld  ix,enemies
     537.  00:50FE  3E 40               	ld	a,64
     538.  00:5100  D9                  	exx	
     539.  00:5101  81                  	add	a,c			; random offset
     540.  00:5102  D9                  	exx	
     541.  00:5103                      
     542.  00:5103  FD 26 0A            	ld	iyh,max_enem
     543.  00:5106  11 0E 00            	ld  de,enemy_data
     544.  00:5109                      
     545.  00:5109                      1:
     546.  00:5109  DD CB 07 46         	bit	0,(ix+enemy_data.status)
     547.  00:510D  20 35               	jr  nz,.next
     548.  00:510F                      
     549.  00:510F  DD 71 07            	ld  (ix+enemy_data.status),c
     550.  00:5112  DD 70 0A            	ld	(ix+enemy_data.frame),b
     551.  00:5115                      
     552.  00:5115  DD 36 09 04         	ld  (ix+enemy_data.kind),4
     553.  00:5119                      
     554.  00:5119  D9                  	exx	
     555.  00:511A  FD 45               	ld	b,iyl
     556.  00:511C  DD 70 0B            	ld	(ix+enemy_data.color),b
     557.  00:511F  DD 73 0C            	ld	(ix+enemy_data.speed),e
     558.  00:5122  DD 72 0D            	ld	(ix+enemy_data.speed+1),d
     559.  00:5125  D9                  	exx
     560.  00:5126                      	
     561.  00:5126  C5                  	push	bc
     562.  00:5127  01 10 00            	ld bc,16
     563.  00:512A  09                  	add hl,bc 
     564.  00:512B  DD 75 01            	ld  (ix+enemy_data.x),l
     565.  00:512E  DD 74 02            	ld  (ix+enemy_data.x+1),h
     566.  00:5131  C1                  	pop		bc
     567.  00:5132                      	
     568.  00:5132  DD 77 00            	ld  (ix+enemy_data.y),a
     569.  00:5135  C6 20               	add	a,32
     570.  00:5137                      
     571.  00:5137  CD 00 47            	call	set_size
     572.  00:513A                      
     573.  00:513A  DD 19               	add ix,de
     574.  00:513C  FD 25               	dec	iyh
     575.  00:513E  C8                  	ret	z
     576.  00:513F  FE AF               	cp	191-16
     577.  00:5141  38 C6               	jr	c,1b
     578.  00:5143  C9                  	ret
     579.  00:5144                      
     580.  00:5144                      .next
     581.  00:5144  DD 19               	add ix,de
     582.  00:5146  FD 25               	dec	iyh
     583.  00:5148  C8                  	ret	z
     584.  00:5149  18 BE               	jr	1b
     585.  00:514B                      ;;;;;;;;;;;;;;;;;;;;;;;;;;;;;;;;;;;;;;;;;
     586.  00:514B                      ; spinning enemy color 11
     587.  00:514B                      wave5:
     588.  00:514B  CD 65 4D            	call	rand8
     589.  00:514E  E6 0F               	and	15
     590.  00:5150  4F                  	ld 	c,a		; Y off set
     591.  00:5151                      	
     592.  00:5151  3A 8D D3            	ld	a,(dxmap)
     593.  00:5154  F6 02               	or	2
     594.  00:5156  CB 2F CB 2F         [2] sra a			; de' = player speed 
     595.  00:515A  5F                  	ld	e,a
     596.  00:515B  17                  	rla
     597.  00:515C  9F                  	sbc a,a
     598.  00:515D  57                  	ld	d,a
     599.  00:515E  D9                  	exx
     600.  00:515F                      
     601.  00:515F  28 0A               	jr	z,.pos				
     602.  00:5161                      .neg
     603.  00:5161  11 20 01            	ld	de,256+32
     604.  00:5164  0E 41               	ld	c,+1+64		; enemies going left
     605.  00:5166  D9                  	exx	
     606.  00:5167  1B                  	dec 	de				; enemy speed = player speed -1
     607.  00:5168  D9                  	exx
     608.  00:5169  18 08               	jr	1f
     609.  00:516B                      .pos
     610.  00:516B  11 C0 FF            	ld	de,-64
     611.  00:516E  0E 01               	ld	c,+1		; enemies going right
     612.  00:5170  D9                  	exx	
     613.  00:5171  13                  	inc 	de				; enemy speed = player speed +1
     614.  00:5172  D9                  	exx
     615.  00:5173                      	
     616.  00:5173                      1:
     617.  00:5173  2A 8E D3            	ld	hl,(xmap)
     618.  00:5176  19                  	add	hl,de
     619.  00:5177                      
     620.  00:5177  DD 21 EB D3         	ld  ix,enemies
     621.  00:517B  3E 40               	ld	a,64
     622.  00:517D  D9                  	exx	
     623.  00:517E  81                  	add	a,c			; random offset
     624.  00:517F  D9                  	exx	
     625.  00:5180                      
     626.  00:5180  FD 26 0A            	ld	iyh,max_enem
     627.  00:5183  11 0E 00            	ld  de,enemy_data
     628.  00:5186                      
     629.  00:5186                      1:
     630.  00:5186  DD CB 07 46         	bit	0,(ix+enemy_data.status)
     631.  00:518A  20 31               	jr  nz,.next
     632.  00:518C                      
     633.  00:518C  DD 71 07            	ld  (ix+enemy_data.status),c
     634.  00:518F                      	; ld	(ix+enemy_data.frame),b
     635.  00:518F                      	
     636.  00:518F  DD 36 09 06         	ld  (ix+enemy_data.kind),6
     637.  00:5193                      
     638.  00:5193  D9                  	exx	
     639.  00:5194  DD 36 0B 0B         	ld	(ix+enemy_data.color),11
     640.  00:5198  DD 73 0C            	ld	(ix+enemy_data.speed),e
     641.  00:519B  DD 72 0D            	ld	(ix+enemy_data.speed+1),d
     642.  00:519E  D9                  	exx
     643.  00:519F                      	
     644.  00:519F  C5                  	push	bc
     645.  00:51A0  01 10 00            	ld bc,16
     646.  00:51A3  09                  	add hl,bc 
     647.  00:51A4  DD 75 01            	ld  (ix+enemy_data.x),l
     648.  00:51A7  DD 74 02            	ld  (ix+enemy_data.x+1),h
     649.  00:51AA  C1                  	pop		bc
     650.  00:51AB                      	
     651.  00:51AB  DD 77 00            	ld  (ix+enemy_data.y),a
     652.  00:51AE  C6 20               	add	a,32
     653.  00:51B0                      
     654.  00:51B0  CD 00 47            	call	set_size
     655.  00:51B3                      
     656.  00:51B3  DD 19               	add ix,de
     657.  00:51B5  FD 25               	dec	iyh
     658.  00:51B7  C8                  	ret	z
     659.  00:51B8  FE AF               	cp	191-16
     660.  00:51BA  38 CA               	jr	c,1b
     661.  00:51BC  C9                  	ret
     662.  00:51BD                      
     663.  00:51BD                      .next
     664.  00:51BD  DD 19               	add ix,de
     665.  00:51BF  FD 25               	dec	iyh
     666.  00:51C1  C8                  	ret	z
     667.  00:51C2  18 C2               	jr	1b
     668.  00:51C4                      
     669.  00:51C4                      
     670.  00:51C4                      ;;;;;;;;;;;;;;;;;;;;;;;;;;;;;;;;;;;;;;;;;
     671.  00:51C4                      ;	enemies coming from back double speed
     672.  00:51C4                      ;;;;;;;;;;;;;;;;;;;;;;;;;;;;;;;;;;;;;;;;;
     673.  00:51C4                      wave6:
     674.  00:51C4  CD 65 4D            	call	rand8
     675.  00:51C7  E6 0F               	and	15
     676.  00:51C9  4F                  	ld 	c,a		; Y off set
     677.  00:51CA  D9                  	exx
     678.  00:51CB                      
     679.  00:51CB  CD 65 4D            	call	rand8
     680.  00:51CE  E6 07               	and	7
     681.  00:51D0  6F                  	ld	l,a
     682.  00:51D1  26 4F               	ld	h, high spritecolors
     683.  00:51D3  7E                  	ld	a,(hl)	
     684.  00:51D4  FD 6F               	ld	iyl,a		; color
     685.  00:51D6                      	
     686.  00:51D6  7D                  	ld	a,l
     687.  00:51D7  87                  	add	a,a
     688.  00:51D8  87                  	add	a,a
     689.  00:51D9  87                  	add	a,a
     690.  00:51DA  87                  	add	a,a
     691.  00:51DB                      	
     692.  00:51DB  C6 40               	add	a,64
     693.  00:51DD  47                  	ld	b,a			; frame
     694.  00:51DE  D9                  	exx
     695.  00:51DF                      	
     696.  00:51DF  3A 8D D3            	ld	a,(dxmap)
     697.  00:51E2  F6 02               	or	2
     698.  00:51E4  CB 2F CB 2F         [2] sra a			; de' = player speed 
     699.  00:51E8  5F                  	ld	e,a
     700.  00:51E9  17                  	rla
     701.  00:51EA  9F                  	sbc a,a
     702.  00:51EB  57                  	ld	d,a
     703.  00:51EC  D9                  	exx
     704.  00:51ED                      
     705.  00:51ED  28 0F               	jr	z,.pos				
     706.  00:51EF                      .neg
     707.  00:51EF  11 20 01            	ld	de,256+32
     708.  00:51F2  0E 41               	ld	c,+1+64		; enemies going left
     709.  00:51F4  3E 04               	ld	a,4
     710.  00:51F6  80                  	add	a,b
     711.  00:51F7  47                  	ld	b,a
     712.  00:51F8  D9                  	exx	
     713.  00:51F9  1B                  	dec 	de				; enemy speed = player speed -2
     714.  00:51FA  1B                  	dec 	de				
     715.  00:51FB  D9                  	exx
     716.  00:51FC  18 09               	jr	1f
     717.  00:51FE                      .pos
     718.  00:51FE  11 C0 FF            	ld	de,-64
     719.  00:5201  0E 01               	ld	c,+1		; enemies going right
     720.  00:5203  D9                  	exx	
     721.  00:5204  13                  	inc 	de				; enemy speed = player speed +2
     722.  00:5205  13                  	inc 	de				
     723.  00:5206  D9                  	exx
     724.  00:5207                      	
     725.  00:5207                      1:
     726.  00:5207  2A 8E D3            	ld	hl,(xmap)
     727.  00:520A  19                  	add	hl,de
     728.  00:520B                      
     729.  00:520B  DD 21 EB D3         	ld  ix,enemies
     730.  00:520F  3E 40               	ld	a,64
     731.  00:5211  D9                  	exx	
     732.  00:5212  81                  	add	a,c			; random offset
     733.  00:5213  CB 41               	bit	0,c
     734.  00:5215  D9                  	exx	
     735.  00:5216  28 04               	jr	z,1f		; randomize initial Y direction
     736.  00:5218  CB F9               	set	7,c
     737.  00:521A  18 02               	jr	2f
     738.  00:521C  CB B9               1:	res	7,c
     739.  00:521E                      2:
     740.  00:521E  FD 26 0A            	ld	iyh,max_enem
     741.  00:5221  11 0E 00            	ld  de,enemy_data
     742.  00:5224                      
     743.  00:5224                      1:
     744.  00:5224  DD CB 07 46         	bit	0,(ix+enemy_data.status)
     745.  00:5228  20 35               	jr  nz,.next
     746.  00:522A                      
     747.  00:522A  DD 71 07            	ld  (ix+enemy_data.status),c
     748.  00:522D  DD 70 0A            	ld	(ix+enemy_data.frame),b
     749.  00:5230                      
     750.  00:5230  DD 36 09 04         	ld  (ix+enemy_data.kind),4
     751.  00:5234                      
     752.  00:5234  D9                  	exx	
     753.  00:5235  FD 45               	ld	b,iyl
     754.  00:5237  DD 70 0B            	ld	(ix+enemy_data.color),b
     755.  00:523A  DD 73 0C            	ld	(ix+enemy_data.speed),e
     756.  00:523D  DD 72 0D            	ld	(ix+enemy_data.speed+1),d
     757.  00:5240  D9                  	exx
     758.  00:5241                      	
     759.  00:5241  C5                  	push	bc
     760.  00:5242  01 10 00            	ld bc,16
     761.  00:5245  09                  	add hl,bc 
     762.  00:5246  DD 75 01            	ld  (ix+enemy_data.x),l
     763.  00:5249  DD 74 02            	ld  (ix+enemy_data.x+1),h
     764.  00:524C  C1                  	pop		bc
     765.  00:524D                      	
     766.  00:524D  DD 77 00            	ld  (ix+enemy_data.y),a
     767.  00:5250  C6 20               	add	a,32
     768.  00:5252                      
     769.  00:5252  CD 00 47            	call	set_size
     770.  00:5255                      
     771.  00:5255  DD 19               	add ix,de
     772.  00:5257  FD 25               	dec	iyh
     773.  00:5259  C8                  	ret	z
     774.  00:525A  FE AF               	cp	191-16
     775.  00:525C  38 C6               	jr	c,1b
     776.  00:525E  C9                  	ret
     777.  00:525F                      
     778.  00:525F                      .next
     779.  00:525F  DD 19               	add ix,de
     780.  00:5261  FD 25               	dec	iyh
     781.  00:5263  C8                  	ret	z
     782.  00:5264  18 BE               	jr	1b
     783.  00:5266                      ;;;;;;;;;;;;;;;;;;;;;;;;;;;;;;;;;;;;;;;;;;
     784.  00:5266                      ;spinning enemy color 7
     785.  00:5266                      wave7:
     786.  00:5266  CD 65 4D            	call	rand8
     787.  00:5269  E6 0F               	and	15
     788.  00:526B  4F                  	ld 	c,a		; Y off set
     789.  00:526C  3A 8D D3            	ld	a,(dxmap)
     790.  00:526F  F6 02               	or	2
     791.  00:5271  CB 2F CB 2F         [2] sra a			; de' = player speed 
     792.  00:5275  5F                  	ld	e,a
     793.  00:5276  17                  	rla
     794.  00:5277  9F                  	sbc a,a
     795.  00:5278  57                  	ld	d,a
     796.  00:5279  D9                  	exx
     797.  00:527A                      
     798.  00:527A  28 0A               	jr	z,.pos				
     799.  00:527C                      .neg
     800.  00:527C  11 20 01            	ld	de,256+32
     801.  00:527F  0E 41               	ld	c,1+64				; enemies going left
     802.  00:5281  D9                  	exx	
     803.  00:5282  1B                  	dec 	de				; enemy speed = player speed -1
     804.  00:5283  D9                  	exx
     805.  00:5284  18 08               	jr	1f
     806.  00:5286                      .pos
     807.  00:5286  11 C0 FF            	ld	de,-64
     808.  00:5289  0E 01               	ld	c,+1		; enemies going right
     809.  00:528B  D9                  	exx	
     810.  00:528C  13                  	inc 	de				; enemy speed = player speed +1
     811.  00:528D  D9                  	exx
     812.  00:528E                      	
     813.  00:528E                      1:
     814.  00:528E  2A 8E D3            	ld	hl,(xmap)
     815.  00:5291  19                  	add	hl,de
     816.  00:5292                      
     817.  00:5292  DD 21 EB D3         	ld  ix,enemies
     818.  00:5296  3E 40               	ld	a,64
     819.  00:5298  D9                  	exx	
     820.  00:5299  81                  	add	a,c			; random offset
     821.  00:529A  D9                  	exx	
     822.  00:529B                      
     823.  00:529B  FD 26 0A            	ld	iyh,max_enem
     824.  00:529E  11 0E 00            	ld  de,enemy_data
     825.  00:52A1                      
     826.  00:52A1                      1:
     827.  00:52A1  DD CB 07 46         	bit	0,(ix+enemy_data.status)
     828.  00:52A5  20 31               	jr  nz,.next
     829.  00:52A7                      
     830.  00:52A7  DD 71 07            	ld  (ix+enemy_data.status),c
     831.  00:52AA                      	; ld	(ix+enemy_data.frame),b	; dummy
     832.  00:52AA                      
     833.  00:52AA  DD 36 09 07         	ld  (ix+enemy_data.kind),7
     834.  00:52AE                      
     835.  00:52AE  D9                  	exx	
     836.  00:52AF  DD 36 0B 07         	ld	(ix+enemy_data.color),7
     837.  00:52B3  DD 73 0C            	ld	(ix+enemy_data.speed),e
     838.  00:52B6  DD 72 0D            	ld	(ix+enemy_data.speed+1),d
     839.  00:52B9  D9                  	exx
     840.  00:52BA                      	
     841.  00:52BA  C5                  	push	bc
     842.  00:52BB  01 10 00            	ld bc,16
     843.  00:52BE  09                  	add hl,bc 
     844.  00:52BF  DD 75 01            	ld  (ix+enemy_data.x),l
     845.  00:52C2  DD 74 02            	ld  (ix+enemy_data.x+1),h
     846.  00:52C5  C1                  	pop		bc
     847.  00:52C6                      	
     848.  00:52C6  DD 77 00            	ld  (ix+enemy_data.y),a
     849.  00:52C9  C6 20               	add	a,32
     850.  00:52CB                      
     851.  00:52CB  CD 00 47            	call	set_size
     852.  00:52CE                      
     853.  00:52CE  DD 19               	add ix,de
     854.  00:52D0  FD 25               	dec	iyh
     855.  00:52D2  C8                  	ret	z
     856.  00:52D3  FE AF               	cp	191-16
     857.  00:52D5  38 CA               	jr	c,1b
     858.  00:52D7  C9                  	ret
     859.  00:52D8                      
     860.  00:52D8                      .next
     861.  00:52D8  DD 19               	add ix,de
     862.  00:52DA  FD 25               	dec	iyh
     863.  00:52DC  C8                  	ret	z
     864.  00:52DD  18 C2               	jr	1b
     865.  00:52DF                      
     866.  00:52DF                      	
     867.  00:52DF                      ;;;;;;;;;;;;;;;;;;;;;;;;;;;;;;;;;;;;;;;;;;
     868.  00:52DF                      ;
     869.  00:52DF                      ;   logic for enemies -  fake for testing
     870.  00:52DF                      ;
     871.  00:52DF                      
     872.  00:52DF                      npc_loop:
     873.  00:52DF  DD 21 EB D3         	ld  ix,enemies
     874.  00:52E3  06 0A               	ld  b,max_enem
     875.  00:52E5                      
     876.  00:52E5  C5                  1:	push	bc
     877.  00:52E6  DD 7E 07            	ld  a,(ix+enemy_data.status)
     878.  00:52E9  E6 01               	and 1
     879.  00:52EB  28 22               	jr  z,next
     880.  00:52ED                      
     881.  00:52ED  DD 7E 09            	ld	a,(ix+enemy_data.kind)
     882.  00:52F0  A7                  	and	a
     883.  00:52F1  CA 63 53            	jp	z,enemy0
     884.  00:52F4  3D 3D               [2]	dec a	
     885.  00:52F6  CA BE 53            	jp 	z,enemy2
     886.  00:52F9  3D 3D               [2]	dec a	
     887.  00:52FB  CA 12 54            	jp 	z,enemy4
     888.  00:52FE  3D                  	dec a	;cp	5
     889.  00:52FF  CA 40 56            	jp 	z,enemy5
     890.  00:5302  3D                  	dec a	;cp	6
     891.  00:5303  CA A6 56            	jp 	z,enemy6
     892.  00:5306  3D                  	dec a	;cp	7
     893.  00:5307  CA 2D 57            	jp 	z,enemy7
     894.  00:530A                      
     895.  00:530A  FE F8               	cp	255-7
     896.  00:530C  CA 3F 53            	jp z,enemy255
     897.  00:530F                      
     898.  00:530F                      next:
     899.  00:530F  C1                  	pop	bc
     900.  00:5310  11 0E 00            	ld  de,enemy_data
     901.  00:5313  DD 19               	add ix,de
     902.  00:5315  10 CE               	djnz    1b
     903.  00:5317  C9                  	ret
     904.  00:5318                      ;;;;;;;;;;;;;;;;;;;;
     905.  00:5318                      npcdies:
     906.  00:5318  FD 36 07 00         	ld  (iy+enemy_data.status),0	; turn off this bullet
     907.  00:531C                      
     908.  00:531C  DD 36 0B 0A         	ld	(ix+enemy_data.color),10	; start explosion
     909.  00:5320  DD 36 09 FF         	ld	(ix+enemy_data.kind),255
     910.  00:5324  DD 36 08 02         	ld	(ix+enemy_data.cntr),2
     911.  00:5328  DD 36 0A 0C         	ld	(ix+enemy_data.frame),12
     912.  00:532C                      
     913.  00:532C  CD 65 4D            	call	rand8
     914.  00:532F  E6 03               	and	3
     915.  00:5331  C6 02               	add	a,2			; random enemy explosion
     916.  00:5333  CD 1A 4A            	call AFXPLAY
     917.  00:5336                      
     918.  00:5336  01 64 00            	ld	bc,100		; score for destruction of a flying enemy
     919.  00:5339  CD 5B 4D            	call	add_bc_score_bin
     920.  00:533C  C3 0F 53            	jp	next
     921.  00:533F                      	
     922.  00:533F                      ;;;;;;;;;;;;;;;;;;;;
     923.  00:533F                      ; explosion
     924.  00:533F                      ;;;;;;;;;;;;;;;;;;;;
     925.  00:533F                      enemy255:
     926.  00:533F  DD 35 08            	dec	(ix+enemy_data.cntr)
     927.  00:5342  C2 0F 53            	jp	nz,next
     928.  00:5345  DD 36 08 02         	ld	(ix+enemy_data.cntr),2
     929.  00:5349  DD 34 0A            	inc	(ix+enemy_data.frame)
     930.  00:534C  DD 7E 0A            	ld	a,(ix+enemy_data.frame)
     931.  00:534F  FE 10               	cp	16
     932.  00:5351  38 BC               	jr	c,next
     933.  00:5353  DD 36 0B 08         	ld	(ix+enemy_data.color),8		; start explosion
     934.  00:5357  FE 1F               	cp	23+8
     935.  00:5359  C2 0F 53            	jp	nz,next
     936.  00:535C  DD 36 07 00         	ld	(ix+enemy_data.status),0
     937.  00:5360  C3 0F 53            	jp	next
     938.  00:5363                      
     939.  00:5363                      ;;;;;;;;;;;;;;;;;;;;
     940.  00:5363                      
     941.  00:5363                      enemy0:
     942.  00:5363                      enemy1:
     943.  00:5363  DD CB 07 76         	bit 6,(ix+enemy_data.status)
     944.  00:5367  28 23               	jr  z,.go_right
     945.  00:5369                      .go_left:
     946.  00:5369                      
     947.  00:5369  DD 6E 01            	ld	l,(ix+enemy_data.x)
     948.  00:536C  DD 66 02            	ld	h,(ix+enemy_data.x+1)
     949.  00:536F  2B                  	dec	hl
     950.  00:5370  DD 75 01            	ld  (ix+enemy_data.x),l
     951.  00:5373  DD 74 02            	ld  (ix+enemy_data.x+1),h
     952.  00:5376  ED 5B 8E D3         	ld	de,(xmap)
     953.  00:537A  A7                  	and	a
     954.  00:537B  ED 52               	sbc	hl,de
     955.  00:537D  11 E0 FF            	ld	de,-32
     956.  00:5380  A7                  	and	a
     957.  00:5381  ED 52               	sbc	hl,de
     958.  00:5383  F2 AD 53            	jp  p,1f
     959.  00:5386  DD 36 07 00         	ld	(ix+enemy_data.status),0
     960.  00:538A  18 21               	jr  1f
     961.  00:538C                      
     962.  00:538C                      .go_right:
     963.  00:538C                      
     964.  00:538C  DD 6E 01            	ld	l,(ix+enemy_data.x)
     965.  00:538F  DD 66 02            	ld	h,(ix+enemy_data.x+1)
     966.  00:5392  23                  	inc	hl
     967.  00:5393  DD 75 01            	ld  (ix+enemy_data.x),l
     968.  00:5396  DD 74 02            	ld  (ix+enemy_data.x+1),h
     969.  00:5399  ED 5B 8E D3         	ld	de,(xmap)
     970.  00:539D  A7                  	and	a
     971.  00:539E  ED 52               	sbc	hl,de
     972.  00:53A0  11 20 01            	ld	de,256+32
     973.  00:53A3  A7                  	and	a
     974.  00:53A4  ED 52               	sbc	hl,de
     975.  00:53A6  FA AD 53            	jp  m,1f
     976.  00:53A9  DD 36 07 00         	ld	(ix+enemy_data.status),0
     977.  00:53AD                      1:
     978.  00:53AD                      
     979.  00:53AD  CD 65 4D            	call	rand8
     980.  00:53B0  E6 7F               	and 	127
     981.  00:53B2  CC B4 57            	call	z,book_enemy_shoot
     982.  00:53B5                      
     983.  00:53B5  CD 80 47            	call	test_collision_msbullets
     984.  00:53B8  D2 0F 53            	jp	nc,next
     985.  00:53BB  C3 18 53            	jp	npcdies
     986.  00:53BE                      
     987.  00:53BE                      ;;;;;;;;;;;;;;;;;;;;
     988.  00:53BE                      enemy2:
     989.  00:53BE                      enemy3:
     990.  00:53BE  DD 6E 01            	ld	l,(ix+enemy_data.x)
     991.  00:53C1  DD 66 02            	ld	h,(ix+enemy_data.x+1)
     992.  00:53C4  DD 5E 0C            	ld	e,(ix+enemy_data.speed)
     993.  00:53C7  DD 56 0D            	ld	d,(ix+enemy_data.speed+1)
     994.  00:53CA  19                  	add	hl,de
     995.  00:53CB  DD 75 01            	ld  (ix+enemy_data.x),l
     996.  00:53CE  DD 74 02            	ld  (ix+enemy_data.x+1),h
     997.  00:53D1                      	
     998.  00:53D1  DD CB 07 76         	bit 6,(ix+enemy_data.status)
     999.  00:53D5  28 16               	jr  z,.go_right
    1000.  00:53D7                      .go_left:
    1001.  00:53D7                      
    1002.  00:53D7  ED 5B 8E D3         	ld	de,(xmap)
    1003.  00:53DB  A7                  	and	a
    1004.  00:53DC  ED 52               	sbc	hl,de
    1005.  00:53DE  11 E0 FF            	ld	de,-32
    1006.  00:53E1  A7                  	and	a
    1007.  00:53E2  ED 52               	sbc	hl,de
    1008.  00:53E4  F2 01 54            	jp  p,1f
    1009.  00:53E7  DD 36 07 00         	ld	(ix+enemy_data.status),0
    1010.  00:53EB  18 14               	jr  1f
    1011.  00:53ED                      
    1012.  00:53ED                      .go_right:
    1013.  00:53ED                      
    1014.  00:53ED  ED 5B 8E D3         	ld	de,(xmap)
    1015.  00:53F1  A7                  	and	a
    1016.  00:53F2  ED 52               	sbc	hl,de
    1017.  00:53F4  11 20 01            	ld	de,256+32
    1018.  00:53F7  A7                  	and	a
    1019.  00:53F8  ED 52               	sbc	hl,de
    1020.  00:53FA  FA 01 54            	jp  m,1f
    1021.  00:53FD  DD 36 07 00         	ld	(ix+enemy_data.status),0
    1022.  00:5401                      1:
    1023.  00:5401                      
    1024.  00:5401  CD 65 4D            	call	rand8
    1025.  00:5404  E6 7F               	and 	127
    1026.  00:5406  CC B4 57            	call	z,book_enemy_shoot
    1027.  00:5409                      
    1028.  00:5409  CD 80 47            	call	test_collision_msbullets
    1029.  00:540C  D2 0F 53            	jp	nc,next
    1030.  00:540F  C3 18 53            	jp 	npcdies
    1031.  00:5412                      	
    1032.  00:5412                      	
    1033.  00:5412                      ;;;;;;;;;;;;;;;;;;;;
    1034.  00:5412                      enemy4:
    1035.  00:5412  DD 6E 01            	ld	l,(ix+enemy_data.x)
    1036.  00:5415  DD 66 02            	ld	h,(ix+enemy_data.x+1)
    1037.  00:5418  DD 5E 0C            	ld	e,(ix+enemy_data.speed)
    1038.  00:541B  DD 56 0D            	ld	d,(ix+enemy_data.speed+1)
    1039.  00:541E  19                  	add	hl,de
    1040.  00:541F  DD 75 01            	ld  (ix+enemy_data.x),l
    1041.  00:5422  DD 74 02            	ld  (ix+enemy_data.x+1),h
    1042.  00:5425                      	
    1043.  00:5425  DD CB 07 76         	bit 6,(ix+enemy_data.status)
    1044.  00:5429  28 16               	jr  z,.go_right
    1045.  00:542B                      .go_left:
    1046.  00:542B                      
    1047.  00:542B  ED 5B 8E D3         	ld	de,(xmap)
    1048.  00:542F  A7                  	and	a
    1049.  00:5430  ED 52               	sbc	hl,de
    1050.  00:5432  11 E0 FF            	ld	de,-32
    1051.  00:5435  A7                  	and	a
    1052.  00:5436  ED 52               	sbc	hl,de
    1053.  00:5438  F2 55 54            	jp  p,1f
    1054.  00:543B  DD 36 07 00         	ld	(ix+enemy_data.status),0
    1055.  00:543F  18 14               	jr  1f
    1056.  00:5441                      
    1057.  00:5441                      .go_right:
    1058.  00:5441                      
    1059.  00:5441  ED 5B 8E D3         	ld	de,(xmap)
    1060.  00:5445  A7                  	and	a
    1061.  00:5446  ED 52               	sbc	hl,de
    1062.  00:5448  11 20 01            	ld	de,256+32
    1063.  00:544B  A7                  	and	a
    1064.  00:544C  ED 52               	sbc	hl,de
    1065.  00:544E  FA 55 54            	jp  m,1f
    1066.  00:5451  DD 36 07 00         	ld	(ix+enemy_data.status),0
    1067.  00:5455                      1:
    1068.  00:5455                      
    1069.  00:5455  DD 7E 00            	ld	a,(ix+enemy_data.y)
    1070.  00:5458                      
    1071.  00:5458  DD CB 07 7E         	bit 7,(ix+enemy_data.status)
    1072.  00:545C  28 0B               	jr  z,.go_dwn
    1073.  00:545E                      .go_up:
    1074.  00:545E  3D                  	dec	a
    1075.  00:545F  FE 40               	cp	64
    1076.  00:5461  20 0F               	jr	nz,1f
    1077.  00:5463  DD CB 07 BE         	res	7,(ix+enemy_data.status)
    1078.  00:5467  18 09               	jr	1f
    1079.  00:5469                      .go_dwn:
    1080.  00:5469  3C                  	inc	a
    1081.  00:546A  FE AF               	cp	191-16
    1082.  00:546C  20 04               	jr	nz,1f
    1083.  00:546E  DD CB 07 FE         	set	7,(ix+enemy_data.status)
    1084.  00:5472                      	; jr	1f
    1085.  00:5472                      1:
    1086.  00:5472  DD 77 00            	ld	(ix+enemy_data.y),a
    1087.  00:5475                      
    1088.  00:5475  CD 65 4D            	call	rand8
    1089.  00:5478  E6 7F               	and 	127
    1090.  00:547A  CC B4 57            	call	z,book_enemy_shoot
    1091.  00:547D                      
    1092.  00:547D  CD 80 47            	call	test_collision_msbullets
    1093.  00:5480  D2 0F 53            	jp	nc,next
    1094.  00:5483  C3 18 53            	jp 	npcdies
    1095.  00:5486                      	
    1096.  00:5486                      	
    1097.  00:5486                      ;;;;;;;;;;;;;;;;;;;;
    1098.  00:5486  (007A)              	align 0x100
    1099.  00:5500                      rotation:
    1100.  00:5500                      	db 0,16,32,48,48,32,16,0
    1100.  00:5500  00 10 20 30 30 20 10 00 
    1101.  00:5508                      ;;;;;;;;;;
    1102.  00:5508                      rotate:
    1103.  00:5508  DD 7E 08            	ld	a,(ix+enemy_data.cntr)
    1104.  00:550B  3C                  	inc a
    1105.  00:550C  DD 77 08            	ld	(ix+enemy_data.cntr),a
    1106.  00:550F  D9                  	exx
    1107.  00:5510  26 55               	ld h, high rotation
    1108.  00:5512  0F 0F               [2]	rrca
    1109.  00:5514  E6 07               	and 7
    1110.  00:5516  6F                  	ld	l,a
    1111.  00:5517  7E                  	ld a,(hl)
    1112.  00:5518  D9                  	exx
    1113.  00:5519  C9                  	ret
    1114.  00:551A                      	
    1115.  00:551A                      
    1116.  00:551A  (00E6)              	align 0x100
    1117.  00:5600                      sinewave:
    1118.  00:5600                      	db 2,1,2,1,2,1,1,1,1,1,1,1,0,1,0,0,0,0,-1,0,-1,-1,-1,-1,-1,-1,-1,-2,-1,-2,-1,-2,-2,-1,-2,-1,-2,-1,-1,-1,-1,-1,-1,-1,0,-1,0,0,0,0,1,0,1,1,1,1,1,1,1,2,1,2,1,2
    1118.  00:5600  02 01 02 01 02 01 01 01 01 01 01 01 00 01 00 00 
    1118.  00:5610  00 00 FF 00 FF FF FF FF FF FF FF FE FF FE FF FE 
    1118.  00:5620  FE FF FE FF FE FF FF FF FF FF FF FF 00 FF 00 00 
    1118.  00:5630  00 00 01 00 01 01 01 01 01 01 01 02 01 02 01 02 
    1119.  00:5640                      
    1120.  00:5640                      	
    1121.  00:5640                      ;;;;;;;;;;;;;;;;;;;;;;;;;;;
    1122.  00:5640                      enemy5:
    1123.  00:5640  DD 6E 01            	ld	l,(ix+enemy_data.x)
    1124.  00:5643  DD 66 02            	ld	h,(ix+enemy_data.x+1)
    1125.  00:5646  DD 5E 0C            	ld	e,(ix+enemy_data.speed)
    1126.  00:5649  DD 56 0D            	ld	d,(ix+enemy_data.speed+1)
    1127.  00:564C  19                  	add	hl,de
    1128.  00:564D  DD 75 01            	ld  (ix+enemy_data.x),l
    1129.  00:5650  DD 74 02            	ld  (ix+enemy_data.x+1),h
    1130.  00:5653                      	
    1131.  00:5653  DD CB 07 76         	bit 6,(ix+enemy_data.status)
    1132.  00:5657  28 16               	jr  z,.go_right
    1133.  00:5659                      .go_left:
    1134.  00:5659                      
    1135.  00:5659  ED 5B 8E D3         	ld	de,(xmap)
    1136.  00:565D  A7                  	and	a
    1137.  00:565E  ED 52               	sbc	hl,de
    1138.  00:5660  11 E0 FF            	ld	de,-32
    1139.  00:5663  A7                  	and	a
    1140.  00:5664  ED 52               	sbc	hl,de
    1141.  00:5666  F2 83 56            	jp  p,1f
    1142.  00:5669  DD 36 07 00         	ld	(ix+enemy_data.status),0
    1143.  00:566D  18 14               	jr  1f
    1144.  00:566F                      
    1145.  00:566F                      .go_right:
    1146.  00:566F                      
    1147.  00:566F  ED 5B 8E D3         	ld	de,(xmap)
    1148.  00:5673  A7                  	and	a
    1149.  00:5674  ED 52               	sbc	hl,de
    1150.  00:5676  11 20 01            	ld	de,256+32
    1151.  00:5679  A7                  	and	a
    1152.  00:567A  ED 52               	sbc	hl,de
    1153.  00:567C  FA 83 56            	jp  m,1f
    1154.  00:567F  DD 36 07 00         	ld	(ix+enemy_data.status),0
    1155.  00:5683                      1:
    1156.  00:5683                      
    1157.  00:5683  DD 7E 08            	ld	a,(ix+enemy_data.cntr)
    1158.  00:5686  3C                  	inc	a
    1159.  00:5687  DD 77 08            	ld	(ix+enemy_data.cntr),a
    1160.  00:568A  E6 3F               	and	63
    1161.  00:568C  6F                  	ld	l,a
    1162.  00:568D  26 56               	ld	h,high sinewave
    1163.  00:568F  7E                  	ld	a,(hl)
    1164.  00:5690  DD 86 00            	add	a,(ix+enemy_data.y)
    1165.  00:5693  DD 77 00            	ld	(ix+enemy_data.y),a
    1166.  00:5696                      	
    1167.  00:5696  CD 65 4D            	call	rand8
    1168.  00:5699  A7                  	and		a
    1169.  00:569A  CC B4 57            	call	z,book_enemy_shoot
    1170.  00:569D                      
    1171.  00:569D  CD 80 47            	call	test_collision_msbullets
    1172.  00:56A0  D2 0F 53            	jp	nc,next
    1173.  00:56A3  C3 18 53            	jp 	npcdies
    1174.  00:56A6                      
    1175.  00:56A6                      
    1176.  00:56A6                      ;;;;;;;;;;;;;;;;;;;;;;;;;;;
    1177.  00:56A6                      enemy6:
    1178.  00:56A6  DD 6E 01            	ld	l,(ix+enemy_data.x)
    1179.  00:56A9  DD 66 02            	ld	h,(ix+enemy_data.x+1)
    1180.  00:56AC  DD 5E 0C            	ld	e,(ix+enemy_data.speed)
    1181.  00:56AF  DD 56 0D            	ld	d,(ix+enemy_data.speed+1)
    1182.  00:56B2  19                  	add	hl,de
    1183.  00:56B3  DD 75 01            	ld  (ix+enemy_data.x),l
    1184.  00:56B6  DD 74 02            	ld  (ix+enemy_data.x+1),h
    1185.  00:56B9                      	
    1186.  00:56B9  DD CB 07 76         	bit 6,(ix+enemy_data.status)
    1187.  00:56BD  28 1E               	jr  z,.go_right
    1188.  00:56BF                      .go_left:
    1189.  00:56BF  CD 08 55            	call	rotate
    1190.  00:56C2  C6 C4               	add	a,192+4
    1191.  00:56C4  DD 77 0A            	ld	(ix+enemy_data.frame),a
    1192.  00:56C7  ED 5B 8E D3         	ld	de,(xmap)
    1193.  00:56CB  A7                  	and	a
    1194.  00:56CC  ED 52               	sbc	hl,de
    1195.  00:56CE  11 E0 FF            	ld	de,-32
    1196.  00:56D1  A7                  	and	a
    1197.  00:56D2  ED 52               	sbc	hl,de
    1198.  00:56D4  F2 F9 56            	jp  p,1f
    1199.  00:56D7  DD 36 07 00         	ld	(ix+enemy_data.status),0
    1200.  00:56DB  18 1C               	jr  1f
    1201.  00:56DD                      
    1202.  00:56DD                      .go_right:
    1203.  00:56DD  CD 08 55            	call	rotate
    1204.  00:56E0  C6 C0               	add	a,192
    1205.  00:56E2  DD 77 0A            	ld	(ix+enemy_data.frame),a
    1206.  00:56E5                      
    1207.  00:56E5  ED 5B 8E D3         	ld	de,(xmap)
    1208.  00:56E9  A7                  	and	a
    1209.  00:56EA  ED 52               	sbc	hl,de
    1210.  00:56EC  11 20 01            	ld	de,256+32
    1211.  00:56EF  A7                  	and	a
    1212.  00:56F0  ED 52               	sbc	hl,de
    1213.  00:56F2  FA F9 56            	jp  m,1f
    1214.  00:56F5  DD 36 07 00         	ld	(ix+enemy_data.status),0
    1215.  00:56F9                      1:
    1216.  00:56F9  CD 00 47            	call	set_size	; size varies with frame
    1217.  00:56FC                      		
    1218.  00:56FC  DD 7E 00            	ld	a,(ix+enemy_data.y)
    1219.  00:56FF                      
    1220.  00:56FF  DD CB 07 7E         	bit 7,(ix+enemy_data.status)
    1221.  00:5703  28 0B               	jr  z,.go_dwn
    1222.  00:5705                      .go_up:
    1223.  00:5705  3D                  	dec	a
    1224.  00:5706  FE 40               	cp	64
    1225.  00:5708  20 0F               	jr	nz,1f
    1226.  00:570A  DD CB 07 BE         	res	7,(ix+enemy_data.status)
    1227.  00:570E  18 09               	jr	1f
    1228.  00:5710                      .go_dwn:
    1229.  00:5710  3C                  	inc	a
    1230.  00:5711  FE AF               	cp	191-16
    1231.  00:5713  20 04               	jr	nz,1f
    1232.  00:5715  DD CB 07 FE         	set	7,(ix+enemy_data.status)
    1233.  00:5719                      	; jr	1f
    1234.  00:5719                      1:
    1235.  00:5719  DD 77 00            	ld	(ix+enemy_data.y),a
    1236.  00:571C                      
    1237.  00:571C  CD 65 4D            	call	rand8
    1238.  00:571F  E6 7F               	and 	127
    1239.  00:5721  CC B4 57            	call	z,book_enemy_shoot
    1240.  00:5724                      
    1241.  00:5724  CD 80 47            	call	test_collision_msbullets
    1242.  00:5727  D2 0F 53            	jp	nc,next
    1243.  00:572A  C3 18 53            	jp	npcdies
    1244.  00:572D                      	
    1245.  00:572D                      ;;;;;;;;;;;;;;;;;;;;;;;;;;;
    1246.  00:572D                      enemy7:	
    1247.  00:572D  DD 6E 01            	ld	l,(ix+enemy_data.x)
    1248.  00:5730  DD 66 02            	ld	h,(ix+enemy_data.x+1)
    1249.  00:5733  DD 5E 0C            	ld	e,(ix+enemy_data.speed)
    1250.  00:5736  DD 56 0D            	ld	d,(ix+enemy_data.speed+1)
    1251.  00:5739  19                  	add	hl,de
    1252.  00:573A  DD 75 01            	ld  (ix+enemy_data.x),l
    1253.  00:573D  DD 74 02            	ld  (ix+enemy_data.x+1),h
    1254.  00:5740                      	
    1255.  00:5740  DD CB 07 76         	bit 6,(ix+enemy_data.status)
    1256.  00:5744  28 1E               	jr  z,.go_right
    1257.  00:5746                      .go_left:
    1258.  00:5746  CD 08 55            	call	rotate
    1259.  00:5749  C6 C4               	add	a,192+4
    1260.  00:574B  DD 77 0A            	ld	(ix+enemy_data.frame),a
    1261.  00:574E                      
    1262.  00:574E  ED 5B 8E D3         	ld	de,(xmap)
    1263.  00:5752  A7                  	and	a
    1264.  00:5753  ED 52               	sbc	hl,de
    1265.  00:5755  11 E0 FF            	ld	de,-32
    1266.  00:5758  A7                  	and	a
    1267.  00:5759  ED 52               	sbc	hl,de
    1268.  00:575B  F2 80 57            	jp  p,1f
    1269.  00:575E  DD 36 07 00         	ld	(ix+enemy_data.status),0
    1270.  00:5762  18 1C               	jr  1f
    1271.  00:5764                      
    1272.  00:5764                      .go_right:
    1273.  00:5764  CD 08 55            	call	rotate
    1274.  00:5767  C6 C0               	add	a,192
    1275.  00:5769  DD 77 0A            	ld	(ix+enemy_data.frame),a
    1276.  00:576C                      	
    1277.  00:576C  ED 5B 8E D3         	ld	de,(xmap)
    1278.  00:5770  A7                  	and	a
    1279.  00:5771  ED 52               	sbc	hl,de
    1280.  00:5773  11 20 01            	ld	de,256+32
    1281.  00:5776  A7                  	and	a
    1282.  00:5777  ED 52               	sbc	hl,de
    1283.  00:5779  FA 80 57            	jp  m,1f
    1284.  00:577C  DD 36 07 00         	ld	(ix+enemy_data.status),0
    1285.  00:5780                      1:
    1286.  00:5780  CD 00 47            	call	set_size	; size varies with frame
    1287.  00:5783                      
    1288.  00:5783  DD 7E 00            	ld	a,(ix+enemy_data.y)
    1289.  00:5786                      
    1290.  00:5786  DD CB 07 7E         	bit 7,(ix+enemy_data.status)
    1291.  00:578A  28 0B               	jr  z,.go_dwn
    1292.  00:578C                      .go_up:
    1293.  00:578C  3D                  	dec	a
    1294.  00:578D  FE 40               	cp	64
    1295.  00:578F  20 0F               	jr	nz,1f
    1296.  00:5791  DD CB 07 BE         	res	7,(ix+enemy_data.status)
    1297.  00:5795  18 09               	jr	1f
    1298.  00:5797                      .go_dwn:
    1299.  00:5797  3C                  	inc	a
    1300.  00:5798  FE AF               	cp	191-16
    1301.  00:579A  20 04               	jr	nz,1f
    1302.  00:579C  DD CB 07 FE         	set	7,(ix+enemy_data.status)
    1303.  00:57A0                      	; jr	1f
    1304.  00:57A0                      1:
    1305.  00:57A0  DD 77 00            	ld	(ix+enemy_data.y),a
    1306.  00:57A3                      
    1307.  00:57A3  CD 65 4D            	call	rand8
    1308.  00:57A6  E6 7F               	and 	127
    1309.  00:57A8  CC B4 57            	call	z,book_enemy_shoot
    1310.  00:57AB                      
    1311.  00:57AB  CD 80 47            	call	test_collision_msbullets
    1312.  00:57AE  D2 0F 53            	jp	nc,next
    1313.  00:57B1  C3 18 53            	jp 	npcdies
    1314.  00:57B4                      	
    1315.  00:57B4                      
    1316.  00:57B4                      
    1317.  00:57B4                      ; enemy3:
    1318.  00:57B4                      	; bit 6,(ix+enemy_data.status)
    1319.  00:57B4                      	; jr  z,.go_right
    1320.  00:57B4                      ; .go_left:
    1321.  00:57B4                      	; call	rotate
    1322.  00:57B4                      	; add	a,224
    1323.  00:57B4                      	; ld	(ix+enemy_data.frame),a
    1324.  00:57B4                      	; dec (ix+enemy_data.x)
    1325.  00:57B4                      	; ld  a,64-1
    1326.  00:57B4                      	; cp  (ix+enemy_data.x)
    1327.  00:57B4                      	; jr  nz,1f
    1328.  00:57B4                      	; res 6,(ix+enemy_data.status)
    1329.  00:57B4                      	; jr  1f
    1330.  00:57B4                      ; .go_right:
    1331.  00:57B4                      	; call	rotate
    1332.  00:57B4                      	; add	a,240
    1333.  00:57B4                      	; ld	(ix+enemy_data.frame),a
    1334.  00:57B4                      	; inc (ix+enemy_data.x)
    1335.  00:57B4                      	; ld  a,192-16
    1336.  00:57B4                      	; cp  (ix+enemy_data.x)
    1337.  00:57B4                      	; jr  nz,1f
    1338.  00:57B4                      	; set 6,(ix+enemy_data.status)
    1339.  00:57B4                      ; 1:
    1340.  00:57B4                      	; ld	(ix+enemy_data.color),14
    1341.  00:57B4                      	; jp	next
    1342.  00:57B4                      
    1343.  00:57B4                      
    1344.  00:57B4                      
    1345.  00:57B4                      
    1346.  00:57B4                      ; in
    1347.  00:57B4                      ;	IX -> enemy ship
    1348.  00:57B4                      ; out
    1349.  00:57B4                      ;	active bullet in list enem_bullets
    1350.  00:57B4                      
    1351.  00:57B4                      book_enemy_shoot:
    1352.  00:57B4                      	; aim to the manta
    1353.  00:57B4  0E 20               	ld	c,32
    1354.  00:57B6  59                  	ld	e,c
    1355.  00:57B7  3A 90 D3            	ld	a,(yship)
    1356.  00:57BA  47                  	ld	b,a
    1357.  00:57BB  DD 56 00            	ld	d,(ix+enemy_data.y)
    1358.  00:57BE  CD DF 47            	call	CollisionCheck_8b
    1359.  00:57C1  D0                  	ret		nc
    1360.  00:57C2                      
    1361.  00:57C2                      	; avoid shooting from outside the screen	
    1362.  00:57C2  06 00               	ld	b,0
    1363.  00:57C4  DD 6E 01            	ld	l,(ix+enemy_data.x)
    1364.  00:57C7  DD 66 02            	ld	h,(ix+enemy_data.x+1)
    1365.  00:57CA  DD 4E 03            	ld 	c,(ix+enemy_data.xoff)
    1366.  00:57CD  09                  	add hl,bc
    1367.  00:57CE  DD 46 05            	ld 	b,(ix+enemy_data.xsize)
    1368.  00:57D1                      	
    1369.  00:57D1  ED 5B 8E D3         	ld	de,(xmap)
    1370.  00:57D5  0E FF               	ld 	c,255
    1371.  00:57D7  CD CF 47            	call	CalcCollision
    1372.  00:57DA  D0                  	ret		nc
    1373.  00:57DB                      	
    1374.  00:57DB                      
    1375.  00:57DB  FD 21 C1 D3         	ld  iy,enem_bullets
    1376.  00:57DF  11 0E 00            	ld  de,enemy_data
    1377.  00:57E2                      	
    1378.  00:57E2                      	repeat	max_enem_bullets
    1379.  00:57E2                    < 
    1380.  00:57E2                    < 	bit	0,(iy+enemy_data.status)
    1381.  00:57E2                    < 	jr  z,.activate_this
    1382.  00:57E2                    < 	add iy,de
    1383.  00:57E2                    < 
    1384.  00:57E2                    < 	endrepeat
    1384.  00:57E2  FD CB 07 46 28 13 FD 19 FD CB 07 46 28 0B FD 19 
    1384.  00:57F2  FD CB 07 46 28 03 FD 19 
    1385.  00:57FA  C9                  	ret
    1386.  00:57FB                      
    1387.  00:57FB                      .activate_this:
    1388.  00:57FB  DD CB 07 76         	bit 6,(ix+enemy_data.status)
    1389.  00:57FF  20 0F               	jr  nz,.shootsx
    1390.  00:5801                      .shootdx
    1391.  00:5801  FD 36 07 01         	ld  (iy+enemy_data.status),1
    1392.  00:5805                      	; ld  hl,enemy_bullet_speed
    1393.  00:5805                      	; ld	e,(ix+enemy_data.speed)
    1394.  00:5805                      	; ld	d,(ix+enemy_data.speed+1)
    1395.  00:5805                      	; add	hl,de
    1396.  00:5805  DD 6E 0C            	ld	l,(ix+enemy_data.speed)
    1397.  00:5808  DD 66 0D            	ld	h,(ix+enemy_data.speed+1)
    1398.  00:580B  23 23               [enemy_bullet_speed]	inc hl
    1399.  00:580D  C3 1C 58            	jp  1f
    1400.  00:5810                      
    1401.  00:5810                      .shootsx
    1402.  00:5810  FD 36 07 41         	ld  (iy+enemy_data.status),1 + 64
    1403.  00:5814                      	; ld  hl,-enemy_bullet_speed
    1404.  00:5814                      	; ld	e,(ix+enemy_data.speed)
    1405.  00:5814                      	; ld	d,(ix+enemy_data.speed+1)
    1406.  00:5814                      	; add	hl,de
    1407.  00:5814  DD 6E 0C            	ld	l,(ix+enemy_data.speed)
    1408.  00:5817  DD 66 0D            	ld	h,(ix+enemy_data.speed+1)
    1409.  00:581A  2B 2B               [enemy_bullet_speed]	dec hl
    1410.  00:581C                      	
    1411.  00:581C                      1:
    1412.  00:581C  FD 75 0C            	ld  (iy+enemy_data.speed),l
    1413.  00:581F  FD 74 0D            	ld  (iy+enemy_data.speed+1),h
    1414.  00:5822                      
    1415.  00:5822  3E 30               	ld  a,12*4			; it could depend on enemy ship
    1416.  00:5824  FD 77 0A            	ld  (iy+enemy_data.frame),a
    1417.  00:5827                      
    1418.  00:5827  CD 20 47            	call	set_size2	; set  xoff,yoff,xsize,ysize for sprite collision
    1419.  00:582A                      
    1420.  00:582A  DD 6E 01            	ld	l,(ix+enemy_data.x)
    1421.  00:582D  DD 66 02            	ld	h,(ix+enemy_data.x+1)
    1422.  00:5830  FD 75 01            	ld  (iy+enemy_data.x),l
    1423.  00:5833  FD 74 02            	ld  (iy+enemy_data.x+1),h
    1424.  00:5836                      
    1425.  00:5836  DD 7E 00            	ld  a,(ix+enemy_data.y)
    1426.  00:5839  FD 77 00            	ld  (iy+enemy_data.y),a
    1427.  00:583C  FD 36 08 9C         	ld  (iy+enemy_data.cntr),(256+32+24)/enemy_bullet_speed
    1428.  00:5840                      
    1429.  00:5840                      	; ld  (iy+enemy_data.color),11
    1430.  00:5840                      	
    1431.  00:5840  3E 08               	ld a,8			; enemy shoot
    1432.  00:5842  CD 1A 4A            	call AFXPLAY
    1433.  00:5845  C9                  	ret
    1434.  00:5846                      
    1435.  00:5846                      ;;;;;;;;;;;;;;;;;;;;;;;;;;;;;;;;;;;;;;;;;;;;;;;;;;;;;;;;;;;;;;;;;;;;;;
    1436.  00:5846                      ;
    1437.  00:5846                      ; manage active enemy bullets
    1438.  00:5846                      ;
    1439.  00:5846                      
    1440.  00:5846                      enemy_bullet_loop:
    1441.  00:5846                      
    1442.  00:5846  21 6B 4C            	ld	hl,ms_ani
    1443.  00:5849  3A 93 D3            	ld  a,(aniframe)
    1444.  00:584C  4F                  	ld	c,a
    1445.  00:584D  06 00               	ld	b,0
    1446.  00:584F  09                  	add	hl,bc
    1447.  00:5850  7E                  	ld	a,(hl)
    1448.  00:5851  87                  	add	a,a
    1449.  00:5852  87                  	add	a,a
    1450.  00:5853  FD 21 BB 4C         	ld	iy,ms_col_win
    1451.  00:5857  4F                  	ld	c,a
    1452.  00:5858  06 00               	ld	b,0
    1453.  00:585A  FD 09               	add	iy,bc	; iy aims to MS size for current frame
    1454.  00:585C                      
    1455.  00:585C                      	;iy -> [minx(h) maxx(h) miny(h) maxy(h)]
    1456.  00:585C                      
    1457.  00:585C  DD 21 C1 D3         	ld  ix,enem_bullets
    1458.  00:5860  11 0E 00            	ld  de,enemy_data
    1459.  00:5863                      	repeat	max_enem_bullets
    1460.  00:5863                    < 2:
    1461.  00:5863                    < 	exx
    1462.  00:5863                    < 	bit  0,(ix+enemy_data.status)
    1463.  00:5863                    < 	jp  z,1f
    1464.  00:5863                    < 
    1465.  00:5863                    < 	ld  l,(ix+enemy_data.x)
    1466.  00:5863                    < 	ld  h,(ix+enemy_data.x+1)
    1467.  00:5863                    < 	ld  e,(ix+enemy_data.speed)
    1468.  00:5863                    < 	ld  d,(ix+enemy_data.speed+1)
    1469.  00:5863                    < 	add hl,de						; move right or  left
    1470.  00:5863                    < 	ld  (ix+enemy_data.x),l
    1471.  00:5863                    < 	ld  (ix+enemy_data.x+1),h
    1472.  00:5863                    < 
    1473.  00:5863                    < 	ld	a,(ms_state)				; MS is immune to bullets while looping
    1474.  00:5863                    < 	cp	ms_loop_right2left
    1475.  00:5863                    < 	jr	z,3f
    1476.  00:5863                    < 	cp	ms_loop_left2right
    1477.  00:5863                    < 	jr	z,3f
    1478.  00:5863                    < 
    1479.  00:5863                    < 	ld	a,(god_mode)
    1480.  00:5863                    < 	and 	a						
    1481.  00:5863                    < 	call	z,test_collision_enemy_bullets
    1482.  00:5863                    < 	jp	nc,3f
    1483.  00:5863                    < 	res 0,(ix+enemy_data.status)	; turn off this bullet
    1484.  00:5863                    < 	jp	test_obstacles.found		; start ms explosion
    1485.  00:5863                    < 3:
    1486.  00:5863                    < 	dec	(ix+enemy_data.cntr)
    1487.  00:5863                    < 	jp  nz,1f
    1488.  00:5863                    < 	res 0,(ix+enemy_data.status)
    1489.  00:5863                    < 1:
    1490.  00:5863                    < 	exx
    1491.  00:5863                    < 	add ix,de
    1492.  00:5863                    < 	endrepeat
    1492.  00:5863  D9 DD CB 07 46 CA A4 58 DD 6E 01 DD 66 02 DD 5E 
    1492.  00:5873  0C DD 56 0D 19 DD 75 01 DD 74 02 3A 94 D3 FE 08 
    1492.  00:5883  28 15 FE 09 28 11 3A 95 D3 A7 CC 40 47 D2 9A 58 
    1492.  00:5893  DD CB 07 86 C3 30 59 DD 35 08 C2 A4 58 DD CB 07 
    1492.  00:58A3  86 D9 DD 19 D9 DD CB 07 46 CA E8 58 DD 6E 01 DD 
    1492.  00:58B3  66 02 DD 5E 0C DD 56 0D 19 DD 75 01 DD 74 02 3A 
    1492.  00:58C3  94 D3 FE 08 28 15 FE 09 28 11 3A 95 D3 A7 CC 40 
    1492.  00:58D3  47 D2 DE 58 DD CB 07 86 C3 30 59 DD 35 08 C2 E8 
    1492.  00:58E3  58 DD CB 07 86 D9 DD 19 D9 DD CB 07 46 CA 2C 59 
    1492.  00:58F3  DD 6E 01 DD 66 02 DD 5E 0C DD 56 0D 19 DD 75 01 
    1492.  00:5903  DD 74 02 3A 94 D3 FE 08 28 15 FE 09 28 11 3A 95 
    1492.  00:5913  D3 A7 CC 40 47 D2 22 59 DD CB 07 86 C3 30 59 DD 
    1492.  00:5923  35 08 C2 2C 59 DD CB 07 86 D9 DD 19 
    1493.  00:592F  C9                  	ret
    1494.  00:5930                      
    1495.  00:5930                      
    1496.  00:5930                      test_obstacles.found
    1497.  00:5930  C9                  	ret
     376   00:5931                      	
     377   00:5931                      ;-------------------------------------
     378   00:5931                      	
     379   00:5931                      	; page 0,1	
     380   00:5931                      ; _metatable:
     381   00:5931                      	; incbin 	metatable.bin
     382   00:5931                      	
     383   00:5931                      	; page 1
     384   00:5931                      ; _backmap:
     385   00:5931                      	; incbin	backmap.bin
     386   00:5931                      
     387   00:5931                      	; include hwsprites.asm
     388   00:5931                      	
     389   00:5931                      	; include mainhero_LMMM.asm
     390   00:5931                      	; include probe_level.asm
     391   00:5931                      
     392   00:5931                      	page 2,3
     393   02:8000                      _scorebar:	
     394   02:8000  (1800)              	incbin scorebar.bin
     395   02:9800                      	
     396   02:9800  (04)                	page 4
     397   04:A000                      _tiles0:
     398   04:A000  (2000)              	incbin "tiles.bin",0x0000,0x2000
     399   04:C000  (05)                	page 5
     400   05:A000  (2000)              	incbin "tiles.bin",0x2000,0x2000
     401   05:C000  (06)                	page 6
     402   06:A000  (2000)              	incbin "tiles.bin",0x4000,0x2000
     403   06:C000  (07)                	page 7
     404   07:A000  (2000)              	incbin "tiles.bin",0x6000,0x2000
     405   07:C000  (08)                	page 8
     406   08:A000  (2000)              	incbin "tiles.bin",0x8000,0x2000
     407   08:C000  (09)                	page 9
     408   09:A000  (2000)              	incbin "tiles.bin",0xA000,0x2000
     409   09:C000  (0A)                	page 10
     410   0A:A000  (2000)              	incbin "tiles.bin",0xC000,0x2000
     411   0A:C000  (0B)                	page 11
     412   0B:A000  (1900)              	incbin "tiles.bin",0xE000;,0x2000
     413   0B:B900                      	
     414   0B:B900                      	
     415   0B:B900  (0F)                	page 15
     416   0F:A000                      _level:
     417   0F:A000  (0B00)              	incbin "datamap.bin"
     418   0F:AB00  (0F)                	page 15
     419   0F:AB00                      sprtdata:
     420   0F:AB00  (0800)              	incbin 	uridium_rev7.bin
     421   0F:B300                      	
     422   0F:B300                      	page 14,15
     423   0E:8000                      demo_song:
     424   0E:8000                      	org 0x0040
     425   0E:0040                      	include	"demosong.asm"
       1.  0E:0040                      ; Compiled using tt_compile.exe V0.2.1 [30-03-2015]
       2.  0E:0040                      ; Copyright 2015 Richard Cornelisse
       3.  0E:0040                      
       4.  0E:0040                      ; Song: A N A L - M A U L               
       5.  0E:0040                      ; By:   Arr. John Hassink 2009-2013     
       6.  0E:0040                      
       7.  0E:0040                      ;	org $c000
       8.  0E:0040                      
       9.  0E:0040                      ; [ Song start data ]
      10.  0E:0040  06                  	db $06				; Initial song speed.
      11.  0E:0041  39 02               	dw .waveform_start 		; Start of the waveform data.
      12.  0E:0043  39 06               	dw .instrument_start 		; Start of the instrument data.
      13.  0E:0045                      
      14.  0E:0045                      ; [ Song order pointer list ]
      15.  0E:0045                      		dw .track_0,.track_1,.track_2,.track_3,.track_4,.track_5,.track_6,.track_7		; Sequence step 0 /pattern 0
      15.  0E:0045  0C 08 39 08 5D 08 89 08 9A 08 BE 08 DF 08 F0 08 
      16.  0E:0055                      		dw .track_8,.track_9,.track_10,.track_11,.track_12,.track_13,.track_14,.track_15		; Sequence step 1 /pattern 1
      16.  0E:0055  04 09 1B 09 52 09 76 09 8B 09 AD 09 D6 09 E9 09 
      17.  0E:0065                      .restart:
      18.  0E:0065                      		dw .track_16,.track_17,.track_18,.track_19,.track_20,.track_21,.track_22,.track_23		; Sequence step 2 /pattern 2
      18.  0E:0065  FE 09 31 0A 55 0A 72 0A 76 0A 85 0A 9C 0A B7 0A 
      19.  0E:0075                      		dw .track_16,.track_24,.track_25,.track_26,.track_27,.track_28,.track_29,.track_30		; Sequence step 3 /pattern 3
      19.  0E:0075  FE 09 D6 0A FA 0A 13 0B 16 0B 1C 0B 33 0B 4A 0B 
      20.  0E:0085                      		dw .track_16,.track_31,.track_32,.track_26,.track_20,.track_21,.track_33,.track_34		; Sequence step 4 /pattern 4
      20.  0E:0085  FE 09 62 0B 86 0B 13 0B 76 0A 85 0A A1 0B BB 0B 
      21.  0E:0095                      		dw .track_35,.track_36,.track_37,.track_26,.track_38,.track_39,.track_37,.track_40		; Sequence step 5 /pattern 5
      21.  0E:0095  D6 0B 15 0C 35 0C 13 0B 49 0C 5D 0C 35 0C 74 0C 
      22.  0E:00A5                      		dw .track_16,.track_31,.track_41,.track_42,.track_20,.track_21,.track_41,.track_43		; Sequence step 6 /pattern 6
      22.  0E:00A5  FE 09 62 0B 89 0C A4 0C 76 0A 85 0A 89 0C B3 0C 
      23.  0E:00B5                      		dw .track_16,.track_44,.track_45,.track_46,.track_27,.track_28,.track_47,.track_48		; Sequence step 7 /pattern 7
      23.  0E:00B5  FE 09 CF 0C EF 0C 06 0D 16 0B 1C 0B 11 0D 26 0D 
      24.  0E:00C5                      		dw .track_16,.track_31,.track_49,.track_50,.track_51,.track_21,.track_52,.track_53		; Sequence step 8 /pattern 8
      24.  0E:00C5  FE 09 62 0B 3C 0D 57 0D 65 0D 85 0A 71 0D 8B 0D 
      25.  0E:00D5                      		dw .track_54,.track_55,.track_56,.track_57,.track_58,.track_59,.track_56,.track_60		; Sequence step 9 /pattern 9
      25.  0E:00D5  A6 0D E2 0D FE 0D 0B 0E 1B 0E 28 0E FE 0D 42 0E 
      26.  0E:00E5                      		dw .track_61,.track_62,.track_63,.track_19,.track_64,.track_65,.track_66,.track_67		; Sequence step 10 /pattern 10
      26.  0E:00E5  50 0E 7C 0E A3 0E 72 0A C1 0E C9 0E DF 0E EA 0E 
      27.  0E:00F5                      		dw .track_68,.track_69,.track_70,.track_26,.track_71,.track_72,.track_73,.track_74		; Sequence step 11 /pattern 11
      27.  0E:00F5  F7 0E 32 0F 59 0F 13 0B 69 0F 6F 0F 84 0F 8F 0F 
      28.  0E:0105                      		dw .track_75,.track_76,.track_77,.track_26,.track_78,.track_79,.track_80,.track_81		; Sequence step 12 /pattern 12
      28.  0E:0105  9C 0F D4 0F F5 0F 13 0B 10 10 1D 10 36 10 3C 10 
      29.  0E:0115                      		dw .track_82,.track_83,.track_84,.track_26,.track_85,.track_86,.track_87,.track_88		; Sequence step 13 /pattern 13
      29.  0E:0115  44 10 6B 10 B3 10 13 0B BB 10 BE 10 F7 10 FA 10 
      30.  0E:0125                      		dw .track_16,.track_17,.track_18,.track_19,.track_20,.track_21,.track_22,.track_23		; Sequence step 14 /pattern 2
      30.  0E:0125  FE 09 31 0A 55 0A 72 0A 76 0A 85 0A 9C 0A B7 0A 
      31.  0E:0135                      		dw .track_16,.track_24,.track_25,.track_26,.track_27,.track_28,.track_29,.track_30		; Sequence step 15 /pattern 3
      31.  0E:0135  FE 09 D6 0A FA 0A 13 0B 16 0B 1C 0B 33 0B 4A 0B 
      32.  0E:0145                      		dw .track_16,.track_31,.track_32,.track_26,.track_20,.track_21,.track_33,.track_34		; Sequence step 16 /pattern 4
      32.  0E:0145  FE 09 62 0B 86 0B 13 0B 76 0A 85 0A A1 0B BB 0B 
      33.  0E:0155                      		dw .track_35,.track_36,.track_37,.track_26,.track_38,.track_39,.track_37,.track_40		; Sequence step 17 /pattern 5
      33.  0E:0155  D6 0B 15 0C 35 0C 13 0B 49 0C 5D 0C 35 0C 74 0C 
      34.  0E:0165                      		dw .track_16,.track_31,.track_41,.track_42,.track_20,.track_21,.track_41,.track_43		; Sequence step 18 /pattern 6
      34.  0E:0165  FE 09 62 0B 89 0C A4 0C 76 0A 85 0A 89 0C B3 0C 
      35.  0E:0175                      		dw .track_16,.track_44,.track_45,.track_46,.track_27,.track_28,.track_47,.track_48		; Sequence step 19 /pattern 7
      35.  0E:0175  FE 09 CF 0C EF 0C 06 0D 16 0B 1C 0B 11 0D 26 0D 
      36.  0E:0185                      		dw .track_16,.track_31,.track_49,.track_50,.track_51,.track_21,.track_52,.track_53		; Sequence step 20 /pattern 8
      36.  0E:0185  FE 09 62 0B 3C 0D 57 0D 65 0D 85 0A 71 0D 8B 0D 
      37.  0E:0195                      		dw .track_54,.track_55,.track_56,.track_57,.track_58,.track_59,.track_56,.track_60		; Sequence step 21 /pattern 9
      37.  0E:0195  A6 0D E2 0D FE 0D 0B 0E 1B 0E 28 0E FE 0D 42 0E 
      38.  0E:01A5                      		dw .track_61,.track_62,.track_63,.track_19,.track_64,.track_65,.track_66,.track_67		; Sequence step 22 /pattern 10
      38.  0E:01A5  50 0E 7C 0E A3 0E 72 0A C1 0E C9 0E DF 0E EA 0E 
      39.  0E:01B5                      		dw .track_68,.track_69,.track_70,.track_26,.track_71,.track_72,.track_73,.track_74		; Sequence step 23 /pattern 11
      39.  0E:01B5  F7 0E 32 0F 59 0F 13 0B 69 0F 6F 0F 84 0F 8F 0F 
      40.  0E:01C5                      		dw .track_75,.track_76,.track_77,.track_129,.track_78,.track_79,.track_80,.track_81		; Sequence step 24 /pattern 20
      40.  0E:01C5  9C 0F D4 0F F5 0F 45 14 10 10 1D 10 36 10 3C 10 
      41.  0E:01D5                      		dw .track_82,.track_83,.track_89,.track_90,.track_85,.track_86,.track_91,.track_92		; Sequence step 25 /pattern 14
      41.  0E:01D5  44 10 6B 10 FE 10 09 11 BB 10 BE 10 0E 11 18 11 
      42.  0E:01E5                      		dw .track_93,.track_94,.track_95,.track_96,.track_97,.track_21,.track_95,.track_98		; Sequence step 26 /pattern 15
      42.  0E:01E5  23 11 55 11 74 11 7D 11 9A 11 85 0A 74 11 A5 11 
      43.  0E:01F5                      		dw .track_99,.track_100,.track_101,.track_102,.track_103,.track_28,.track_104,.track_105		; Sequence step 27 /pattern 16
      43.  0E:01F5  B2 11 E9 11 08 12 1A 12 35 12 1C 0B 40 12 50 12 
      44.  0E:0205                      		dw .track_106,.track_107,.track_108,.track_109,.track_110,.track_111,.track_112,.track_113		; Sequence step 28 /pattern 17
      44.  0E:0205  62 12 94 12 B3 12 C6 12 E1 12 EA 12 01 13 11 13 
      45.  0E:0215                      		dw .track_114,.track_115,.track_116,.track_117,.track_118,.track_119,.track_120,.track_121		; Sequence step 29 /pattern 18
      45.  0E:0215  29 13 58 13 7A 13 8A 13 A5 13 B2 13 CB 13 D8 13 
      46.  0E:0225                      		dw .track_122,.track_123,.track_124,.track_125,.track_126,.track_127,.track_128,.track_128		; Sequence step 30 /pattern 19
      46.  0E:0225  E8 13 0E 14 1E 14 25 14 33 14 37 14 43 14 43 14 
      47.  0E:0235  00 00 65 00         		dw 0x0000, .restart			; End of sequence delimiter + restart address.
      48.  0E:0239                      
      49.  0E:0239                      .waveform_start:
      50.  0E:0239                      	db $00,$70,$50,$20,$50,$70,$30,$00,$50,$7F,$60,$10,$30,$40,$00,$B0,$10,$60,$00,$E0,$F0,$00,$B0,$90,$C0,$10,$E0,$A0,$C0,$F0,$C0,$A0	; Waveform 0
      50.  0E:0239  00 70 50 20 50 70 30 00 50 7F 60 10 30 40 00 B0 
      50.  0E:0249  10 60 00 E0 F0 00 B0 90 C0 10 E0 A0 C0 F0 C0 A0 
      51.  0E:0259                      	db $30,$50,$50,$30,$00,$00,$10,$40,$60,$70,$60,$30,$F0,$E0,$E0,$00,$20,$20,$10,$C0,$A0,$90,$A0,$C0,$00,$00,$D0,$B0,$B0,$D0,$00,$00	; Waveform 1
      51.  0E:0259  30 50 50 30 00 00 10 40 60 70 60 30 F0 E0 E0 00 
      51.  0E:0269  20 20 10 C0 A0 90 A0 C0 00 00 D0 B0 B0 D0 00 00 
      52.  0E:0279                      	db $00,$20,$30,$40,$50,$58,$60,$68,$70,$68,$60,$58,$50,$40,$30,$20,$00,$E0,$D0,$C0,$B0,$A0,$98,$90,$88,$90,$98,$A0,$B0,$C0,$D0,$E0	; Waveform 2
      52.  0E:0279  00 20 30 40 50 58 60 68 70 68 60 58 50 40 30 20 
      52.  0E:0289  00 E0 D0 C0 B0 A0 98 90 88 90 98 A0 B0 C0 D0 E0 
      53.  0E:0299                      	db $00,$19,$31,$47,$5A,$6A,$75,$7D,$7F,$7D,$75,$6A,$5A,$47,$31,$19,$00,$E0,$C0,$A0,$80,$A0,$C0,$E0,$00,$20,$40,$60,$7F,$60,$40,$20	; Waveform 3
      53.  0E:0299  00 19 31 47 5A 6A 75 7D 7F 7D 75 6A 5A 47 31 19 
      53.  0E:02A9  00 E0 C0 A0 80 A0 C0 E0 00 20 40 60 7F 60 40 20 
      54.  0E:02B9                      	db $00,$4E,$62,$6D,$75,$7A,$7D,$7E,$7F,$7E,$7D,$7A,$75,$6D,$62,$4E,$00,$B1,$9D,$92,$8A,$85,$82,$81,$80,$81,$82,$85,$8A,$92,$9D,$B1	; Waveform 4
      54.  0E:02B9  00 4E 62 6D 75 7A 7D 7E 7F 7E 7D 7A 75 6D 62 4E 
      54.  0E:02C9  00 B1 9D 92 8A 85 82 81 80 81 82 85 8A 92 9D B1 
      55.  0E:02D9                      	db $C0,$C0,$C0,$C0,$C0,$C0,$C0,$C0,$C0,$C0,$C0,$C0,$C0,$C0,$C0,$C0,$3F,$3F,$3F,$3F,$3F,$3F,$3F,$3F,$3F,$3F,$3F,$3F,$3F,$3F,$3F,$7F	; Waveform 5
      55.  0E:02D9  C0 C0 C0 C0 C0 C0 C0 C0 C0 C0 C0 C0 C0 C0 C0 C0 
      55.  0E:02E9  3F 3F 3F 3F 3F 3F 3F 3F 3F 3F 3F 3F 3F 3F 3F 7F 
      56.  0E:02F9                      	db $80,$C8,$20,$7F,$30,$C8,$80,$90,$A8,$C0,$E0,$00,$20,$38,$50,$60,$70,$78,$7C,$7F,$7C,$78,$70,$60,$50,$38,$20,$00,$E0,$C0,$A8,$90	; Waveform 6
      56.  0E:02F9  80 C8 20 7F 30 C8 80 90 A8 C0 E0 00 20 38 50 60 
      56.  0E:0309  70 78 7C 7F 7C 78 70 60 50 38 20 00 E0 C0 A8 90 
      57.  0E:0319                      	db $80,$88,$90,$98,$A0,$B0,$B0,$B8,$C0,$C8,$D0,$D8,$E0,$E8,$F0,$F8,$00,$08,$10,$18,$20,$28,$30,$38,$40,$48,$50,$58,$60,$68,$70,$78	; Waveform 7
      57.  0E:0319  80 88 90 98 A0 B0 B0 B8 C0 C8 D0 D8 E0 E8 F0 F8 
      57.  0E:0329  00 08 10 18 20 28 30 38 40 48 50 58 60 68 70 78 
      58.  0E:0339                      	db $00,$68,$48,$18,$48,$68,$28,$00,$48,$77,$58,$08,$28,$38,$00,$B8,$08,$58,$00,$E8,$F8,$00,$B8,$98,$C8,$08,$E8,$A8,$C8,$F8,$C8,$A8	; Waveform 8
      58.  0E:0339  00 68 48 18 48 68 28 00 48 77 58 08 28 38 00 B8 
      58.  0E:0349  08 58 00 E8 F8 00 B8 98 C8 08 E8 A8 C8 F8 C8 A8 
      59.  0E:0359                      	db $A0,$90,$90,$A0,$A0,$B0,$B0,$B0,$C0,$C0,$D0,$D0,$E0,$E0,$F0,$F0,$00,$00,$10,$10,$20,$20,$30,$30,$40,$40,$50,$50,$60,$60,$60,$50	; Waveform 9
      59.  0E:0359  A0 90 90 A0 A0 B0 B0 B0 C0 C0 D0 D0 E0 E0 F0 F0 
      59.  0E:0369  00 00 10 10 20 20 30 30 40 40 50 50 60 60 60 50 
      60.  0E:0379                      	db $00,$F8,$F0,$E8,$E0,$D8,$D0,$C8,$C0,$B8,$B0,$A8,$A0,$98,$90,$88,$80,$7F,$70,$68,$60,$58,$50,$48,$40,$38,$30,$28,$20,$18,$10,$08	; Waveform 10
      60.  0E:0379  00 F8 F0 E8 E0 D8 D0 C8 C0 B8 B0 A8 A0 98 90 88 
      60.  0E:0389  80 7F 70 68 60 58 50 48 40 38 30 28 20 18 10 08 
      61.  0E:0399                      	db $00,$00,$00,$00,$00,$40,$40,$00,$00,$B0,$B0,$B0,$00,$00,$00,$00,$40,$40,$40,$00,$B0,$B0,$00,$00,$00,$00,$40,$40,$00,$00,$B0,$B0	; Waveform 11
      61.  0E:0399  00 00 00 00 00 40 40 00 00 B0 B0 B0 00 00 00 00 
      61.  0E:03A9  40 40 40 00 B0 B0 00 00 00 00 40 40 00 00 B0 B0 
      62.  0E:03B9                      	db $00,$20,$30,$40,$50,$58,$60,$68,$70,$68,$60,$58,$50,$40,$30,$20,$00,$E0,$D0,$C0,$B0,$A0,$98,$90,$88,$90,$98,$A0,$B0,$C0,$D0,$E0	; Waveform 12
      62.  0E:03B9  00 20 30 40 50 58 60 68 70 68 60 58 50 40 30 20 
      62.  0E:03C9  00 E0 D0 C0 B0 A0 98 90 88 90 98 A0 B0 C0 D0 E0 
      63.  0E:03D9                      	db $00,$7F,$00,$80,$A0,$C0,$D8,$F0,$08,$20,$30,$40,$50,$60,$70,$78,$7C,$7F,$7C,$78,$70,$60,$50,$40,$30,$20,$08,$F0,$D8,$C0,$A0,$80	; Waveform 13
      63.  0E:03D9  00 7F 00 80 A0 C0 D8 F0 08 20 30 40 50 60 70 78 
      63.  0E:03E9  7C 7F 7C 78 70 60 50 40 30 20 08 F0 D8 C0 A0 80 
      64.  0E:03F9                      	db $80,$B0,$C0,$10,$1A,$2A,$2C,$1A,$00,$E0,$D0,$E0,$22,$53,$70,$75,$70,$31,$EA,$80,$88,$8A,$8C,$8E,$00,$7F,$75,$73,$62,$00,$C0,$90	; Waveform 14
      64.  0E:03F9  80 B0 C0 10 1A 2A 2C 1A 00 E0 D0 E0 22 53 70 75 
      64.  0E:0409  70 31 EA 80 88 8A 8C 8E 00 7F 75 73 62 00 C0 90 
      65.  0E:0419                      	db $80,$8E,$A0,$C0,$E0,$00,$20,$3F,$3E,$3C,$3A,$37,$31,$29,$20,$1C,$10,$00,$E6,$C0,$D0,$00,$20,$3F,$10,$E0,$80,$C0,$00,$20,$00,$90	; Waveform 15
      65.  0E:0419  80 8E A0 C0 E0 00 20 3F 3E 3C 3A 37 31 29 20 1C 
      65.  0E:0429  10 00 E6 C0 D0 00 20 3F 10 E0 80 C0 00 20 00 90 
      66.  0E:0439                      	db $01,$2A,$40,$50,$5C,$68,$70,$78,$7F,$78,$70,$68,$5C,$50,$40,$2A,$FF,$D6,$C0,$B0,$A4,$98,$90,$88,$81,$88,$90,$98,$A4,$B0,$C0,$D6	; Waveform 16
      66.  0E:0439  01 2A 40 50 5C 68 70 78 7F 78 70 68 5C 50 40 2A 
      66.  0E:0449  FF D6 C0 B0 A4 98 90 88 81 88 90 98 A4 B0 C0 D6 
      67.  0E:0459                      	db $00,$40,$7F,$40,$01,$C0,$81,$C0,$01,$40,$7F,$40,$01,$C0,$01,$40,$01,$E0,$01,$20,$01,$F0,$01,$10,$01,$FF,$FF,$FF,$FF,$40,$40,$40	; Waveform 17
      67.  0E:0459  00 40 7F 40 01 C0 81 C0 01 40 7F 40 01 C0 01 40 
      67.  0E:0469  01 E0 01 20 01 F0 01 10 01 FF FF FF FF 40 40 40 
      68.  0E:0479                      	db $00,$40,$7F,$40,$01,$10,$20,$2D,$37,$44,$4E,$59,$63,$6C,$73,$78,$7C,$7F,$7C,$78,$73,$6C,$59,$4E,$44,$37,$2D,$20,$10,$03,$02,$01	; Waveform 18
      68.  0E:0479  00 40 7F 40 01 10 20 2D 37 44 4E 59 63 6C 73 78 
      68.  0E:0489  7C 7F 7C 78 73 6C 59 4E 44 37 2D 20 10 03 02 01 
      69.  0E:0499                      	db $00,$40,$7F,$40,$10,$01,$EA,$D6,$C3,$B9,$AF,$A4,$9C,$95,$8F,$8A,$86,$83,$81,$83,$86,$8A,$8F,$95,$9C,$A4,$AF,$B9,$C3,$D6,$EA,$FF	; Waveform 19
      69.  0E:0499  00 40 7F 40 10 01 EA D6 C3 B9 AF A4 9C 95 8F 8A 
      69.  0E:04A9  86 83 81 83 86 8A 8F 95 9C A4 AF B9 C3 D6 EA FF 
      70.  0E:04B9                      	db $00,$40,$7F,$40,$00,$C0,$FF,$C0,$05,$EB,$D6,$C3,$B9,$AF,$A4,$9C,$95,$8F,$89,$84,$81,$84,$89,$8F,$95,$9C,$A4,$AF,$B9,$C3,$D6,$EA	; Waveform 20
      70.  0E:04B9  00 40 7F 40 00 C0 FF C0 05 EB D6 C3 B9 AF A4 9C 
      70.  0E:04C9  95 8F 89 84 81 84 89 8F 95 9C A4 AF B9 C3 D6 EA 
      71.  0E:04D9                      	db $00,$F0,$E0,$D0,$C0,$B0,$A0,$90,$80,$80,$80,$80,$80,$80,$80,$80,$80,$80,$80,$80,$80,$80,$80,$80,$7F,$70,$60,$50,$40,$30,$20,$10	; Waveform 21
      71.  0E:04D9  00 F0 E0 D0 C0 B0 A0 90 80 80 80 80 80 80 80 80 
      71.  0E:04E9  80 80 80 80 80 80 80 80 7F 70 60 50 40 30 20 10 
      72.  0E:04F9                      	db $00,$30,$50,$60,$70,$60,$50,$30,$00,$D0,$B0,$A0,$90,$A0,$B0,$D0,$00,$40,$60,$70,$60,$40,$00,$C0,$A0,$90,$A0,$C0,$00,$70,$00,$90	; Waveform 22
      72.  0E:04F9  00 30 50 60 70 60 50 30 00 D0 B0 A0 90 A0 B0 D0 
      72.  0E:0509  00 40 60 70 60 40 00 C0 A0 90 A0 C0 00 70 00 90 
      73.  0E:0519                      	db $30,$50,$50,$30,$00,$00,$10,$40,$60,$70,$60,$30,$F0,$E0,$E0,$00,$20,$20,$10,$C0,$A0,$90,$A0,$C0,$00,$00,$D0,$B0,$B0,$D0,$00,$00	; Waveform 23
      73.  0E:0519  30 50 50 30 00 00 10 40 60 70 60 30 F0 E0 E0 00 
      73.  0E:0529  20 20 10 C0 A0 90 A0 C0 00 00 D0 B0 B0 D0 00 00 
      74.  0E:0539                      	db $A0,$90,$90,$A0,$A0,$B0,$B0,$B0,$C0,$C0,$D0,$D0,$E0,$E0,$F0,$F0,$00,$00,$10,$10,$20,$20,$30,$30,$40,$40,$50,$50,$60,$60,$60,$50	; Waveform 24
      74.  0E:0539  A0 90 90 A0 A0 B0 B0 B0 C0 C0 D0 D0 E0 E0 F0 F0 
      74.  0E:0549  00 00 10 10 20 20 30 30 40 40 50 50 60 60 60 50 
      75.  0E:0559                      	db $00,$7F,$00,$80,$A0,$C0,$D8,$F0,$08,$20,$30,$40,$50,$60,$70,$78,$7C,$7F,$7C,$78,$70,$60,$50,$40,$30,$20,$08,$F0,$D8,$C0,$A0,$80	; Waveform 25
      75.  0E:0559  00 7F 00 80 A0 C0 D8 F0 08 20 30 40 50 60 70 78 
      75.  0E:0569  7C 7F 7C 78 70 60 50 40 30 20 08 F0 D8 C0 A0 80 
      76.  0E:0579                      	db $7F,$80,$7F,$80,$7F,$80,$7F,$80,$7F,$80,$7F,$80,$7F,$80,$7F,$80,$7F,$80,$7F,$80,$7F,$80,$7F,$80,$7F,$80,$7F,$80,$7F,$80,$7F,$80	; Waveform 26
      76.  0E:0579  7F 80 7F 80 7F 80 7F 80 7F 80 7F 80 7F 80 7F 80 
      76.  0E:0589  7F 80 7F 80 7F 80 7F 80 7F 80 7F 80 7F 80 7F 80 
      77.  0E:0599                      	db $7F,$80,$7F,$80,$7F,$80,$7F,$80,$00,$00,$00,$00,$00,$00,$00,$00,$00,$00,$00,$00,$00,$00,$00,$00,$7F,$80,$7F,$80,$7F,$80,$7F,$80	; Waveform 27
      77.  0E:0599  7F 80 7F 80 7F 80 7F 80 00 00 00 00 00 00 00 00 
      77.  0E:05A9  00 00 00 00 00 00 00 00 7F 80 7F 80 7F 80 7F 80 
      78.  0E:05B9                      	db $00,$70,$50,$20,$50,$70,$30,$00,$50,$7F,$60,$10,$30,$40,$00,$B0,$10,$60,$00,$E0,$F0,$00,$B0,$90,$C0,$10,$E0,$A0,$C0,$F0,$C0,$A0	; Waveform 28
      78.  0E:05B9  00 70 50 20 50 70 30 00 50 7F 60 10 30 40 00 B0 
      78.  0E:05C9  10 60 00 E0 F0 00 B0 90 C0 10 E0 A0 C0 F0 C0 A0 
      79.  0E:05D9                      	db $80,$88,$90,$98,$A0,$B0,$B0,$B8,$C0,$C8,$D0,$D8,$E0,$E8,$F0,$F8,$00,$08,$10,$18,$20,$28,$30,$38,$40,$48,$50,$58,$60,$68,$70,$78	; Waveform 29
      79.  0E:05D9  80 88 90 98 A0 B0 B0 B8 C0 C8 D0 D8 E0 E8 F0 F8 
      79.  0E:05E9  00 08 10 18 20 28 30 38 40 48 50 58 60 68 70 78 
      80.  0E:05F9                      	db $00,$00,$00,$00,$00,$78,$78,$00,$00,$80,$80,$80,$00,$00,$00,$00,$78,$78,$78,$00,$80,$80,$00,$00,$00,$00,$78,$78,$00,$00,$80,$80	; Waveform 30
      80.  0E:05F9  00 00 00 00 00 78 78 00 00 80 80 80 00 00 00 00 
      80.  0E:0609  78 78 78 00 80 80 00 00 00 00 78 78 00 00 80 80 
      81.  0E:0619                      	db $00,$00,$00,$00,$00,$00,$00,$00,$00,$00,$00,$00,$00,$00,$00,$00,$00,$00,$00,$00,$00,$00,$00,$00,$00,$00,$00,$00,$00,$00,$00,$00	; Waveform 31
      81.  0E:0619  00 00 00 00 00 00 00 00 00 00 00 00 00 00 00 00 
      81.  0E:0629  00 00 00 00 00 00 00 00 00 00 00 00 00 00 00 00 
      82.  0E:0639                      
      83.  0E:0639                      .instrument_start:
      84.  0E:0639                      	dw .ins_1,.ins_2,.ins_3,.ins_4,.ins_5,.ins_6,.ins_7,.ins_8,.ins_9,.ins_10,.ins_11,.ins_12,.ins_13,.ins_14,.ins_15,.ins_16,.ins_17,.ins_18,.ins_19,.ins_20,.ins_21,.ins_22,.ins_23,.ins_24,.ins_25,.ins_26,.ins_27,.ins_28,.ins_29,.ins_30,.ins_31
      84.  0E:0639  77 06 AB 06 C5 06 C5 06 F5 06 25 07 55 07 55 07 
      84.  0E:0649  55 07 55 07 55 07 55 07 55 07 55 07 89 07 89 07 
      84.  0E:0659  C1 07 C9 07 DB 07 ED 07 F3 07 00 08 08 08 08 08 
      84.  0E:0669  08 08 08 08 08 08 08 08 08 08 08 08 08 08 
      85.  0E:0677                      .ins_1:						; Violin          
      86.  0E:0677  01                  		db 1					; Waveform
      87.  0E:0678  12                  		db .rst_i1-(.ins_1 +2)		; Restart
      88.  0E:0679  11 0A               		db $11,$0A
      89.  0E:067B  11 0A               		db $11,$0A
      90.  0E:067D  11 0B               		db $11,$0B
      91.  0E:067F  11 0B               		db $11,$0B
      92.  0E:0681  11 0C               		db $11,$0C
      93.  0E:0683  11 0C               		db $11,$0C
      94.  0E:0685  11 0C               		db $11,$0C
      95.  0E:0687  11 0A               		db $11,$0A
      96.  0E:0689  11 09               		db $11,$09
      97.  0E:068B                      .rst_i1:
      98.  0E:068B  15 08 01 00         		db $15,$08,$01,$00
      99.  0E:068F  15 08 02 00         		db $15,$08,$02,$00
     100.  0E:0693  15 07 FE FF         		db $15,$07,$FE,$FF
     101.  0E:0697  15 07 FF FF         		db $15,$07,$FF,$FF
     102.  0E:069B  15 07 FF FF         		db $15,$07,$FF,$FF
     103.  0E:069F  15 07 FE FF         		db $15,$07,$FE,$FF
     104.  0E:06A3  15 07 02 00         		db $15,$07,$02,$00
     105.  0E:06A7  1D 07 01 00         		db $1D,$07,$01,$00
     106.  0E:06AB                      .ins_2:						; Guitar          
     107.  0E:06AB  02                  		db 2					; Waveform
     108.  0E:06AC  12                  		db .rst_i2-(.ins_2 +2)		; Restart
     109.  0E:06AD  11 0C               		db $11,$0C
     110.  0E:06AF  11 0B               		db $11,$0B
     111.  0E:06B1  11 0C               		db $11,$0C
     112.  0E:06B3  11 0B               		db $11,$0B
     113.  0E:06B5  11 0B               		db $11,$0B
     114.  0E:06B7  11 0B               		db $11,$0B
     115.  0E:06B9  11 0B               		db $11,$0B
     116.  0E:06BB  11 0A               		db $11,$0A
     117.  0E:06BD  11 09               		db $11,$09
     118.  0E:06BF                      .rst_i2:
     119.  0E:06BF  11 08               		db $11,$08
     120.  0E:06C1  11 08               		db $11,$08
     121.  0E:06C3  19 08               		db $19,$08
     122.  0E:06C5                      .ins_3:						; Piano           
     123.  0E:06C5                      .ins_4:						; Flute           
     124.  0E:06C5  04                  		db 4					; Waveform
     125.  0E:06C6  16                  		db .rst_i4-(.ins_4 +2)		; Restart
     126.  0E:06C7  11 03               		db $11,$03
     127.  0E:06C9  11 03               		db $11,$03
     128.  0E:06CB  11 04               		db $11,$04
     129.  0E:06CD  11 04               		db $11,$04
     130.  0E:06CF  11 05               		db $11,$05
     131.  0E:06D1  11 05               		db $11,$05
     132.  0E:06D3  11 06               		db $11,$06
     133.  0E:06D5  11 06               		db $11,$06
     134.  0E:06D7  11 07               		db $11,$07
     135.  0E:06D9  11 07               		db $11,$07
     136.  0E:06DB  11 06               		db $11,$06
     137.  0E:06DD                      .rst_i4:
     138.  0E:06DD  15 05 01 00         		db $15,$05,$01,$00
     139.  0E:06E1  15 05 02 00         		db $15,$05,$02,$00
     140.  0E:06E5  15 05 FD FF         		db $15,$05,$FD,$FF
     141.  0E:06E9  15 05 FF FF         		db $15,$05,$FF,$FF
     142.  0E:06ED  15 05 FE FF         		db $15,$05,$FE,$FF
     143.  0E:06F1  1D 05 03 00         		db $1D,$05,$03,$00
     144.  0E:06F5                      .ins_5:						; Clarinet        
     145.  0E:06F5  05                  		db 5					; Waveform
     146.  0E:06F6  12                  		db .rst_i5-(.ins_5 +2)		; Restart
     147.  0E:06F7  11 0D               		db $11,$0D
     148.  0E:06F9  11 0A               		db $11,$0A
     149.  0E:06FB  11 0C               		db $11,$0C
     150.  0E:06FD  11 0B               		db $11,$0B
     151.  0E:06FF  11 0B               		db $11,$0B
     152.  0E:0701  11 0B               		db $11,$0B
     153.  0E:0703  11 0B               		db $11,$0B
     154.  0E:0705  11 0A               		db $11,$0A
     155.  0E:0707  11 09               		db $11,$09
     156.  0E:0709                      .rst_i5:
     157.  0E:0709  11 08               		db $11,$08
     158.  0E:070B  11 08               		db $11,$08
     159.  0E:070D  15 08 01 00         		db $15,$08,$01,$00
     160.  0E:0711  15 08 02 00         		db $15,$08,$02,$00
     161.  0E:0715  15 08 FD FF         		db $15,$08,$FD,$FF
     162.  0E:0719  15 08 FF FF         		db $15,$08,$FF,$FF
     163.  0E:071D  15 08 FE FF         		db $15,$08,$FE,$FF
     164.  0E:0721  1D 08 03 00         		db $1D,$08,$03,$00
     165.  0E:0725                      .ins_6:						; Oboe            
     166.  0E:0725  06                  		db 6					; Waveform
     167.  0E:0726  12                  		db .rst_i6-(.ins_6 +2)		; Restart
     168.  0E:0727  11 0C               		db $11,$0C
     169.  0E:0729  11 0A               		db $11,$0A
     170.  0E:072B  11 0C               		db $11,$0C
     171.  0E:072D  11 0B               		db $11,$0B
     172.  0E:072F  11 0B               		db $11,$0B
     173.  0E:0731  11 0B               		db $11,$0B
     174.  0E:0733  11 0B               		db $11,$0B
     175.  0E:0735  11 0A               		db $11,$0A
     176.  0E:0737  11 09               		db $11,$09
     177.  0E:0739                      .rst_i6:
     178.  0E:0739  11 08               		db $11,$08
     179.  0E:073B  11 08               		db $11,$08
     180.  0E:073D  15 07 01 00         		db $15,$07,$01,$00
     181.  0E:0741  15 07 02 00         		db $15,$07,$02,$00
     182.  0E:0745  15 07 FD FF         		db $15,$07,$FD,$FF
     183.  0E:0749  15 07 FF FF         		db $15,$07,$FF,$FF
     184.  0E:074D  15 07 FE FF         		db $15,$07,$FE,$FF
     185.  0E:0751  1D 07 03 00         		db $1D,$07,$03,$00
     186.  0E:0755                      .ins_7:						; Trumpet         
     187.  0E:0755                      .ins_8:						; Organ           
     188.  0E:0755                      .ins_9:						; Horn            
     189.  0E:0755                      .ins_10:						; Synth           
     190.  0E:0755                      .ins_11:						; Harpsichord     
     191.  0E:0755                      .ins_12:						; Vibraphone      
     192.  0E:0755                      .ins_13:						; Synth Bass      
     193.  0E:0755                      .ins_14:						; Acoustic Bass   
     194.  0E:0755  0E                  		db 14					; Waveform
     195.  0E:0756  12                  		db .rst_i14-(.ins_14 +2)		; Restart
     196.  0E:0757  11 0C               		db $11,$0C
     197.  0E:0759  11 0B               		db $11,$0B
     198.  0E:075B  11 0C               		db $11,$0C
     199.  0E:075D  11 0B               		db $11,$0B
     200.  0E:075F  11 0B               		db $11,$0B
     201.  0E:0761  11 0B               		db $11,$0B
     202.  0E:0763  11 0B               		db $11,$0B
     203.  0E:0765  11 0A               		db $11,$0A
     204.  0E:0767  11 09               		db $11,$09
     205.  0E:0769                      .rst_i14:
     206.  0E:0769  15 08 01 00         		db $15,$08,$01,$00
     207.  0E:076D  15 08 02 00         		db $15,$08,$02,$00
     208.  0E:0771  15 07 FE FF         		db $15,$07,$FE,$FF
     209.  0E:0775  15 07 FF FF         		db $15,$07,$FF,$FF
     210.  0E:0779  15 07 FF FF         		db $15,$07,$FF,$FF
     211.  0E:077D  15 07 FE FF         		db $15,$07,$FE,$FF
     212.  0E:0781  15 07 02 00         		db $15,$07,$02,$00
     213.  0E:0785  1D 07 01 00         		db $1D,$07,$01,$00
     214.  0E:0789                      .ins_15:						; Electric Guitar 
     215.  0E:0789                      .ins_16:						; USER            
     216.  0E:0789  0E                  		db 14					; Waveform
     217.  0E:078A  16                  		db .rst_i16-(.ins_16 +2)		; Restart
     218.  0E:078B  15 0F 28 01         		db $15,$0F,$28,$01
     219.  0E:078F  15 0B D8 FE         		db $15,$0B,$D8,$FE
     220.  0E:0793  11 0C               		db $11,$0C
     221.  0E:0795  11 0B               		db $11,$0B
     222.  0E:0797  11 0B               		db $11,$0B
     223.  0E:0799  11 0B               		db $11,$0B
     224.  0E:079B  11 0B               		db $11,$0B
     225.  0E:079D  11 0A               		db $11,$0A
     226.  0E:079F  11 09               		db $11,$09
     227.  0E:07A1                      .rst_i16:
     228.  0E:07A1  15 08 01 00         		db $15,$08,$01,$00
     229.  0E:07A5  15 08 02 00         		db $15,$08,$02,$00
     230.  0E:07A9  15 07 FE FF         		db $15,$07,$FE,$FF
     231.  0E:07AD  15 07 FF FF         		db $15,$07,$FF,$FF
     232.  0E:07B1  15 07 FF FF         		db $15,$07,$FF,$FF
     233.  0E:07B5  15 07 FE FF         		db $15,$07,$FE,$FF
     234.  0E:07B9  15 07 02 00         		db $15,$07,$02,$00
     235.  0E:07BD  1D 07 01 00         		db $1D,$07,$01,$00
     236.  0E:07C1                      .ins_17:						; Bass drum       
     237.  0E:07C1  1F                  		db 31					; Waveform
     238.  0E:07C2  04                  		db .rst_i17-(.ins_17 +2)		; Restart
     239.  0E:07C3  15 0F 28 01         		db $15,$0F,$28,$01
     240.  0E:07C7                      .rst_i17:
     241.  0E:07C7  09 00               		db $09,$00
     242.  0E:07C9                      .ins_18:						; Snare drum      
     243.  0E:07C9  1F                  		db 31					; Waveform
     244.  0E:07CA  0E                  		db .rst_i18-(.ins_18 +2)		; Restart
     245.  0E:07CB  91 0F               		db $91,$0F
     246.  0E:07CD  91 0E               		db $91,$0E
     247.  0E:07CF  81 0E               		db $81,$0E
     248.  0E:07D1  81 0E               		db $81,$0E
     249.  0E:07D3  81 0C               		db $81,$0C
     250.  0E:07D5  81 0C               		db $81,$0C
     251.  0E:07D7  81 0C               		db $81,$0C
     252.  0E:07D9                      .rst_i18:
     253.  0E:07D9  8B FF               		db $8B,$FF
     254.  0E:07DB                      .ins_19:						; Tom             
     255.  0E:07DB  1F                  		db 31					; Waveform
     256.  0E:07DC  0C                  		db .rst_i19-(.ins_19 +2)		; Restart
     257.  0E:07DD  15 0F 2F 00         		db $15,$0F,$2F,$00
     258.  0E:07E1  15 0E 2F 00         		db $15,$0E,$2F,$00
     259.  0E:07E5  15 0D 2F 00         		db $15,$0D,$2F,$00
     260.  0E:07E9                      .rst_i19:
     261.  0E:07E9  1F FF 2F 00         		db $1F,$FF,$2F,$00
     262.  0E:07ED                      .ins_20:						; Closed hi-hat   
     263.  0E:07ED  1F                  		db 31					; Waveform
     264.  0E:07EE  02                  		db .rst_i20-(.ins_20 +2)		; Restart
     265.  0E:07EF  81 0E               		db $81,$0E
     266.  0E:07F1                      .rst_i20:
     267.  0E:07F1  09 00               		db $09,$00
     268.  0E:07F3                      .ins_21:						; Cymbal          
     269.  0E:07F3  1F                  		db 31					; Waveform
     270.  0E:07F4  09                  		db .rst_i21-(.ins_21 +2)		; Restart
     271.  0E:07F5  E1 0E 01            		db $E1,$0E,$01
     272.  0E:07F8  E1 0B 01            		db $E1,$0B,$01
     273.  0E:07FB  E1 0B 01            		db $E1,$0B,$01
     274.  0E:07FE                      .rst_i21:
     275.  0E:07FE  8B FF               		db $8B,$FF
     276.  0E:0800                      .ins_22:						; Open hi-hat     
     277.  0E:0800  1F                  		db 31					; Waveform
     278.  0E:0801  04                  		db .rst_i22-(.ins_22 +2)		; Restart
     279.  0E:0802  81 0F               		db $81,$0F
     280.  0E:0804  81 0D               		db $81,$0D
     281.  0E:0806                      .rst_i22:
     282.  0E:0806  8B FF               		db $8B,$FF
     283.  0E:0808                      .ins_23:						;                 
     284.  0E:0808                      .ins_24:						;                 
     285.  0E:0808                      .ins_25:						;                 
     286.  0E:0808                      .ins_26:						;                 
     287.  0E:0808                      .ins_27:						;                 
     288.  0E:0808                      .ins_28:						;                 
     289.  0E:0808                      .ins_29:						;                 
     290.  0E:0808                      .ins_30:						;                 
     291.  0E:0808                      .ins_31:						;                 
     292.  0E:0808  00                  		db 0					; Waveform
     293.  0E:0809  00                  		db .rst_i31-(.ins_31 +2)		; Restart
     294.  0E:080A                      .rst_i31:
     295.  0E:080A  09 00               		db $09,$00
     296.  0E:080C                      
     297.  0E:080C                      ; [ Song track data ]
     298.  0E:080C                      .track_0:
     299.  0E:080C  34                  	db $34		;[Note] 53
     300.  0E:080D  6F                  	db $6F		;[Volume] 15
     301.  0E:080E  84                  	db $84		;[Instrument] 21
     302.  0E:080F  CF                  	db $CF		;[Wait] 16
     303.  0E:0810  26                  	db $26		;[Note] 39
     304.  0E:0811  82                  	db $82		;[Instrument] 19
     305.  0E:0812  C2                  	db $C2		;[Wait] 3
     306.  0E:0813  26                  	db $26		;[Note] 39
     307.  0E:0814  67                  	db $67		;[Volume] 7
     308.  0E:0815                      				;[Skip delay] 3
     309.  0E:0815  22                  	db $22		;[Note] 35
     310.  0E:0816  6F                  	db $6F		;[Volume] 15
     311.  0E:0817                      				;[Skip delay] 3
     312.  0E:0817  22                  	db $22		;[Note] 35
     313.  0E:0818  67                  	db $67		;[Volume] 7
     314.  0E:0819                      				;[Skip delay] 3
     315.  0E:0819  1E                  	db $1E		;[Note] 31
     316.  0E:081A  6F                  	db $6F		;[Volume] 15
     317.  0E:081B                      				;[Skip delay] 3
     318.  0E:081B  1E                  	db $1E		;[Note] 31
     319.  0E:081C  67                  	db $67		;[Volume] 7
     320.  0E:081D  C0                  	db $C0		;[Wait] 1
     321.  0E:081E  23                  	db $23		;[Note] 36
     322.  0E:081F  6F                  	db $6F		;[Volume] 15
     323.  0E:0820  84                  	db $84		;[Instrument] 21
     324.  0E:0821  CF                  	db $CF		;[Wait] 16
     325.  0E:0822  2A                  	db $2A		;[Note] 43
     326.  0E:0823  82                  	db $82		;[Instrument] 19
     327.  0E:0824  C1                  	db $C1		;[Wait] 2
     328.  0E:0825  2A                  	db $2A		;[Note] 43
     329.  0E:0826  C2                  	db $C2		;[Wait] 3
     330.  0E:0827  2A                  	db $2A		;[Note] 43
     331.  0E:0828  67                  	db $67		;[Volume] 7
     332.  0E:0829  C0                  	db $C0		;[Wait] 1
     333.  0E:082A  26                  	db $26		;[Note] 39
     334.  0E:082B  6F                  	db $6F		;[Volume] 15
     335.  0E:082C  C2                  	db $C2		;[Wait] 3
     336.  0E:082D  26                  	db $26		;[Note] 39
     337.  0E:082E  67                  	db $67		;[Volume] 7
     338.  0E:082F  C0                  	db $C0		;[Wait] 1
     339.  0E:0830  26                  	db $26		;[Note] 39
     340.  0E:0831  6F                  	db $6F		;[Volume] 15
     341.  0E:0832  C1                  	db $C1		;[Wait] 2
     342.  0E:0833  22                  	db $22		;[Note] 35
     343.  0E:0834  C2                  	db $C2		;[Wait] 3
     344.  0E:0835  22                  	db $22		;[Note] 35
     345.  0E:0836  67                  	db $67		;[Volume] 7
     346.  0E:0837  C0                  	db $C0		;[Wait] 1
     347.  0E:0838  BF                  	db $BF		;[End-Of-Track]
     348.  0E:0839                      .track_1:
     349.  0E:0839  17                  	db $17		;[Note] 24
     350.  0E:083A  6E                  	db $6E		;[Volume] 14
     351.  0E:083B  7D                  	db $7D		;[Instrument] 14
     352.  0E:083C  CE                  	db $CE		;[Wait] 15
     353.  0E:083D  60                  	db $60		;[Note] 97
     354.  0E:083E  C0                  	db $C0		;[Wait] 1
     355.  0E:083F  17                  	db $17		;[Note] 24
     356.  0E:0840  C4                  	db $C4		;[Wait] 5
     357.  0E:0841  60                  	db $60		;[Note] 97
     358.  0E:0842  C0                  	db $C0		;[Wait] 1
     359.  0E:0843  17                  	db $17		;[Note] 24
     360.  0E:0844  C1                  	db $C1		;[Wait] 2
     361.  0E:0845  23                  	db $23		;[Note] 36
     362.  0E:0846  83                  	db $83		;[Instrument] 20
     363.  0E:0847                      				;[Skip delay] 2
     364.  0E:0847  23                  	db $23		;[Note] 36
     365.  0E:0848                      				;[Skip delay] 2
     366.  0E:0848  17                  	db $17		;[Note] 24
     367.  0E:0849  7D                  	db $7D		;[Instrument] 14
     368.  0E:084A                      				;[Skip delay] 2
     369.  0E:084A  23                  	db $23		;[Note] 36
     370.  0E:084B  83                  	db $83		;[Instrument] 20
     371.  0E:084C                      				;[Skip delay] 2
     372.  0E:084C  19                  	db $19		;[Note] 26
     373.  0E:084D  7D                  	db $7D		;[Instrument] 14
     374.  0E:084E  CD                  	db $CD		;[Wait] 14
     375.  0E:084F  60                  	db $60		;[Note] 97
     376.  0E:0850  C1                  	db $C1		;[Wait] 2
     377.  0E:0851  19                  	db $19		;[Note] 26
     378.  0E:0852  C4                  	db $C4		;[Wait] 5
     379.  0E:0853  60                  	db $60		;[Note] 97
     380.  0E:0854  C0                  	db $C0		;[Wait] 1
     381.  0E:0855  1A                  	db $1A		;[Note] 27
     382.  0E:0856  C1                  	db $C1		;[Wait] 2
     383.  0E:0857  26                  	db $26		;[Note] 39
     384.  0E:0858  83                  	db $83		;[Instrument] 20
     385.  0E:0859  C3                  	db $C3		;[Wait] 4
     386.  0E:085A  1C                  	db $1C		;[Note] 29
     387.  0E:085B  7D                  	db $7D		;[Instrument] 14
     388.  0E:085C                      				;[Skip delay] 4
     389.  0E:085C  BF                  	db $BF		;[End-Of-Track]
     390.  0E:085D                      .track_2:
     391.  0E:085D  60                  	db $60		;[Note] 97
     392.  0E:085E  6F                  	db $6F		;[Volume] 15
     393.  0E:085F  70                  	db $70		;[Instrument] 1
     394.  0E:0860  9E 00               	db $9E, $00	; short arp
     395.  0E:0862  C2                  	db $C2		;[Wait] 3
     396.  0E:0863  2F                  	db $2F		;[Note] 48
     397.  0E:0864  67                  	db $67		;[Volume] 7
     398.  0E:0865  71                  	db $71		;[Instrument] 2
     399.  0E:0866  95 03               	db $95, $03	; track detune
     400.  0E:0868  C1                  	db $C1		;[Wait] 2
     401.  0E:0869  2A                  	db $2A		;[Note] 43
     402.  0E:086A                      				;[Skip delay] 2
     403.  0E:086A  26                  	db $26		;[Note] 39
     404.  0E:086B                      				;[Skip delay] 2
     405.  0E:086B  2A                  	db $2A		;[Note] 43
     406.  0E:086C                      				;[Skip delay] 2
     407.  0E:086C  2F                  	db $2F		;[Note] 48
     408.  0E:086D                      				;[Skip delay] 2
     409.  0E:086D  2A                  	db $2A		;[Note] 43
     410.  0E:086E                      				;[Skip delay] 2
     411.  0E:086E  2F                  	db $2F		;[Note] 48
     412.  0E:086F                      				;[Skip delay] 2
     413.  0E:086F  32                  	db $32		;[Note] 51
     414.  0E:0870                      				;[Skip delay] 2
     415.  0E:0870  2F                  	db $2F		;[Note] 48
     416.  0E:0871                      				;[Skip delay] 2
     417.  0E:0871  31                  	db $31		;[Note] 50
     418.  0E:0872                      				;[Skip delay] 2
     419.  0E:0872  2F                  	db $2F		;[Note] 48
     420.  0E:0873                      				;[Skip delay] 2
     421.  0E:0873  32                  	db $32		;[Note] 51
     422.  0E:0874                      				;[Skip delay] 2
     423.  0E:0874  36                  	db $36		;[Note] 55
     424.  0E:0875                      				;[Skip delay] 2
     425.  0E:0875  32                  	db $32		;[Note] 51
     426.  0E:0876                      				;[Skip delay] 2
     427.  0E:0876  34                  	db $34		;[Note] 53
     428.  0E:0877                      				;[Skip delay] 2
     429.  0E:0877  2F                  	db $2F		;[Note] 48
     430.  0E:0878                      				;[Skip delay] 2
     431.  0E:0878  31                  	db $31		;[Note] 50
     432.  0E:0879                      				;[Skip delay] 2
     433.  0E:0879  28                  	db $28		;[Note] 41
     434.  0E:087A                      				;[Skip delay] 2
     435.  0E:087A  2D                  	db $2D		;[Note] 46
     436.  0E:087B                      				;[Skip delay] 2
     437.  0E:087B  2F                  	db $2F		;[Note] 48
     438.  0E:087C                      				;[Skip delay] 2
     439.  0E:087C  31                  	db $31		;[Note] 50
     440.  0E:087D                      				;[Skip delay] 2
     441.  0E:087D  32                  	db $32		;[Note] 51
     442.  0E:087E                      				;[Skip delay] 2
     443.  0E:087E  34                  	db $34		;[Note] 53
     444.  0E:087F                      				;[Skip delay] 2
     445.  0E:087F  36                  	db $36		;[Note] 55
     446.  0E:0880                      				;[Skip delay] 2
     447.  0E:0880  31                  	db $31		;[Note] 50
     448.  0E:0881                      				;[Skip delay] 2
     449.  0E:0881  34                  	db $34		;[Note] 53
     450.  0E:0882                      				;[Skip delay] 2
     451.  0E:0882  31                  	db $31		;[Note] 50
     452.  0E:0883                      				;[Skip delay] 2
     453.  0E:0883  36                  	db $36		;[Note] 55
     454.  0E:0884                      				;[Skip delay] 2
     455.  0E:0884  39                  	db $39		;[Note] 58
     456.  0E:0885                      				;[Skip delay] 2
     457.  0E:0885  37                  	db $37		;[Note] 56
     458.  0E:0886                      				;[Skip delay] 2
     459.  0E:0886  32                  	db $32		;[Note] 51
     460.  0E:0887  C0                  	db $C0		;[Wait] 1
     461.  0E:0888  BF                  	db $BF		;[End-Of-Track]
     462.  0E:0889                      .track_3:
     463.  0E:0889  1E                  	db $1E		;[Note] 31
     464.  0E:088A  6F                  	db $6F		;[Volume] 15
     465.  0E:088B  74                  	db $74		;[Instrument] 5
     466.  0E:088C  CF                  	db $CF		;[Wait] 16
     467.  0E:088D  1E                  	db $1E		;[Note] 31
     468.  0E:088E  C5                  	db $C5		;[Wait] 6
     469.  0E:088F  21                  	db $21		;[Note] 34
     470.  0E:0890                      				;[Skip delay] 6
     471.  0E:0890  23                  	db $23		;[Note] 36
     472.  0E:0891  C3                  	db $C3		;[Wait] 4
     473.  0E:0892  21                  	db $21		;[Note] 34
     474.  0E:0893  CF                  	db $CF		;[Wait] 16
     475.  0E:0894  25                  	db $25		;[Note] 38
     476.  0E:0895  C5                  	db $C5		;[Wait] 6
     477.  0E:0896  21                  	db $21		;[Note] 34
     478.  0E:0897                      				;[Skip delay] 6
     479.  0E:0897  25                  	db $25		;[Note] 38
     480.  0E:0898  C3                  	db $C3		;[Wait] 4
     481.  0E:0899  BF                  	db $BF		;[End-Of-Track]
     482.  0E:089A                      .track_4:
     483.  0E:089A  2F                  	db $2F		;[Note] 48
     484.  0E:089B  6D                  	db $6D		;[Volume] 13
     485.  0E:089C  71                  	db $71		;[Instrument] 2
     486.  0E:089D  C1                  	db $C1		;[Wait] 2
     487.  0E:089E  2A                  	db $2A		;[Note] 43
     488.  0E:089F                      				;[Skip delay] 2
     489.  0E:089F  26                  	db $26		;[Note] 39
     490.  0E:08A0                      				;[Skip delay] 2
     491.  0E:08A0  2A                  	db $2A		;[Note] 43
     492.  0E:08A1                      				;[Skip delay] 2
     493.  0E:08A1  2F                  	db $2F		;[Note] 48
     494.  0E:08A2                      				;[Skip delay] 2
     495.  0E:08A2  2A                  	db $2A		;[Note] 43
     496.  0E:08A3                      				;[Skip delay] 2
     497.  0E:08A3  2F                  	db $2F		;[Note] 48
     498.  0E:08A4                      				;[Skip delay] 2
     499.  0E:08A4  32                  	db $32		;[Note] 51
     500.  0E:08A5                      				;[Skip delay] 2
     501.  0E:08A5  2F                  	db $2F		;[Note] 48
     502.  0E:08A6                      				;[Skip delay] 2
     503.  0E:08A6  31                  	db $31		;[Note] 50
     504.  0E:08A7                      				;[Skip delay] 2
     505.  0E:08A7  2F                  	db $2F		;[Note] 48
     506.  0E:08A8                      				;[Skip delay] 2
     507.  0E:08A8  32                  	db $32		;[Note] 51
     508.  0E:08A9                      				;[Skip delay] 2
     509.  0E:08A9  36                  	db $36		;[Note] 55
     510.  0E:08AA                      				;[Skip delay] 2
     511.  0E:08AA  32                  	db $32		;[Note] 51
     512.  0E:08AB                      				;[Skip delay] 2
     513.  0E:08AB  34                  	db $34		;[Note] 53
     514.  0E:08AC                      				;[Skip delay] 2
     515.  0E:08AC  2F                  	db $2F		;[Note] 48
     516.  0E:08AD                      				;[Skip delay] 2
     517.  0E:08AD  31                  	db $31		;[Note] 50
     518.  0E:08AE                      				;[Skip delay] 2
     519.  0E:08AE  28                  	db $28		;[Note] 41
     520.  0E:08AF                      				;[Skip delay] 2
     521.  0E:08AF  2D                  	db $2D		;[Note] 46
     522.  0E:08B0                      				;[Skip delay] 2
     523.  0E:08B0  2F                  	db $2F		;[Note] 48
     524.  0E:08B1                      				;[Skip delay] 2
     525.  0E:08B1  31                  	db $31		;[Note] 50
     526.  0E:08B2                      				;[Skip delay] 2
     527.  0E:08B2  32                  	db $32		;[Note] 51
     528.  0E:08B3                      				;[Skip delay] 2
     529.  0E:08B3  34                  	db $34		;[Note] 53
     530.  0E:08B4                      				;[Skip delay] 2
     531.  0E:08B4  36                  	db $36		;[Note] 55
     532.  0E:08B5                      				;[Skip delay] 2
     533.  0E:08B5  31                  	db $31		;[Note] 50
     534.  0E:08B6                      				;[Skip delay] 2
     535.  0E:08B6  34                  	db $34		;[Note] 53
     536.  0E:08B7                      				;[Skip delay] 2
     537.  0E:08B7  31                  	db $31		;[Note] 50
     538.  0E:08B8                      				;[Skip delay] 2
     539.  0E:08B8  36                  	db $36		;[Note] 55
     540.  0E:08B9                      				;[Skip delay] 2
     541.  0E:08B9  39                  	db $39		;[Note] 58
     542.  0E:08BA                      				;[Skip delay] 2
     543.  0E:08BA  37                  	db $37		;[Note] 56
     544.  0E:08BB                      				;[Skip delay] 2
     545.  0E:08BB  32                  	db $32		;[Note] 51
     546.  0E:08BC                      				;[Skip delay] 2
     547.  0E:08BC  34                  	db $34		;[Note] 53
     548.  0E:08BD                      				;[Skip delay] 2
     549.  0E:08BD  BF                  	db $BF		;[End-Of-Track]
     550.  0E:08BE                      .track_5:
     551.  0E:08BE  0B                  	db $0B		;[Note] 12
     552.  0E:08BF  6E                  	db $6E		;[Volume] 14
     553.  0E:08C0  7D                  	db $7D		;[Instrument] 14
     554.  0E:08C1  CE                  	db $CE		;[Wait] 15
     555.  0E:08C2  60                  	db $60		;[Note] 97
     556.  0E:08C3  C0                  	db $C0		;[Wait] 1
     557.  0E:08C4  0B                  	db $0B		;[Note] 12
     558.  0E:08C5  C4                  	db $C4		;[Wait] 5
     559.  0E:08C6  60                  	db $60		;[Note] 97
     560.  0E:08C7  C0                  	db $C0		;[Wait] 1
     561.  0E:08C8  0B                  	db $0B		;[Note] 12
     562.  0E:08C9  C3                  	db $C3		;[Wait] 4
     563.  0E:08CA  60                  	db $60		;[Note] 97
     564.  0E:08CB  C1                  	db $C1		;[Wait] 2
     565.  0E:08CC  0B                  	db $0B		;[Note] 12
     566.  0E:08CD  C2                  	db $C2		;[Wait] 3
     567.  0E:08CE  60                  	db $60		;[Note] 97
     568.  0E:08CF  C0                  	db $C0		;[Wait] 1
     569.  0E:08D0  0D                  	db $0D		;[Note] 14
     570.  0E:08D1  CD                  	db $CD		;[Wait] 14
     571.  0E:08D2  60                  	db $60		;[Note] 97
     572.  0E:08D3  C1                  	db $C1		;[Wait] 2
     573.  0E:08D4  0D                  	db $0D		;[Note] 14
     574.  0E:08D5  C3                  	db $C3		;[Wait] 4
     575.  0E:08D6  60                  	db $60		;[Note] 97
     576.  0E:08D7  C1                  	db $C1		;[Wait] 2
     577.  0E:08D8  0E                  	db $0E		;[Note] 15
     578.  0E:08D9  C3                  	db $C3		;[Wait] 4
     579.  0E:08DA  60                  	db $60		;[Note] 97
     580.  0E:08DB  C1                  	db $C1		;[Wait] 2
     581.  0E:08DC  10                  	db $10		;[Note] 17
     582.  0E:08DD  C3                  	db $C3		;[Wait] 4
     583.  0E:08DE  BF                  	db $BF		;[End-Of-Track]
     584.  0E:08DF                      .track_6:
     585.  0E:08DF  23                  	db $23		;[Note] 36
     586.  0E:08E0  6F                  	db $6F		;[Volume] 15
     587.  0E:08E1  74                  	db $74		;[Instrument] 5
     588.  0E:08E2  CF                  	db $CF		;[Wait] 16
     589.  0E:08E3  23                  	db $23		;[Note] 36
     590.  0E:08E4  C5                  	db $C5		;[Wait] 6
     591.  0E:08E5  25                  	db $25		;[Note] 38
     592.  0E:08E6                      				;[Skip delay] 6
     593.  0E:08E6  26                  	db $26		;[Note] 39
     594.  0E:08E7  C3                  	db $C3		;[Wait] 4
     595.  0E:08E8  25                  	db $25		;[Note] 38
     596.  0E:08E9  CF                  	db $CF		;[Wait] 16
     597.  0E:08EA  28                  	db $28		;[Note] 41
     598.  0E:08EB  C5                  	db $C5		;[Wait] 6
     599.  0E:08EC  25                  	db $25		;[Note] 38
     600.  0E:08ED                      				;[Skip delay] 6
     601.  0E:08ED  28                  	db $28		;[Note] 41
     602.  0E:08EE  C3                  	db $C3		;[Wait] 4
     603.  0E:08EF  BF                  	db $BF		;[End-Of-Track]
     604.  0E:08F0                      .track_7:
     605.  0E:08F0  66                  	db $66		;[Volume] 6
     606.  0E:08F1  74                  	db $74		;[Instrument] 5
     607.  0E:08F2  95 03               	db $95, $03	; track detune
     608.  0E:08F4  C2                  	db $C2		;[Wait] 3
     609.  0E:08F5  23                  	db $23		;[Note] 36
     610.  0E:08F6  CF                  	db $CF		;[Wait] 16
     611.  0E:08F7  23                  	db $23		;[Note] 36
     612.  0E:08F8  C5                  	db $C5		;[Wait] 6
     613.  0E:08F9  25                  	db $25		;[Note] 38
     614.  0E:08FA                      				;[Skip delay] 6
     615.  0E:08FA  26                  	db $26		;[Note] 39
     616.  0E:08FB  C3                  	db $C3		;[Wait] 4
     617.  0E:08FC  25                  	db $25		;[Note] 38
     618.  0E:08FD  CF                  	db $CF		;[Wait] 16
     619.  0E:08FE  28                  	db $28		;[Note] 41
     620.  0E:08FF  C5                  	db $C5		;[Wait] 6
     621.  0E:0900  25                  	db $25		;[Note] 38
     622.  0E:0901                      				;[Skip delay] 6
     623.  0E:0901  28                  	db $28		;[Note] 41
     624.  0E:0902  C0                  	db $C0		;[Wait] 1
     625.  0E:0903  BF                  	db $BF		;[End-Of-Track]
     626.  0E:0904                      .track_8:
     627.  0E:0904  23                  	db $23		;[Note] 36
     628.  0E:0905  6F                  	db $6F		;[Volume] 15
     629.  0E:0906  84                  	db $84		;[Instrument] 21
     630.  0E:0907  C7                  	db $C7		;[Wait] 8
     631.  0E:0908  23                  	db $23		;[Note] 36
     632.  0E:0909                      				;[Skip delay] 8
     633.  0E:0909  23                  	db $23		;[Note] 36
     634.  0E:090A                      				;[Skip delay] 8
     635.  0E:090A  23                  	db $23		;[Note] 36
     636.  0E:090B                      				;[Skip delay] 8
     637.  0E:090B  23                  	db $23		;[Note] 36
     638.  0E:090C  C5                  	db $C5		;[Wait] 6
     639.  0E:090D  23                  	db $23		;[Note] 36
     640.  0E:090E                      				;[Skip delay] 6
     641.  0E:090E  23                  	db $23		;[Note] 36
     642.  0E:090F                      				;[Skip delay] 6
     643.  0E:090F  23                  	db $23		;[Note] 36
     644.  0E:0910                      				;[Skip delay] 6
     645.  0E:0910  23                  	db $23		;[Note] 36
     646.  0E:0911  81                  	db $81		;[Instrument] 18
     647.  0E:0912  C2                  	db $C2		;[Wait] 3
     648.  0E:0913  23                  	db $23		;[Note] 36
     649.  0E:0914  67                  	db $67		;[Volume] 7
     650.  0E:0915  C0                  	db $C0		;[Wait] 1
     651.  0E:0916  23                  	db $23		;[Note] 36
     652.  0E:0917  6F                  	db $6F		;[Volume] 15
     653.  0E:0918  84                  	db $84		;[Instrument] 21
     654.  0E:0919  C3                  	db $C3		;[Wait] 4
     655.  0E:091A  BF                  	db $BF		;[End-Of-Track]
     656.  0E:091B                      .track_9:
     657.  0E:091B  1E                  	db $1E		;[Note] 31
     658.  0E:091C  7F                  	db $7F		;[Instrument] 16
     659.  0E:091D  C3                  	db $C3		;[Wait] 4
     660.  0E:091E  1E                  	db $1E		;[Note] 31
     661.  0E:091F  7D                  	db $7D		;[Instrument] 14
     662.  0E:0920  C1                  	db $C1		;[Wait] 2
     663.  0E:0921  1E                  	db $1E		;[Note] 31
     664.  0E:0922                      				;[Skip delay] 2
     665.  0E:0922  1C                  	db $1C		;[Note] 29
     666.  0E:0923  7F                  	db $7F		;[Instrument] 16
     667.  0E:0924  C3                  	db $C3		;[Wait] 4
     668.  0E:0925  1C                  	db $1C		;[Note] 29
     669.  0E:0926  7D                  	db $7D		;[Instrument] 14
     670.  0E:0927  C1                  	db $C1		;[Wait] 2
     671.  0E:0928  1C                  	db $1C		;[Note] 29
     672.  0E:0929                      				;[Skip delay] 2
     673.  0E:0929  1A                  	db $1A		;[Note] 27
     674.  0E:092A  7F                  	db $7F		;[Instrument] 16
     675.  0E:092B  C3                  	db $C3		;[Wait] 4
     676.  0E:092C  1A                  	db $1A		;[Note] 27
     677.  0E:092D  7D                  	db $7D		;[Instrument] 14
     678.  0E:092E  C1                  	db $C1		;[Wait] 2
     679.  0E:092F  1A                  	db $1A		;[Note] 27
     680.  0E:0930                      				;[Skip delay] 2
     681.  0E:0930  19                  	db $19		;[Note] 26
     682.  0E:0931  7F                  	db $7F		;[Instrument] 16
     683.  0E:0932  C3                  	db $C3		;[Wait] 4
     684.  0E:0933  19                  	db $19		;[Note] 26
     685.  0E:0934  7D                  	db $7D		;[Instrument] 14
     686.  0E:0935  C1                  	db $C1		;[Wait] 2
     687.  0E:0936  19                  	db $19		;[Note] 26
     688.  0E:0937                      				;[Skip delay] 2
     689.  0E:0937  1F                  	db $1F		;[Note] 32
     690.  0E:0938  7F                  	db $7F		;[Instrument] 16
     691.  0E:0939  C3                  	db $C3		;[Wait] 4
     692.  0E:093A  1F                  	db $1F		;[Note] 32
     693.  0E:093B  7D                  	db $7D		;[Instrument] 14
     694.  0E:093C  C1                  	db $C1		;[Wait] 2
     695.  0E:093D  1F                  	db $1F		;[Note] 32
     696.  0E:093E                      				;[Skip delay] 2
     697.  0E:093E  1C                  	db $1C		;[Note] 29
     698.  0E:093F  7F                  	db $7F		;[Instrument] 16
     699.  0E:0940  C3                  	db $C3		;[Wait] 4
     700.  0E:0941  1C                  	db $1C		;[Note] 29
     701.  0E:0942  7D                  	db $7D		;[Instrument] 14
     702.  0E:0943  C1                  	db $C1		;[Wait] 2
     703.  0E:0944  1C                  	db $1C		;[Note] 29
     704.  0E:0945                      				;[Skip delay] 2
     705.  0E:0945  21                  	db $21		;[Note] 34
     706.  0E:0946  7F                  	db $7F		;[Instrument] 16
     707.  0E:0947  C3                  	db $C3		;[Wait] 4
     708.  0E:0948  21                  	db $21		;[Note] 34
     709.  0E:0949  C1                  	db $C1		;[Wait] 2
     710.  0E:094A  21                  	db $21		;[Note] 34
     711.  0E:094B  7D                  	db $7D		;[Instrument] 14
     712.  0E:094C                      				;[Skip delay] 2
     713.  0E:094C  25                  	db $25		;[Note] 38
     714.  0E:094D  C3                  	db $C3		;[Wait] 4
     715.  0E:094E  25                  	db $25		;[Note] 38
     716.  0E:094F  C1                  	db $C1		;[Wait] 2
     717.  0E:0950  25                  	db $25		;[Note] 38
     718.  0E:0951                      				;[Skip delay] 2
     719.  0E:0951  BF                  	db $BF		;[End-Of-Track]
     720.  0E:0952                      .track_10:
     721.  0E:0952  C0                  	db $C0		;[Wait] 1
     722.  0E:0953  34                  	db $34		;[Note] 53
     723.  0E:0954  C1                  	db $C1		;[Wait] 2
     724.  0E:0955  36                  	db $36		;[Note] 55
     725.  0E:0956                      				;[Skip delay] 2
     726.  0E:0956  2D                  	db $2D		;[Note] 46
     727.  0E:0957                      				;[Skip delay] 2
     728.  0E:0957  31                  	db $31		;[Note] 50
     729.  0E:0958                      				;[Skip delay] 2
     730.  0E:0958  2D                  	db $2D		;[Note] 46
     731.  0E:0959                      				;[Skip delay] 2
     732.  0E:0959  36                  	db $36		;[Note] 55
     733.  0E:095A                      				;[Skip delay] 2
     734.  0E:095A  31                  	db $31		;[Note] 50
     735.  0E:095B                      				;[Skip delay] 2
     736.  0E:095B  36                  	db $36		;[Note] 55
     737.  0E:095C                      				;[Skip delay] 2
     738.  0E:095C  2D                  	db $2D		;[Note] 46
     739.  0E:095D                      				;[Skip delay] 2
     740.  0E:095D  2A                  	db $2A		;[Note] 43
     741.  0E:095E                      				;[Skip delay] 2
     742.  0E:095E  2D                  	db $2D		;[Note] 46
     743.  0E:095F                      				;[Skip delay] 2
     744.  0E:095F  31                  	db $31		;[Note] 50
     745.  0E:0960                      				;[Skip delay] 2
     746.  0E:0960  2D                  	db $2D		;[Note] 46
     747.  0E:0961                      				;[Skip delay] 2
     748.  0E:0961  31                  	db $31		;[Note] 50
     749.  0E:0962                      				;[Skip delay] 2
     750.  0E:0962  2D                  	db $2D		;[Note] 46
     751.  0E:0963                      				;[Skip delay] 2
     752.  0E:0963  36                  	db $36		;[Note] 55
     753.  0E:0964                      				;[Skip delay] 2
     754.  0E:0964  39                  	db $39		;[Note] 58
     755.  0E:0965                      				;[Skip delay] 2
     756.  0E:0965  37                  	db $37		;[Note] 56
     757.  0E:0966                      				;[Skip delay] 2
     758.  0E:0966  32                  	db $32		;[Note] 51
     759.  0E:0967                      				;[Skip delay] 2
     760.  0E:0967  2F                  	db $2F		;[Note] 48
     761.  0E:0968                      				;[Skip delay] 2
     762.  0E:0968  32                  	db $32		;[Note] 51
     763.  0E:0969                      				;[Skip delay] 2
     764.  0E:0969  37                  	db $37		;[Note] 56
     765.  0E:096A                      				;[Skip delay] 2
     766.  0E:096A  32                  	db $32		;[Note] 51
     767.  0E:096B                      				;[Skip delay] 2
     768.  0E:096B  37                  	db $37		;[Note] 56
     769.  0E:096C                      				;[Skip delay] 2
     770.  0E:096C  3B                  	db $3B		;[Note] 60
     771.  0E:096D                      				;[Skip delay] 2
     772.  0E:096D  39                  	db $39		;[Note] 58
     773.  0E:096E                      				;[Skip delay] 2
     774.  0E:096E  34                  	db $34		;[Note] 53
     775.  0E:096F                      				;[Skip delay] 2
     776.  0E:096F  31                  	db $31		;[Note] 50
     777.  0E:0970                      				;[Skip delay] 2
     778.  0E:0970  2D                  	db $2D		;[Note] 46
     779.  0E:0971                      				;[Skip delay] 2
     780.  0E:0971  31                  	db $31		;[Note] 50
     781.  0E:0972                      				;[Skip delay] 2
     782.  0E:0972  34                  	db $34		;[Note] 53
     783.  0E:0973                      				;[Skip delay] 2
     784.  0E:0973  39                  	db $39		;[Note] 58
     785.  0E:0974  C0                  	db $C0		;[Wait] 1
     786.  0E:0975  BF                  	db $BF		;[End-Of-Track]
     787.  0E:0976                      .track_11:
     788.  0E:0976  25                  	db $25		;[Note] 38
     789.  0E:0977  C1                  	db $C1		;[Wait] 2
     790.  0E:0978  60                  	db $60		;[Note] 97
     791.  0E:0979  C3                  	db $C3		;[Wait] 4
     792.  0E:097A  21                  	db $21		;[Note] 34
     793.  0E:097B  C1                  	db $C1		;[Wait] 2
     794.  0E:097C  25                  	db $25		;[Note] 38
     795.  0E:097D  CF                  	db $CF		;[Wait] 16
     796.  0E:097E  25                  	db $25		;[Note] 38
     797.  0E:097F  C2                  	db $C2		;[Wait] 3
     798.  0E:0980  25                  	db $25		;[Note] 38
     799.  0E:0981                      				;[Skip delay] 3
     800.  0E:0981  25                  	db $25		;[Note] 38
     801.  0E:0982  C1                  	db $C1		;[Wait] 2
     802.  0E:0983  26                  	db $26		;[Note] 39
     803.  0E:0984  CF                  	db $CF		;[Wait] 16
     804.  0E:0985  2A                  	db $2A		;[Note] 43
     805.  0E:0986  C7                  	db $C7		;[Wait] 8
     806.  0E:0987  2D                  	db $2D		;[Note] 46
     807.  0E:0988  C6                  	db $C6		;[Wait] 7
     808.  0E:0989  C0                  	db $C0		;[Wait] 1
     809.  0E:098A  BF                  	db $BF		;[End-Of-Track]
     810.  0E:098B                      .track_12:
     811.  0E:098B  36                  	db $36		;[Note] 55
     812.  0E:098C  C1                  	db $C1		;[Wait] 2
     813.  0E:098D  2D                  	db $2D		;[Note] 46
     814.  0E:098E                      				;[Skip delay] 2
     815.  0E:098E  31                  	db $31		;[Note] 50
     816.  0E:098F                      				;[Skip delay] 2
     817.  0E:098F  2D                  	db $2D		;[Note] 46
     818.  0E:0990                      				;[Skip delay] 2
     819.  0E:0990  36                  	db $36		;[Note] 55
     820.  0E:0991                      				;[Skip delay] 2
     821.  0E:0991  31                  	db $31		;[Note] 50
     822.  0E:0992                      				;[Skip delay] 2
     823.  0E:0992  36                  	db $36		;[Note] 55
     824.  0E:0993                      				;[Skip delay] 2
     825.  0E:0993  2D                  	db $2D		;[Note] 46
     826.  0E:0994                      				;[Skip delay] 2
     827.  0E:0994  2A                  	db $2A		;[Note] 43
     828.  0E:0995                      				;[Skip delay] 2
     829.  0E:0995  2D                  	db $2D		;[Note] 46
     830.  0E:0996                      				;[Skip delay] 2
     831.  0E:0996  31                  	db $31		;[Note] 50
     832.  0E:0997                      				;[Skip delay] 2
     833.  0E:0997  2D                  	db $2D		;[Note] 46
     834.  0E:0998                      				;[Skip delay] 2
     835.  0E:0998  31                  	db $31		;[Note] 50
     836.  0E:0999                      				;[Skip delay] 2
     837.  0E:0999  2D                  	db $2D		;[Note] 46
     838.  0E:099A                      				;[Skip delay] 2
     839.  0E:099A  36                  	db $36		;[Note] 55
     840.  0E:099B                      				;[Skip delay] 2
     841.  0E:099B  39                  	db $39		;[Note] 58
     842.  0E:099C                      				;[Skip delay] 2
     843.  0E:099C  37                  	db $37		;[Note] 56
     844.  0E:099D                      				;[Skip delay] 2
     845.  0E:099D  32                  	db $32		;[Note] 51
     846.  0E:099E                      				;[Skip delay] 2
     847.  0E:099E  2F                  	db $2F		;[Note] 48
     848.  0E:099F                      				;[Skip delay] 2
     849.  0E:099F  32                  	db $32		;[Note] 51
     850.  0E:09A0                      				;[Skip delay] 2
     851.  0E:09A0  37                  	db $37		;[Note] 56
     852.  0E:09A1                      				;[Skip delay] 2
     853.  0E:09A1  32                  	db $32		;[Note] 51
     854.  0E:09A2                      				;[Skip delay] 2
     855.  0E:09A2  37                  	db $37		;[Note] 56
     856.  0E:09A3                      				;[Skip delay] 2
     857.  0E:09A3  3B                  	db $3B		;[Note] 60
     858.  0E:09A4                      				;[Skip delay] 2
     859.  0E:09A4  39                  	db $39		;[Note] 58
     860.  0E:09A5                      				;[Skip delay] 2
     861.  0E:09A5  34                  	db $34		;[Note] 53
     862.  0E:09A6                      				;[Skip delay] 2
     863.  0E:09A6  31                  	db $31		;[Note] 50
     864.  0E:09A7                      				;[Skip delay] 2
     865.  0E:09A7  2D                  	db $2D		;[Note] 46
     866.  0E:09A8                      				;[Skip delay] 2
     867.  0E:09A8  31                  	db $31		;[Note] 50
     868.  0E:09A9                      				;[Skip delay] 2
     869.  0E:09A9  34                  	db $34		;[Note] 53
     870.  0E:09AA                      				;[Skip delay] 2
     871.  0E:09AA  39                  	db $39		;[Note] 58
     872.  0E:09AB                      				;[Skip delay] 2
     873.  0E:09AB  3D                  	db $3D		;[Note] 62
     874.  0E:09AC                      				;[Skip delay] 2
     875.  0E:09AC  BF                  	db $BF		;[End-Of-Track]
     876.  0E:09AD                      .track_13:
     877.  0E:09AD  12                  	db $12		;[Note] 19
     878.  0E:09AE  C3                  	db $C3		;[Wait] 4
     879.  0E:09AF  12                  	db $12		;[Note] 19
     880.  0E:09B0  C1                  	db $C1		;[Wait] 2
     881.  0E:09B1  12                  	db $12		;[Note] 19
     882.  0E:09B2                      				;[Skip delay] 2
     883.  0E:09B2  10                  	db $10		;[Note] 17
     884.  0E:09B3  C3                  	db $C3		;[Wait] 4
     885.  0E:09B4  10                  	db $10		;[Note] 17
     886.  0E:09B5  C1                  	db $C1		;[Wait] 2
     887.  0E:09B6  10                  	db $10		;[Note] 17
     888.  0E:09B7                      				;[Skip delay] 2
     889.  0E:09B7  0E                  	db $0E		;[Note] 15
     890.  0E:09B8  C3                  	db $C3		;[Wait] 4
     891.  0E:09B9  0E                  	db $0E		;[Note] 15
     892.  0E:09BA  C1                  	db $C1		;[Wait] 2
     893.  0E:09BB  0E                  	db $0E		;[Note] 15
     894.  0E:09BC                      				;[Skip delay] 2
     895.  0E:09BC  0D                  	db $0D		;[Note] 14
     896.  0E:09BD  C3                  	db $C3		;[Wait] 4
     897.  0E:09BE  0D                  	db $0D		;[Note] 14
     898.  0E:09BF  C1                  	db $C1		;[Wait] 2
     899.  0E:09C0  0D                  	db $0D		;[Note] 14
     900.  0E:09C1                      				;[Skip delay] 2
     901.  0E:09C1  13                  	db $13		;[Note] 20
     902.  0E:09C2  C3                  	db $C3		;[Wait] 4
     903.  0E:09C3  13                  	db $13		;[Note] 20
     904.  0E:09C4  C1                  	db $C1		;[Wait] 2
     905.  0E:09C5  13                  	db $13		;[Note] 20
     906.  0E:09C6                      				;[Skip delay] 2
     907.  0E:09C6  10                  	db $10		;[Note] 17
     908.  0E:09C7  C3                  	db $C3		;[Wait] 4
     909.  0E:09C8  10                  	db $10		;[Note] 17
     910.  0E:09C9  C1                  	db $C1		;[Wait] 2
     911.  0E:09CA  10                  	db $10		;[Note] 17
     912.  0E:09CB                      				;[Skip delay] 2
     913.  0E:09CB  15                  	db $15		;[Note] 22
     914.  0E:09CC  C3                  	db $C3		;[Wait] 4
     915.  0E:09CD  15                  	db $15		;[Note] 22
     916.  0E:09CE  C1                  	db $C1		;[Wait] 2
     917.  0E:09CF  15                  	db $15		;[Note] 22
     918.  0E:09D0                      				;[Skip delay] 2
     919.  0E:09D0  19                  	db $19		;[Note] 26
     920.  0E:09D1  C3                  	db $C3		;[Wait] 4
     921.  0E:09D2  19                  	db $19		;[Note] 26
     922.  0E:09D3  C1                  	db $C1		;[Wait] 2
     923.  0E:09D4  19                  	db $19		;[Note] 26
     924.  0E:09D5                      				;[Skip delay] 2
     925.  0E:09D5  BF                  	db $BF		;[End-Of-Track]
     926.  0E:09D6                      .track_14:
     927.  0E:09D6  2A                  	db $2A		;[Note] 43
     928.  0E:09D7  C1                  	db $C1		;[Wait] 2
     929.  0E:09D8  60                  	db $60		;[Note] 97
     930.  0E:09D9  C3                  	db $C3		;[Wait] 4
     931.  0E:09DA  25                  	db $25		;[Note] 38
     932.  0E:09DB  C1                  	db $C1		;[Wait] 2
     933.  0E:09DC  2A                  	db $2A		;[Note] 43
     934.  0E:09DD  CF                  	db $CF		;[Wait] 16
     935.  0E:09DE  2A                  	db $2A		;[Note] 43
     936.  0E:09DF  C2                  	db $C2		;[Wait] 3
     937.  0E:09E0  28                  	db $28		;[Note] 41
     938.  0E:09E1                      				;[Skip delay] 3
     939.  0E:09E1  2A                  	db $2A		;[Note] 43
     940.  0E:09E2  C1                  	db $C1		;[Wait] 2
     941.  0E:09E3  2B                  	db $2B		;[Note] 44
     942.  0E:09E4  CF                  	db $CF		;[Wait] 16
     943.  0E:09E5  2D                  	db $2D		;[Note] 46
     944.  0E:09E6  C7                  	db $C7		;[Wait] 8
     945.  0E:09E7  31                  	db $31		;[Note] 50
     946.  0E:09E8                      				;[Skip delay] 8
     947.  0E:09E8  BF                  	db $BF		;[End-Of-Track]
     948.  0E:09E9                      .track_15:
     949.  0E:09E9  C2                  	db $C2		;[Wait] 3
     950.  0E:09EA  2A                  	db $2A		;[Note] 43
     951.  0E:09EB  C1                  	db $C1		;[Wait] 2
     952.  0E:09EC  60                  	db $60		;[Note] 97
     953.  0E:09ED  C3                  	db $C3		;[Wait] 4
     954.  0E:09EE  25                  	db $25		;[Note] 38
     955.  0E:09EF  C1                  	db $C1		;[Wait] 2
     956.  0E:09F0  2A                  	db $2A		;[Note] 43
     957.  0E:09F1  CF                  	db $CF		;[Wait] 16
     958.  0E:09F2  2A                  	db $2A		;[Note] 43
     959.  0E:09F3  C2                  	db $C2		;[Wait] 3
     960.  0E:09F4  28                  	db $28		;[Note] 41
     961.  0E:09F5                      				;[Skip delay] 3
     962.  0E:09F5  2A                  	db $2A		;[Note] 43
     963.  0E:09F6  C1                  	db $C1		;[Wait] 2
     964.  0E:09F7  2B                  	db $2B		;[Note] 44
     965.  0E:09F8  CF                  	db $CF		;[Wait] 16
     966.  0E:09F9  2D                  	db $2D		;[Note] 46
     967.  0E:09FA  C7                  	db $C7		;[Wait] 8
     968.  0E:09FB  31                  	db $31		;[Note] 50
     969.  0E:09FC  C4                  	db $C4		;[Wait] 5
     970.  0E:09FD  BF                  	db $BF		;[End-Of-Track]
     971.  0E:09FE                      .track_16:
     972.  0E:09FE  23                  	db $23		;[Note] 36
     973.  0E:09FF  6F                  	db $6F		;[Volume] 15
     974.  0E:0A00  83                  	db $83		;[Instrument] 20
     975.  0E:0A01  C3                  	db $C3		;[Wait] 4
     976.  0E:0A02  23                  	db $23		;[Note] 36
     977.  0E:0A03                      				;[Skip delay] 4
     978.  0E:0A03  23                  	db $23		;[Note] 36
     979.  0E:0A04  81                  	db $81		;[Instrument] 18
     980.  0E:0A05  C2                  	db $C2		;[Wait] 3
     981.  0E:0A06  23                  	db $23		;[Note] 36
     982.  0E:0A07  67                  	db $67		;[Volume] 7
     983.  0E:0A08  C0                  	db $C0		;[Wait] 1
     984.  0E:0A09  23                  	db $23		;[Note] 36
     985.  0E:0A0A  6F                  	db $6F		;[Volume] 15
     986.  0E:0A0B  83                  	db $83		;[Instrument] 20
     987.  0E:0A0C  C1                  	db $C1		;[Wait] 2
     988.  0E:0A0D  23                  	db $23		;[Note] 36
     989.  0E:0A0E                      				;[Skip delay] 2
     990.  0E:0A0E  23                  	db $23		;[Note] 36
     991.  0E:0A0F  C3                  	db $C3		;[Wait] 4
     992.  0E:0A10  23                  	db $23		;[Note] 36
     993.  0E:0A11                      				;[Skip delay] 4
     994.  0E:0A11  23                  	db $23		;[Note] 36
     995.  0E:0A12  81                  	db $81		;[Instrument] 18
     996.  0E:0A13  C2                  	db $C2		;[Wait] 3
     997.  0E:0A14  23                  	db $23		;[Note] 36
     998.  0E:0A15  67                  	db $67		;[Volume] 7
     999.  0E:0A16  C4                  	db $C4		;[Wait] 5
    1000.  0E:0A17  23                  	db $23		;[Note] 36
    1001.  0E:0A18  6F                  	db $6F		;[Volume] 15
    1002.  0E:0A19  83                  	db $83		;[Instrument] 20
    1003.  0E:0A1A  C3                  	db $C3		;[Wait] 4
    1004.  0E:0A1B  23                  	db $23		;[Note] 36
    1005.  0E:0A1C                      				;[Skip delay] 4
    1006.  0E:0A1C  23                  	db $23		;[Note] 36
    1007.  0E:0A1D  81                  	db $81		;[Instrument] 18
    1008.  0E:0A1E  C2                  	db $C2		;[Wait] 3
    1009.  0E:0A1F  23                  	db $23		;[Note] 36
    1010.  0E:0A20  67                  	db $67		;[Volume] 7
    1011.  0E:0A21  C0                  	db $C0		;[Wait] 1
    1012.  0E:0A22  23                  	db $23		;[Note] 36
    1013.  0E:0A23  6F                  	db $6F		;[Volume] 15
    1014.  0E:0A24  83                  	db $83		;[Instrument] 20
    1015.  0E:0A25  C1                  	db $C1		;[Wait] 2
    1016.  0E:0A26  23                  	db $23		;[Note] 36
    1017.  0E:0A27                      				;[Skip delay] 2
    1018.  0E:0A27  23                  	db $23		;[Note] 36
    1019.  0E:0A28  C3                  	db $C3		;[Wait] 4
    1020.  0E:0A29  23                  	db $23		;[Note] 36
    1021.  0E:0A2A                      				;[Skip delay] 4
    1022.  0E:0A2A  23                  	db $23		;[Note] 36
    1023.  0E:0A2B  81                  	db $81		;[Instrument] 18
    1024.  0E:0A2C  C2                  	db $C2		;[Wait] 3
    1025.  0E:0A2D  23                  	db $23		;[Note] 36
    1026.  0E:0A2E  67                  	db $67		;[Volume] 7
    1027.  0E:0A2F  C4                  	db $C4		;[Wait] 5
    1028.  0E:0A30  BF                  	db $BF		;[End-Of-Track]
    1029.  0E:0A31                      .track_17:
    1030.  0E:0A31  17                  	db $17		;[Note] 24
    1031.  0E:0A32  7F                  	db $7F		;[Instrument] 16
    1032.  0E:0A33  C5                  	db $C5		;[Wait] 6
    1033.  0E:0A34  17                  	db $17		;[Note] 24
    1034.  0E:0A35  C1                  	db $C1		;[Wait] 2
    1035.  0E:0A36  23                  	db $23		;[Note] 36
    1036.  0E:0A37  C3                  	db $C3		;[Wait] 4
    1037.  0E:0A38  17                  	db $17		;[Note] 24
    1038.  0E:0A39                      				;[Skip delay] 4
    1039.  0E:0A39  23                  	db $23		;[Note] 36
    1040.  0E:0A3A                      				;[Skip delay] 4
    1041.  0E:0A3A  21                  	db $21		;[Note] 34
    1042.  0E:0A3B  7D                  	db $7D		;[Instrument] 14
    1043.  0E:0A3C  C1                  	db $C1		;[Wait] 2
    1044.  0E:0A3D  21                  	db $21		;[Note] 34
    1045.  0E:0A3E  80                  	db $80		;[Instrument] 17
    1046.  0E:0A3F                      				;[Skip delay] 2
    1047.  0E:0A3F  1E                  	db $1E		;[Note] 31
    1048.  0E:0A40  7D                  	db $7D		;[Instrument] 14
    1049.  0E:0A41  C3                  	db $C3		;[Wait] 4
    1050.  0E:0A42  23                  	db $23		;[Note] 36
    1051.  0E:0A43  7F                  	db $7F		;[Instrument] 16
    1052.  0E:0A44                      				;[Skip delay] 4
    1053.  0E:0A44  15                  	db $15		;[Note] 22
    1054.  0E:0A45  C5                  	db $C5		;[Wait] 6
    1055.  0E:0A46  15                  	db $15		;[Note] 22
    1056.  0E:0A47  C1                  	db $C1		;[Wait] 2
    1057.  0E:0A48  21                  	db $21		;[Note] 34
    1058.  0E:0A49  C3                  	db $C3		;[Wait] 4
    1059.  0E:0A4A  15                  	db $15		;[Note] 22
    1060.  0E:0A4B                      				;[Skip delay] 4
    1061.  0E:0A4B  21                  	db $21		;[Note] 34
    1062.  0E:0A4C                      				;[Skip delay] 4
    1063.  0E:0A4C  1F                  	db $1F		;[Note] 32
    1064.  0E:0A4D  C1                  	db $C1		;[Wait] 2
    1065.  0E:0A4E  21                  	db $21		;[Note] 34
    1066.  0E:0A4F  80                  	db $80		;[Instrument] 17
    1067.  0E:0A50                      				;[Skip delay] 2
    1068.  0E:0A50  1E                  	db $1E		;[Note] 31
    1069.  0E:0A51  7D                  	db $7D		;[Instrument] 14
    1070.  0E:0A52  C3                  	db $C3		;[Wait] 4
    1071.  0E:0A53  21                  	db $21		;[Note] 34
    1072.  0E:0A54                      				;[Skip delay] 4
    1073.  0E:0A54  BF                  	db $BF		;[End-Of-Track]
    1074.  0E:0A55                      .track_18:
    1075.  0E:0A55  23                  	db $23		;[Note] 36
    1076.  0E:0A56  6F                  	db $6F		;[Volume] 15
    1077.  0E:0A57  70                  	db $70		;[Instrument] 1
    1078.  0E:0A58  9E 00               	db $9E, $00	; short arp
    1079.  0E:0A5A  CB                  	db $CB		;[Wait] 12
    1080.  0E:0A5B  2D                  	db $2D		;[Note] 46
    1081.  0E:0A5C  C0                  	db $C0		;[Wait] 1
    1082.  0E:0A5D  60                  	db $60		;[Note] 97
    1083.  0E:0A5E                      				;[Skip delay] 1
    1084.  0E:0A5E  2F                  	db $2F		;[Note] 48
    1085.  0E:0A5F                      				;[Skip delay] 1
    1086.  0E:0A5F  60                  	db $60		;[Note] 97
    1087.  0E:0A60                      				;[Skip delay] 1
    1088.  0E:0A60  2D                  	db $2D		;[Note] 46
    1089.  0E:0A61  C4                  	db $C4		;[Wait] 5
    1090.  0E:0A62  60                  	db $60		;[Note] 97
    1091.  0E:0A63  C0                  	db $C0		;[Wait] 1
    1092.  0E:0A64  2A                  	db $2A		;[Note] 43
    1093.  0E:0A65  C4                  	db $C4		;[Wait] 5
    1094.  0E:0A66  60                  	db $60		;[Note] 97
    1095.  0E:0A67  C0                  	db $C0		;[Wait] 1
    1096.  0E:0A68  28                  	db $28		;[Note] 41
    1097.  0E:0A69  C3                  	db $C3		;[Wait] 4
    1098.  0E:0A6A  2A                  	db $2A		;[Note] 43
    1099.  0E:0A6B  C2                  	db $C2		;[Wait] 3
    1100.  0E:0A6C  60                  	db $60		;[Note] 97
    1101.  0E:0A6D                      				;[Skip delay] 3
    1102.  0E:0A6D  28                  	db $28		;[Note] 41
    1103.  0E:0A6E  C1                  	db $C1		;[Wait] 2
    1104.  0E:0A6F  2A                  	db $2A		;[Note] 43
    1105.  0E:0A70  D7                  	db $D7		;[Wait] 24
    1106.  0E:0A71  BF                  	db $BF		;[End-Of-Track]
    1107.  0E:0A72                      .track_19:
    1108.  0E:0A72  60                  	db $60		;[Note] 97
    1109.  0E:0A73  FE                  	db $FE		;[Wait] 63
    1110.  0E:0A74  C0                  	db $C0		;[Wait] 1
    1111.  0E:0A75  BF                  	db $BF		;[End-Of-Track]
    1112.  0E:0A76                      .track_20:
    1113.  0E:0A76  2F                  	db $2F		;[Note] 48
    1114.  0E:0A77  6D                  	db $6D		;[Volume] 13
    1115.  0E:0A78  73                  	db $73		;[Instrument] 4
    1116.  0E:0A79  CD                  	db $CD		;[Wait] 14
    1117.  0E:0A7A  60                  	db $60		;[Note] 97
    1118.  0E:0A7B  C1                  	db $C1		;[Wait] 2
    1119.  0E:0A7C  2F                  	db $2F		;[Note] 48
    1120.  0E:0A7D  C5                  	db $C5		;[Wait] 6
    1121.  0E:0A7E  3B                  	db $3B		;[Note] 60
    1122.  0E:0A7F                      				;[Skip delay] 6
    1123.  0E:0A7F  36                  	db $36		;[Note] 55
    1124.  0E:0A80  C3                  	db $C3		;[Wait] 4
    1125.  0E:0A81  39                  	db $39		;[Note] 58
    1126.  0E:0A82  CF                  	db $CF		;[Wait] 16
    1127.  0E:0A83  34                  	db $34		;[Note] 53
    1128.  0E:0A84                      				;[Skip delay] 16
    1129.  0E:0A84  BF                  	db $BF		;[End-Of-Track]
    1130.  0E:0A85                      .track_21:
    1131.  0E:0A85  0B                  	db $0B		;[Note] 12
    1132.  0E:0A86  C5                  	db $C5		;[Wait] 6
    1133.  0E:0A87  0B                  	db $0B		;[Note] 12
    1134.  0E:0A88  C1                  	db $C1		;[Wait] 2
    1135.  0E:0A89  17                  	db $17		;[Note] 24
    1136.  0E:0A8A  C3                  	db $C3		;[Wait] 4
    1137.  0E:0A8B  0B                  	db $0B		;[Note] 12
    1138.  0E:0A8C                      				;[Skip delay] 4
    1139.  0E:0A8C  17                  	db $17		;[Note] 24
    1140.  0E:0A8D                      				;[Skip delay] 4
    1141.  0E:0A8D  15                  	db $15		;[Note] 22
    1142.  0E:0A8E                      				;[Skip delay] 4
    1143.  0E:0A8E  12                  	db $12		;[Note] 19
    1144.  0E:0A8F                      				;[Skip delay] 4
    1145.  0E:0A8F  17                  	db $17		;[Note] 24
    1146.  0E:0A90                      				;[Skip delay] 4
    1147.  0E:0A90  09                  	db $09		;[Note] 10
    1148.  0E:0A91  C5                  	db $C5		;[Wait] 6
    1149.  0E:0A92  09                  	db $09		;[Note] 10
    1150.  0E:0A93  C1                  	db $C1		;[Wait] 2
    1151.  0E:0A94  15                  	db $15		;[Note] 22
    1152.  0E:0A95  C3                  	db $C3		;[Wait] 4
    1153.  0E:0A96  09                  	db $09		;[Note] 10
    1154.  0E:0A97                      				;[Skip delay] 4
    1155.  0E:0A97  15                  	db $15		;[Note] 22
    1156.  0E:0A98                      				;[Skip delay] 4
    1157.  0E:0A98  13                  	db $13		;[Note] 20
    1158.  0E:0A99                      				;[Skip delay] 4
    1159.  0E:0A99  12                  	db $12		;[Note] 19
    1160.  0E:0A9A                      				;[Skip delay] 4
    1161.  0E:0A9A  15                  	db $15		;[Note] 22
    1162.  0E:0A9B                      				;[Skip delay] 4
    1163.  0E:0A9B  BF                  	db $BF		;[End-Of-Track]
    1164.  0E:0A9C                      .track_22:
    1165.  0E:0A9C  23                  	db $23		;[Note] 36
    1166.  0E:0A9D  6F                  	db $6F		;[Volume] 15
    1167.  0E:0A9E  74                  	db $74		;[Instrument] 5
    1168.  0E:0A9F  CB                  	db $CB		;[Wait] 12
    1169.  0E:0AA0  2D                  	db $2D		;[Note] 46
    1170.  0E:0AA1  C0                  	db $C0		;[Wait] 1
    1171.  0E:0AA2  60                  	db $60		;[Note] 97
    1172.  0E:0AA3                      				;[Skip delay] 1
    1173.  0E:0AA3  2F                  	db $2F		;[Note] 48
    1174.  0E:0AA4                      				;[Skip delay] 1
    1175.  0E:0AA4  60                  	db $60		;[Note] 97
    1176.  0E:0AA5                      				;[Skip delay] 1
    1177.  0E:0AA5  2D                  	db $2D		;[Note] 46
    1178.  0E:0AA6  C4                  	db $C4		;[Wait] 5
    1179.  0E:0AA7  60                  	db $60		;[Note] 97
    1180.  0E:0AA8  C0                  	db $C0		;[Wait] 1
    1181.  0E:0AA9  2A                  	db $2A		;[Note] 43
    1182.  0E:0AAA  C4                  	db $C4		;[Wait] 5
    1183.  0E:0AAB  60                  	db $60		;[Note] 97
    1184.  0E:0AAC  C0                  	db $C0		;[Wait] 1
    1185.  0E:0AAD  28                  	db $28		;[Note] 41
    1186.  0E:0AAE  C3                  	db $C3		;[Wait] 4
    1187.  0E:0AAF  2A                  	db $2A		;[Note] 43
    1188.  0E:0AB0  C2                  	db $C2		;[Wait] 3
    1189.  0E:0AB1  60                  	db $60		;[Note] 97
    1190.  0E:0AB2                      				;[Skip delay] 3
    1191.  0E:0AB2  28                  	db $28		;[Note] 41
    1192.  0E:0AB3  C1                  	db $C1		;[Wait] 2
    1193.  0E:0AB4  2A                  	db $2A		;[Note] 43
    1194.  0E:0AB5  D7                  	db $D7		;[Wait] 24
    1195.  0E:0AB6  BF                  	db $BF		;[End-Of-Track]
    1196.  0E:0AB7                      .track_23:
    1197.  0E:0AB7  60                  	db $60		;[Note] 97
    1198.  0E:0AB8  C2                  	db $C2		;[Wait] 3
    1199.  0E:0AB9  23                  	db $23		;[Note] 36
    1200.  0E:0ABA  66                  	db $66		;[Volume] 6
    1201.  0E:0ABB  74                  	db $74		;[Instrument] 5
    1202.  0E:0ABC  95 03               	db $95, $03	; track detune
    1203.  0E:0ABE  CB                  	db $CB		;[Wait] 12
    1204.  0E:0ABF  2D                  	db $2D		;[Note] 46
    1205.  0E:0AC0  C0                  	db $C0		;[Wait] 1
    1206.  0E:0AC1  60                  	db $60		;[Note] 97
    1207.  0E:0AC2                      				;[Skip delay] 1
    1208.  0E:0AC2  2F                  	db $2F		;[Note] 48
    1209.  0E:0AC3                      				;[Skip delay] 1
    1210.  0E:0AC3  60                  	db $60		;[Note] 97
    1211.  0E:0AC4                      				;[Skip delay] 1
    1212.  0E:0AC4  2D                  	db $2D		;[Note] 46
    1213.  0E:0AC5  C4                  	db $C4		;[Wait] 5
    1214.  0E:0AC6  60                  	db $60		;[Note] 97
    1215.  0E:0AC7  C0                  	db $C0		;[Wait] 1
    1216.  0E:0AC8  2A                  	db $2A		;[Note] 43
    1217.  0E:0AC9  C4                  	db $C4		;[Wait] 5
    1218.  0E:0ACA  60                  	db $60		;[Note] 97
    1219.  0E:0ACB  C0                  	db $C0		;[Wait] 1
    1220.  0E:0ACC  28                  	db $28		;[Note] 41
    1221.  0E:0ACD  C3                  	db $C3		;[Wait] 4
    1222.  0E:0ACE  2A                  	db $2A		;[Note] 43
    1223.  0E:0ACF  C2                  	db $C2		;[Wait] 3
    1224.  0E:0AD0  60                  	db $60		;[Note] 97
    1225.  0E:0AD1                      				;[Skip delay] 3
    1226.  0E:0AD1  28                  	db $28		;[Note] 41
    1227.  0E:0AD2  C1                  	db $C1		;[Wait] 2
    1228.  0E:0AD3  2A                  	db $2A		;[Note] 43
    1229.  0E:0AD4  D4                  	db $D4		;[Wait] 21
    1230.  0E:0AD5  BF                  	db $BF		;[End-Of-Track]
    1231.  0E:0AD6                      .track_24:
    1232.  0E:0AD6  13                  	db $13		;[Note] 20
    1233.  0E:0AD7  7F                  	db $7F		;[Instrument] 16
    1234.  0E:0AD8  C5                  	db $C5		;[Wait] 6
    1235.  0E:0AD9  13                  	db $13		;[Note] 20
    1236.  0E:0ADA  C1                  	db $C1		;[Wait] 2
    1237.  0E:0ADB  1F                  	db $1F		;[Note] 32
    1238.  0E:0ADC  C3                  	db $C3		;[Wait] 4
    1239.  0E:0ADD  13                  	db $13		;[Note] 20
    1240.  0E:0ADE                      				;[Skip delay] 4
    1241.  0E:0ADE  1F                  	db $1F		;[Note] 32
    1242.  0E:0ADF                      				;[Skip delay] 4
    1243.  0E:0ADF  1E                  	db $1E		;[Note] 31
    1244.  0E:0AE0  7D                  	db $7D		;[Instrument] 14
    1245.  0E:0AE1  C1                  	db $C1		;[Wait] 2
    1246.  0E:0AE2  1E                  	db $1E		;[Note] 31
    1247.  0E:0AE3  80                  	db $80		;[Instrument] 17
    1248.  0E:0AE4                      				;[Skip delay] 2
    1249.  0E:0AE4  1C                  	db $1C		;[Note] 29
    1250.  0E:0AE5  7D                  	db $7D		;[Instrument] 14
    1251.  0E:0AE6  C3                  	db $C3		;[Wait] 4
    1252.  0E:0AE7  1F                  	db $1F		;[Note] 32
    1253.  0E:0AE8  7F                  	db $7F		;[Instrument] 16
    1254.  0E:0AE9                      				;[Skip delay] 4
    1255.  0E:0AE9  15                  	db $15		;[Note] 22
    1256.  0E:0AEA  C5                  	db $C5		;[Wait] 6
    1257.  0E:0AEB  15                  	db $15		;[Note] 22
    1258.  0E:0AEC  C1                  	db $C1		;[Wait] 2
    1259.  0E:0AED  21                  	db $21		;[Note] 34
    1260.  0E:0AEE  C3                  	db $C3		;[Wait] 4
    1261.  0E:0AEF  15                  	db $15		;[Note] 22
    1262.  0E:0AF0                      				;[Skip delay] 4
    1263.  0E:0AF0  21                  	db $21		;[Note] 34
    1264.  0E:0AF1                      				;[Skip delay] 4
    1265.  0E:0AF1  23                  	db $23		;[Note] 36
    1266.  0E:0AF2  C1                  	db $C1		;[Wait] 2
    1267.  0E:0AF3  23                  	db $23		;[Note] 36
    1268.  0E:0AF4  80                  	db $80		;[Instrument] 17
    1269.  0E:0AF5                      				;[Skip delay] 2
    1270.  0E:0AF5  25                  	db $25		;[Note] 38
    1271.  0E:0AF6  7D                  	db $7D		;[Instrument] 14
    1272.  0E:0AF7  C3                  	db $C3		;[Wait] 4
    1273.  0E:0AF8  21                  	db $21		;[Note] 34
    1274.  0E:0AF9                      				;[Skip delay] 4
    1275.  0E:0AF9  BF                  	db $BF		;[End-Of-Track]
    1276.  0E:0AFA                      .track_25:
    1277.  0E:0AFA  28                  	db $28		;[Note] 41
    1278.  0E:0AFB  CB                  	db $CB		;[Wait] 12
    1279.  0E:0AFC  2A                  	db $2A		;[Note] 43
    1280.  0E:0AFD  C0                  	db $C0		;[Wait] 1
    1281.  0E:0AFE  60                  	db $60		;[Note] 97
    1282.  0E:0AFF                      				;[Skip delay] 1
    1283.  0E:0AFF  2B                  	db $2B		;[Note] 44
    1284.  0E:0B00                      				;[Skip delay] 1
    1285.  0E:0B00  60                  	db $60		;[Note] 97
    1286.  0E:0B01                      				;[Skip delay] 1
    1287.  0E:0B01  2A                  	db $2A		;[Note] 43
    1288.  0E:0B02  C4                  	db $C4		;[Wait] 5
    1289.  0E:0B03  60                  	db $60		;[Note] 97
    1290.  0E:0B04  C0                  	db $C0		;[Wait] 1
    1291.  0E:0B05  28                  	db $28		;[Note] 41
    1292.  0E:0B06  C4                  	db $C4		;[Wait] 5
    1293.  0E:0B07  60                  	db $60		;[Note] 97
    1294.  0E:0B08  C0                  	db $C0		;[Wait] 1
    1295.  0E:0B09  25                  	db $25		;[Note] 38
    1296.  0E:0B0A  C3                  	db $C3		;[Wait] 4
    1297.  0E:0B0B  26                  	db $26		;[Note] 39
    1298.  0E:0B0C  C7                  	db $C7		;[Wait] 8
    1299.  0E:0B0D  28                  	db $28		;[Note] 41
    1300.  0E:0B0E                      				;[Skip delay] 8
    1301.  0E:0B0E  2A                  	db $2A		;[Note] 43
    1302.  0E:0B0F                      				;[Skip delay] 8
    1303.  0E:0B0F  32                  	db $32		;[Note] 51
    1304.  0E:0B10  6B                  	db $6B		;[Volume] 11
    1305.  0E:0B11  84                  	db $84		;[Instrument] 21
    1306.  0E:0B12                      				;[Skip delay] 8
    1307.  0E:0B12  BF                  	db $BF		;[End-Of-Track]
    1308.  0E:0B13                      .track_26:
    1309.  0E:0B13  FE                  	db $FE		;[Wait] 63
    1310.  0E:0B14  C0                  	db $C0		;[Wait] 1
    1311.  0E:0B15  BF                  	db $BF		;[End-Of-Track]
    1312.  0E:0B16                      .track_27:
    1313.  0E:0B16  32                  	db $32		;[Note] 51
    1314.  0E:0B17  CF                  	db $CF		;[Wait] 16
    1315.  0E:0B18  2F                  	db $2F		;[Note] 48
    1316.  0E:0B19                      				;[Skip delay] 16
    1317.  0E:0B19  39                  	db $39		;[Note] 58
    1318.  0E:0B1A                      				;[Skip delay] 16
    1319.  0E:0B1A  34                  	db $34		;[Note] 53
    1320.  0E:0B1B                      				;[Skip delay] 16
    1321.  0E:0B1B  BF                  	db $BF		;[End-Of-Track]
    1322.  0E:0B1C                      .track_28:
    1323.  0E:0B1C  07                  	db $07		;[Note] 8
    1324.  0E:0B1D  C5                  	db $C5		;[Wait] 6
    1325.  0E:0B1E  07                  	db $07		;[Note] 8
    1326.  0E:0B1F  C1                  	db $C1		;[Wait] 2
    1327.  0E:0B20  13                  	db $13		;[Note] 20
    1328.  0E:0B21  C3                  	db $C3		;[Wait] 4
    1329.  0E:0B22  07                  	db $07		;[Note] 8
    1330.  0E:0B23                      				;[Skip delay] 4
    1331.  0E:0B23  13                  	db $13		;[Note] 20
    1332.  0E:0B24                      				;[Skip delay] 4
    1333.  0E:0B24  12                  	db $12		;[Note] 19
    1334.  0E:0B25                      				;[Skip delay] 4
    1335.  0E:0B25  10                  	db $10		;[Note] 17
    1336.  0E:0B26                      				;[Skip delay] 4
    1337.  0E:0B26  13                  	db $13		;[Note] 20
    1338.  0E:0B27                      				;[Skip delay] 4
    1339.  0E:0B27  09                  	db $09		;[Note] 10
    1340.  0E:0B28  C5                  	db $C5		;[Wait] 6
    1341.  0E:0B29  09                  	db $09		;[Note] 10
    1342.  0E:0B2A  C1                  	db $C1		;[Wait] 2
    1343.  0E:0B2B  15                  	db $15		;[Note] 22
    1344.  0E:0B2C  C3                  	db $C3		;[Wait] 4
    1345.  0E:0B2D  09                  	db $09		;[Note] 10
    1346.  0E:0B2E                      				;[Skip delay] 4
    1347.  0E:0B2E  15                  	db $15		;[Note] 22
    1348.  0E:0B2F                      				;[Skip delay] 4
    1349.  0E:0B2F  17                  	db $17		;[Note] 24
    1350.  0E:0B30                      				;[Skip delay] 4
    1351.  0E:0B30  19                  	db $19		;[Note] 26
    1352.  0E:0B31                      				;[Skip delay] 4
    1353.  0E:0B31  15                  	db $15		;[Note] 22
    1354.  0E:0B32                      				;[Skip delay] 4
    1355.  0E:0B32  BF                  	db $BF		;[End-Of-Track]
    1356.  0E:0B33                      .track_29:
    1357.  0E:0B33  28                  	db $28		;[Note] 41
    1358.  0E:0B34  CB                  	db $CB		;[Wait] 12
    1359.  0E:0B35  2A                  	db $2A		;[Note] 43
    1360.  0E:0B36  C0                  	db $C0		;[Wait] 1
    1361.  0E:0B37  60                  	db $60		;[Note] 97
    1362.  0E:0B38                      				;[Skip delay] 1
    1363.  0E:0B38  2B                  	db $2B		;[Note] 44
    1364.  0E:0B39                      				;[Skip delay] 1
    1365.  0E:0B39  60                  	db $60		;[Note] 97
    1366.  0E:0B3A                      				;[Skip delay] 1
    1367.  0E:0B3A  2A                  	db $2A		;[Note] 43
    1368.  0E:0B3B  C4                  	db $C4		;[Wait] 5
    1369.  0E:0B3C  60                  	db $60		;[Note] 97
    1370.  0E:0B3D  C0                  	db $C0		;[Wait] 1
    1371.  0E:0B3E  28                  	db $28		;[Note] 41
    1372.  0E:0B3F  C4                  	db $C4		;[Wait] 5
    1373.  0E:0B40  60                  	db $60		;[Note] 97
    1374.  0E:0B41  C0                  	db $C0		;[Wait] 1
    1375.  0E:0B42  25                  	db $25		;[Note] 38
    1376.  0E:0B43  C3                  	db $C3		;[Wait] 4
    1377.  0E:0B44  26                  	db $26		;[Note] 39
    1378.  0E:0B45  C7                  	db $C7		;[Wait] 8
    1379.  0E:0B46  28                  	db $28		;[Note] 41
    1380.  0E:0B47                      				;[Skip delay] 8
    1381.  0E:0B47  2A                  	db $2A		;[Note] 43
    1382.  0E:0B48  CF                  	db $CF		;[Wait] 16
    1383.  0E:0B49  BF                  	db $BF		;[End-Of-Track]
    1384.  0E:0B4A                      .track_30:
    1385.  0E:0B4A  C2                  	db $C2		;[Wait] 3
    1386.  0E:0B4B  28                  	db $28		;[Note] 41
    1387.  0E:0B4C  CB                  	db $CB		;[Wait] 12
    1388.  0E:0B4D  2A                  	db $2A		;[Note] 43
    1389.  0E:0B4E  C0                  	db $C0		;[Wait] 1
    1390.  0E:0B4F  60                  	db $60		;[Note] 97
    1391.  0E:0B50                      				;[Skip delay] 1
    1392.  0E:0B50  2B                  	db $2B		;[Note] 44
    1393.  0E:0B51                      				;[Skip delay] 1
    1394.  0E:0B51  60                  	db $60		;[Note] 97
    1395.  0E:0B52                      				;[Skip delay] 1
    1396.  0E:0B52  2A                  	db $2A		;[Note] 43
    1397.  0E:0B53  C4                  	db $C4		;[Wait] 5
    1398.  0E:0B54  60                  	db $60		;[Note] 97
    1399.  0E:0B55  C0                  	db $C0		;[Wait] 1
    1400.  0E:0B56  28                  	db $28		;[Note] 41
    1401.  0E:0B57  C4                  	db $C4		;[Wait] 5
    1402.  0E:0B58  60                  	db $60		;[Note] 97
    1403.  0E:0B59  C0                  	db $C0		;[Wait] 1
    1404.  0E:0B5A  25                  	db $25		;[Note] 38
    1405.  0E:0B5B  C3                  	db $C3		;[Wait] 4
    1406.  0E:0B5C  26                  	db $26		;[Note] 39
    1407.  0E:0B5D  C7                  	db $C7		;[Wait] 8
    1408.  0E:0B5E  28                  	db $28		;[Note] 41
    1409.  0E:0B5F                      				;[Skip delay] 8
    1410.  0E:0B5F  2A                  	db $2A		;[Note] 43
    1411.  0E:0B60  CC                  	db $CC		;[Wait] 13
    1412.  0E:0B61  BF                  	db $BF		;[End-Of-Track]
    1413.  0E:0B62                      .track_31:
    1414.  0E:0B62  17                  	db $17		;[Note] 24
    1415.  0E:0B63  7F                  	db $7F		;[Instrument] 16
    1416.  0E:0B64  C5                  	db $C5		;[Wait] 6
    1417.  0E:0B65  17                  	db $17		;[Note] 24
    1418.  0E:0B66  C1                  	db $C1		;[Wait] 2
    1419.  0E:0B67  23                  	db $23		;[Note] 36
    1420.  0E:0B68  C3                  	db $C3		;[Wait] 4
    1421.  0E:0B69  17                  	db $17		;[Note] 24
    1422.  0E:0B6A                      				;[Skip delay] 4
    1423.  0E:0B6A  23                  	db $23		;[Note] 36
    1424.  0E:0B6B                      				;[Skip delay] 4
    1425.  0E:0B6B  21                  	db $21		;[Note] 34
    1426.  0E:0B6C  7D                  	db $7D		;[Instrument] 14
    1427.  0E:0B6D  C1                  	db $C1		;[Wait] 2
    1428.  0E:0B6E  21                  	db $21		;[Note] 34
    1429.  0E:0B6F  80                  	db $80		;[Instrument] 17
    1430.  0E:0B70                      				;[Skip delay] 2
    1431.  0E:0B70  1E                  	db $1E		;[Note] 31
    1432.  0E:0B71  7D                  	db $7D		;[Instrument] 14
    1433.  0E:0B72  C3                  	db $C3		;[Wait] 4
    1434.  0E:0B73  23                  	db $23		;[Note] 36
    1435.  0E:0B74  7F                  	db $7F		;[Instrument] 16
    1436.  0E:0B75                      				;[Skip delay] 4
    1437.  0E:0B75  15                  	db $15		;[Note] 22
    1438.  0E:0B76  C5                  	db $C5		;[Wait] 6
    1439.  0E:0B77  15                  	db $15		;[Note] 22
    1440.  0E:0B78  C1                  	db $C1		;[Wait] 2
    1441.  0E:0B79  21                  	db $21		;[Note] 34
    1442.  0E:0B7A  C3                  	db $C3		;[Wait] 4
    1443.  0E:0B7B  15                  	db $15		;[Note] 22
    1444.  0E:0B7C                      				;[Skip delay] 4
    1445.  0E:0B7C  21                  	db $21		;[Note] 34
    1446.  0E:0B7D                      				;[Skip delay] 4
    1447.  0E:0B7D  1F                  	db $1F		;[Note] 32
    1448.  0E:0B7E  C1                  	db $C1		;[Wait] 2
    1449.  0E:0B7F  1F                  	db $1F		;[Note] 32
    1450.  0E:0B80  80                  	db $80		;[Instrument] 17
    1451.  0E:0B81                      				;[Skip delay] 2
    1452.  0E:0B81  1E                  	db $1E		;[Note] 31
    1453.  0E:0B82  7D                  	db $7D		;[Instrument] 14
    1454.  0E:0B83  C3                  	db $C3		;[Wait] 4
    1455.  0E:0B84  21                  	db $21		;[Note] 34
    1456.  0E:0B85                      				;[Skip delay] 4
    1457.  0E:0B85  BF                  	db $BF		;[End-Of-Track]
    1458.  0E:0B86                      .track_32:
    1459.  0E:0B86  23                  	db $23		;[Note] 36
    1460.  0E:0B87  6F                  	db $6F		;[Volume] 15
    1461.  0E:0B88  70                  	db $70		;[Instrument] 1
    1462.  0E:0B89  CB                  	db $CB		;[Wait] 12
    1463.  0E:0B8A  2D                  	db $2D		;[Note] 46
    1464.  0E:0B8B  C0                  	db $C0		;[Wait] 1
    1465.  0E:0B8C  60                  	db $60		;[Note] 97
    1466.  0E:0B8D                      				;[Skip delay] 1
    1467.  0E:0B8D  2F                  	db $2F		;[Note] 48
    1468.  0E:0B8E                      				;[Skip delay] 1
    1469.  0E:0B8E  60                  	db $60		;[Note] 97
    1470.  0E:0B8F                      				;[Skip delay] 1
    1471.  0E:0B8F  2D                  	db $2D		;[Note] 46
    1472.  0E:0B90  C4                  	db $C4		;[Wait] 5
    1473.  0E:0B91  60                  	db $60		;[Note] 97
    1474.  0E:0B92  C0                  	db $C0		;[Wait] 1
    1475.  0E:0B93  2A                  	db $2A		;[Note] 43
    1476.  0E:0B94  C4                  	db $C4		;[Wait] 5
    1477.  0E:0B95  60                  	db $60		;[Note] 97
    1478.  0E:0B96  C0                  	db $C0		;[Wait] 1
    1479.  0E:0B97  28                  	db $28		;[Note] 41
    1480.  0E:0B98  C3                  	db $C3		;[Wait] 4
    1481.  0E:0B99  2A                  	db $2A		;[Note] 43
    1482.  0E:0B9A  C2                  	db $C2		;[Wait] 3
    1483.  0E:0B9B  60                  	db $60		;[Note] 97
    1484.  0E:0B9C                      				;[Skip delay] 3
    1485.  0E:0B9C  28                  	db $28		;[Note] 41
    1486.  0E:0B9D  C1                  	db $C1		;[Wait] 2
    1487.  0E:0B9E  2A                  	db $2A		;[Note] 43
    1488.  0E:0B9F  D7                  	db $D7		;[Wait] 24
    1489.  0E:0BA0  BF                  	db $BF		;[End-Of-Track]
    1490.  0E:0BA1                      .track_33:
    1491.  0E:0BA1  23                  	db $23		;[Note] 36
    1492.  0E:0BA2  6F                  	db $6F		;[Volume] 15
    1493.  0E:0BA3  CB                  	db $CB		;[Wait] 12
    1494.  0E:0BA4  2D                  	db $2D		;[Note] 46
    1495.  0E:0BA5  C0                  	db $C0		;[Wait] 1
    1496.  0E:0BA6  60                  	db $60		;[Note] 97
    1497.  0E:0BA7                      				;[Skip delay] 1
    1498.  0E:0BA7  2F                  	db $2F		;[Note] 48
    1499.  0E:0BA8                      				;[Skip delay] 1
    1500.  0E:0BA8  60                  	db $60		;[Note] 97
    1501.  0E:0BA9                      				;[Skip delay] 1
    1502.  0E:0BA9  2D                  	db $2D		;[Note] 46
    1503.  0E:0BAA  C4                  	db $C4		;[Wait] 5
    1504.  0E:0BAB  60                  	db $60		;[Note] 97
    1505.  0E:0BAC  C0                  	db $C0		;[Wait] 1
    1506.  0E:0BAD  2A                  	db $2A		;[Note] 43
    1507.  0E:0BAE  C4                  	db $C4		;[Wait] 5
    1508.  0E:0BAF  60                  	db $60		;[Note] 97
    1509.  0E:0BB0  C0                  	db $C0		;[Wait] 1
    1510.  0E:0BB1  28                  	db $28		;[Note] 41
    1511.  0E:0BB2  C3                  	db $C3		;[Wait] 4
    1512.  0E:0BB3  2A                  	db $2A		;[Note] 43
    1513.  0E:0BB4  C2                  	db $C2		;[Wait] 3
    1514.  0E:0BB5  60                  	db $60		;[Note] 97
    1515.  0E:0BB6                      				;[Skip delay] 3
    1516.  0E:0BB6  28                  	db $28		;[Note] 41
    1517.  0E:0BB7  C1                  	db $C1		;[Wait] 2
    1518.  0E:0BB8  2A                  	db $2A		;[Note] 43
    1519.  0E:0BB9  D7                  	db $D7		;[Wait] 24
    1520.  0E:0BBA  BF                  	db $BF		;[End-Of-Track]
    1521.  0E:0BBB                      .track_34:
    1522.  0E:0BBB  C2                  	db $C2		;[Wait] 3
    1523.  0E:0BBC  23                  	db $23		;[Note] 36
    1524.  0E:0BBD  66                  	db $66		;[Volume] 6
    1525.  0E:0BBE  CB                  	db $CB		;[Wait] 12
    1526.  0E:0BBF  2D                  	db $2D		;[Note] 46
    1527.  0E:0BC0  C0                  	db $C0		;[Wait] 1
    1528.  0E:0BC1  60                  	db $60		;[Note] 97
    1529.  0E:0BC2                      				;[Skip delay] 1
    1530.  0E:0BC2  2F                  	db $2F		;[Note] 48
    1531.  0E:0BC3                      				;[Skip delay] 1
    1532.  0E:0BC3  60                  	db $60		;[Note] 97
    1533.  0E:0BC4                      				;[Skip delay] 1
    1534.  0E:0BC4  2D                  	db $2D		;[Note] 46
    1535.  0E:0BC5  C4                  	db $C4		;[Wait] 5
    1536.  0E:0BC6  60                  	db $60		;[Note] 97
    1537.  0E:0BC7  C0                  	db $C0		;[Wait] 1
    1538.  0E:0BC8  2A                  	db $2A		;[Note] 43
    1539.  0E:0BC9  C4                  	db $C4		;[Wait] 5
    1540.  0E:0BCA  60                  	db $60		;[Note] 97
    1541.  0E:0BCB  C0                  	db $C0		;[Wait] 1
    1542.  0E:0BCC  28                  	db $28		;[Note] 41
    1543.  0E:0BCD  C3                  	db $C3		;[Wait] 4
    1544.  0E:0BCE  2A                  	db $2A		;[Note] 43
    1545.  0E:0BCF  C2                  	db $C2		;[Wait] 3
    1546.  0E:0BD0  60                  	db $60		;[Note] 97
    1547.  0E:0BD1                      				;[Skip delay] 3
    1548.  0E:0BD1  28                  	db $28		;[Note] 41
    1549.  0E:0BD2  C1                  	db $C1		;[Wait] 2
    1550.  0E:0BD3  2A                  	db $2A		;[Note] 43
    1551.  0E:0BD4  D4                  	db $D4		;[Wait] 21
    1552.  0E:0BD5  BF                  	db $BF		;[End-Of-Track]
    1553.  0E:0BD6                      .track_35:
    1554.  0E:0BD6  23                  	db $23		;[Note] 36
    1555.  0E:0BD7  6F                  	db $6F		;[Volume] 15
    1556.  0E:0BD8  83                  	db $83		;[Instrument] 20
    1557.  0E:0BD9  C3                  	db $C3		;[Wait] 4
    1558.  0E:0BDA  23                  	db $23		;[Note] 36
    1559.  0E:0BDB                      				;[Skip delay] 4
    1560.  0E:0BDB  23                  	db $23		;[Note] 36
    1561.  0E:0BDC  81                  	db $81		;[Instrument] 18
    1562.  0E:0BDD  C2                  	db $C2		;[Wait] 3
    1563.  0E:0BDE  23                  	db $23		;[Note] 36
    1564.  0E:0BDF  67                  	db $67		;[Volume] 7
    1565.  0E:0BE0  C0                  	db $C0		;[Wait] 1
    1566.  0E:0BE1  23                  	db $23		;[Note] 36
    1567.  0E:0BE2  6F                  	db $6F		;[Volume] 15
    1568.  0E:0BE3  83                  	db $83		;[Instrument] 20
    1569.  0E:0BE4  C1                  	db $C1		;[Wait] 2
    1570.  0E:0BE5  23                  	db $23		;[Note] 36
    1571.  0E:0BE6                      				;[Skip delay] 2
    1572.  0E:0BE6  23                  	db $23		;[Note] 36
    1573.  0E:0BE7  C3                  	db $C3		;[Wait] 4
    1574.  0E:0BE8  23                  	db $23		;[Note] 36
    1575.  0E:0BE9                      				;[Skip delay] 4
    1576.  0E:0BE9  23                  	db $23		;[Note] 36
    1577.  0E:0BEA  81                  	db $81		;[Instrument] 18
    1578.  0E:0BEB  C2                  	db $C2		;[Wait] 3
    1579.  0E:0BEC  23                  	db $23		;[Note] 36
    1580.  0E:0BED  67                  	db $67		;[Volume] 7
    1581.  0E:0BEE  C4                  	db $C4		;[Wait] 5
    1582.  0E:0BEF  23                  	db $23		;[Note] 36
    1583.  0E:0BF0  6F                  	db $6F		;[Volume] 15
    1584.  0E:0BF1  83                  	db $83		;[Instrument] 20
    1585.  0E:0BF2  C3                  	db $C3		;[Wait] 4
    1586.  0E:0BF3  23                  	db $23		;[Note] 36
    1587.  0E:0BF4                      				;[Skip delay] 4
    1588.  0E:0BF4  23                  	db $23		;[Note] 36
    1589.  0E:0BF5  81                  	db $81		;[Instrument] 18
    1590.  0E:0BF6  C2                  	db $C2		;[Wait] 3
    1591.  0E:0BF7  23                  	db $23		;[Note] 36
    1592.  0E:0BF8  67                  	db $67		;[Volume] 7
    1593.  0E:0BF9  C0                  	db $C0		;[Wait] 1
    1594.  0E:0BFA  23                  	db $23		;[Note] 36
    1595.  0E:0BFB  6F                  	db $6F		;[Volume] 15
    1596.  0E:0BFC  83                  	db $83		;[Instrument] 20
    1597.  0E:0BFD  C1                  	db $C1		;[Wait] 2
    1598.  0E:0BFE  23                  	db $23		;[Note] 36
    1599.  0E:0BFF                      				;[Skip delay] 2
    1600.  0E:0BFF  2A                  	db $2A		;[Note] 43
    1601.  0E:0C00  82                  	db $82		;[Instrument] 19
    1602.  0E:0C01                      				;[Skip delay] 2
    1603.  0E:0C01  2A                  	db $2A		;[Note] 43
    1604.  0E:0C02  C2                  	db $C2		;[Wait] 3
    1605.  0E:0C03  29                  	db $29		;[Note] 42
    1606.  0E:0C04  67                  	db $67		;[Volume] 7
    1607.  0E:0C05  C0                  	db $C0		;[Wait] 1
    1608.  0E:0C06  26                  	db $26		;[Note] 39
    1609.  0E:0C07  6F                  	db $6F		;[Volume] 15
    1610.  0E:0C08  C2                  	db $C2		;[Wait] 3
    1611.  0E:0C09  26                  	db $26		;[Note] 39
    1612.  0E:0C0A  67                  	db $67		;[Volume] 7
    1613.  0E:0C0B  C0                  	db $C0		;[Wait] 1
    1614.  0E:0C0C  26                  	db $26		;[Note] 39
    1615.  0E:0C0D  6F                  	db $6F		;[Volume] 15
    1616.  0E:0C0E  C1                  	db $C1		;[Wait] 2
    1617.  0E:0C0F  22                  	db $22		;[Note] 35
    1618.  0E:0C10  C2                  	db $C2		;[Wait] 3
    1619.  0E:0C11  22                  	db $22		;[Note] 35
    1620.  0E:0C12  67                  	db $67		;[Volume] 7
    1621.  0E:0C13  C0                  	db $C0		;[Wait] 1
    1622.  0E:0C14  BF                  	db $BF		;[End-Of-Track]
    1623.  0E:0C15                      .track_36:
    1624.  0E:0C15  13                  	db $13		;[Note] 20
    1625.  0E:0C16  7F                  	db $7F		;[Instrument] 16
    1626.  0E:0C17  C5                  	db $C5		;[Wait] 6
    1627.  0E:0C18  13                  	db $13		;[Note] 20
    1628.  0E:0C19  C1                  	db $C1		;[Wait] 2
    1629.  0E:0C1A  1F                  	db $1F		;[Note] 32
    1630.  0E:0C1B  C3                  	db $C3		;[Wait] 4
    1631.  0E:0C1C  13                  	db $13		;[Note] 20
    1632.  0E:0C1D                      				;[Skip delay] 4
    1633.  0E:0C1D  1F                  	db $1F		;[Note] 32
    1634.  0E:0C1E                      				;[Skip delay] 4
    1635.  0E:0C1E  1E                  	db $1E		;[Note] 31
    1636.  0E:0C1F  7D                  	db $7D		;[Instrument] 14
    1637.  0E:0C20  C1                  	db $C1		;[Wait] 2
    1638.  0E:0C21  1E                  	db $1E		;[Note] 31
    1639.  0E:0C22  80                  	db $80		;[Instrument] 17
    1640.  0E:0C23                      				;[Skip delay] 2
    1641.  0E:0C23  1C                  	db $1C		;[Note] 29
    1642.  0E:0C24  7D                  	db $7D		;[Instrument] 14
    1643.  0E:0C25  C3                  	db $C3		;[Wait] 4
    1644.  0E:0C26  1F                  	db $1F		;[Note] 32
    1645.  0E:0C27  7F                  	db $7F		;[Instrument] 16
    1646.  0E:0C28                      				;[Skip delay] 4
    1647.  0E:0C28  17                  	db $17		;[Note] 24
    1648.  0E:0C29  C5                  	db $C5		;[Wait] 6
    1649.  0E:0C2A  17                  	db $17		;[Note] 24
    1650.  0E:0C2B  C1                  	db $C1		;[Wait] 2
    1651.  0E:0C2C  23                  	db $23		;[Note] 36
    1652.  0E:0C2D  C3                  	db $C3		;[Wait] 4
    1653.  0E:0C2E  17                  	db $17		;[Note] 24
    1654.  0E:0C2F                      				;[Skip delay] 4
    1655.  0E:0C2F  23                  	db $23		;[Note] 36
    1656.  0E:0C30                      				;[Skip delay] 4
    1657.  0E:0C30  25                  	db $25		;[Note] 38
    1658.  0E:0C31                      				;[Skip delay] 4
    1659.  0E:0C31  26                  	db $26		;[Note] 39
    1660.  0E:0C32  7D                  	db $7D		;[Instrument] 14
    1661.  0E:0C33                      				;[Skip delay] 4
    1662.  0E:0C33  23                  	db $23		;[Note] 36
    1663.  0E:0C34                      				;[Skip delay] 4
    1664.  0E:0C34  BF                  	db $BF		;[End-Of-Track]
    1665.  0E:0C35                      .track_37:
    1666.  0E:0C35  26                  	db $26		;[Note] 39
    1667.  0E:0C36  CB                  	db $CB		;[Wait] 12
    1668.  0E:0C37  28                  	db $28		;[Note] 41
    1669.  0E:0C38  C0                  	db $C0		;[Wait] 1
    1670.  0E:0C39  60                  	db $60		;[Note] 97
    1671.  0E:0C3A                      				;[Skip delay] 1
    1672.  0E:0C3A  2A                  	db $2A		;[Note] 43
    1673.  0E:0C3B                      				;[Skip delay] 1
    1674.  0E:0C3B  60                  	db $60		;[Note] 97
    1675.  0E:0C3C                      				;[Skip delay] 1
    1676.  0E:0C3C  28                  	db $28		;[Note] 41
    1677.  0E:0C3D  C4                  	db $C4		;[Wait] 5
    1678.  0E:0C3E  60                  	db $60		;[Note] 97
    1679.  0E:0C3F  C0                  	db $C0		;[Wait] 1
    1680.  0E:0C40  26                  	db $26		;[Note] 39
    1681.  0E:0C41  C4                  	db $C4		;[Wait] 5
    1682.  0E:0C42  60                  	db $60		;[Note] 97
    1683.  0E:0C43  C0                  	db $C0		;[Wait] 1
    1684.  0E:0C44  25                  	db $25		;[Note] 38
    1685.  0E:0C45  C3                  	db $C3		;[Wait] 4
    1686.  0E:0C46  23                  	db $23		;[Note] 36
    1687.  0E:0C47  DF                  	db $DF		;[Wait] 32
    1688.  0E:0C48  BF                  	db $BF		;[End-Of-Track]
    1689.  0E:0C49                      .track_38:
    1690.  0E:0C49  32                  	db $32		;[Note] 51
    1691.  0E:0C4A  CB                  	db $CB		;[Wait] 12
    1692.  0E:0C4B  34                  	db $34		;[Note] 53
    1693.  0E:0C4C  C0                  	db $C0		;[Wait] 1
    1694.  0E:0C4D  60                  	db $60		;[Note] 97
    1695.  0E:0C4E                      				;[Skip delay] 1
    1696.  0E:0C4E  36                  	db $36		;[Note] 55
    1697.  0E:0C4F                      				;[Skip delay] 1
    1698.  0E:0C4F  60                  	db $60		;[Note] 97
    1699.  0E:0C50                      				;[Skip delay] 1
    1700.  0E:0C50  34                  	db $34		;[Note] 53
    1701.  0E:0C51  C4                  	db $C4		;[Wait] 5
    1702.  0E:0C52  60                  	db $60		;[Note] 97
    1703.  0E:0C53  C0                  	db $C0		;[Wait] 1
    1704.  0E:0C54  32                  	db $32		;[Note] 51
    1705.  0E:0C55  C4                  	db $C4		;[Wait] 5
    1706.  0E:0C56  60                  	db $60		;[Note] 97
    1707.  0E:0C57  C0                  	db $C0		;[Wait] 1
    1708.  0E:0C58  31                  	db $31		;[Note] 50
    1709.  0E:0C59  C3                  	db $C3		;[Wait] 4
    1710.  0E:0C5A  2F                  	db $2F		;[Note] 48
    1711.  0E:0C5B  DF                  	db $DF		;[Wait] 32
    1712.  0E:0C5C  BF                  	db $BF		;[End-Of-Track]
    1713.  0E:0C5D                      .track_39:
    1714.  0E:0C5D  07                  	db $07		;[Note] 8
    1715.  0E:0C5E  C5                  	db $C5		;[Wait] 6
    1716.  0E:0C5F  07                  	db $07		;[Note] 8
    1717.  0E:0C60  C1                  	db $C1		;[Wait] 2
    1718.  0E:0C61  13                  	db $13		;[Note] 20
    1719.  0E:0C62  C3                  	db $C3		;[Wait] 4
    1720.  0E:0C63  07                  	db $07		;[Note] 8
    1721.  0E:0C64                      				;[Skip delay] 4
    1722.  0E:0C64  13                  	db $13		;[Note] 20
    1723.  0E:0C65                      				;[Skip delay] 4
    1724.  0E:0C65  12                  	db $12		;[Note] 19
    1725.  0E:0C66                      				;[Skip delay] 4
    1726.  0E:0C66  10                  	db $10		;[Note] 17
    1727.  0E:0C67                      				;[Skip delay] 4
    1728.  0E:0C67  13                  	db $13		;[Note] 20
    1729.  0E:0C68                      				;[Skip delay] 4
    1730.  0E:0C68  0B                  	db $0B		;[Note] 12
    1731.  0E:0C69  C5                  	db $C5		;[Wait] 6
    1732.  0E:0C6A  0B                  	db $0B		;[Note] 12
    1733.  0E:0C6B  C1                  	db $C1		;[Wait] 2
    1734.  0E:0C6C  17                  	db $17		;[Note] 24
    1735.  0E:0C6D  C3                  	db $C3		;[Wait] 4
    1736.  0E:0C6E  0B                  	db $0B		;[Note] 12
    1737.  0E:0C6F                      				;[Skip delay] 4
    1738.  0E:0C6F  17                  	db $17		;[Note] 24
    1739.  0E:0C70                      				;[Skip delay] 4
    1740.  0E:0C70  19                  	db $19		;[Note] 26
    1741.  0E:0C71                      				;[Skip delay] 4
    1742.  0E:0C71  1A                  	db $1A		;[Note] 27
    1743.  0E:0C72                      				;[Skip delay] 4
    1744.  0E:0C72  17                  	db $17		;[Note] 24
    1745.  0E:0C73                      				;[Skip delay] 4
    1746.  0E:0C73  BF                  	db $BF		;[End-Of-Track]
    1747.  0E:0C74                      .track_40:
    1748.  0E:0C74  C2                  	db $C2		;[Wait] 3
    1749.  0E:0C75  26                  	db $26		;[Note] 39
    1750.  0E:0C76  CB                  	db $CB		;[Wait] 12
    1751.  0E:0C77  28                  	db $28		;[Note] 41
    1752.  0E:0C78  C0                  	db $C0		;[Wait] 1
    1753.  0E:0C79  60                  	db $60		;[Note] 97
    1754.  0E:0C7A                      				;[Skip delay] 1
    1755.  0E:0C7A  2A                  	db $2A		;[Note] 43
    1756.  0E:0C7B                      				;[Skip delay] 1
    1757.  0E:0C7B  60                  	db $60		;[Note] 97
    1758.  0E:0C7C                      				;[Skip delay] 1
    1759.  0E:0C7C  28                  	db $28		;[Note] 41
    1760.  0E:0C7D  C4                  	db $C4		;[Wait] 5
    1761.  0E:0C7E  60                  	db $60		;[Note] 97
    1762.  0E:0C7F  C0                  	db $C0		;[Wait] 1
    1763.  0E:0C80  26                  	db $26		;[Note] 39
    1764.  0E:0C81  C4                  	db $C4		;[Wait] 5
    1765.  0E:0C82  60                  	db $60		;[Note] 97
    1766.  0E:0C83  C0                  	db $C0		;[Wait] 1
    1767.  0E:0C84  25                  	db $25		;[Note] 38
    1768.  0E:0C85  C3                  	db $C3		;[Wait] 4
    1769.  0E:0C86  23                  	db $23		;[Note] 36
    1770.  0E:0C87  DC                  	db $DC		;[Wait] 29
    1771.  0E:0C88  BF                  	db $BF		;[End-Of-Track]
    1772.  0E:0C89                      .track_41:
    1773.  0E:0C89  23                  	db $23		;[Note] 36
    1774.  0E:0C8A  6F                  	db $6F		;[Volume] 15
    1775.  0E:0C8B  CA                  	db $CA		;[Wait] 11
    1776.  0E:0C8C  60                  	db $60		;[Note] 97
    1777.  0E:0C8D  C0                  	db $C0		;[Wait] 1
    1778.  0E:0C8E  2D                  	db $2D		;[Note] 46
    1779.  0E:0C8F                      				;[Skip delay] 1
    1780.  0E:0C8F  60                  	db $60		;[Note] 97
    1781.  0E:0C90                      				;[Skip delay] 1
    1782.  0E:0C90  2F                  	db $2F		;[Note] 48
    1783.  0E:0C91                      				;[Skip delay] 1
    1784.  0E:0C91  60                  	db $60		;[Note] 97
    1785.  0E:0C92                      				;[Skip delay] 1
    1786.  0E:0C92  2D                  	db $2D		;[Note] 46
    1787.  0E:0C93  C4                  	db $C4		;[Wait] 5
    1788.  0E:0C94  60                  	db $60		;[Note] 97
    1789.  0E:0C95  C0                  	db $C0		;[Wait] 1
    1790.  0E:0C96  2A                  	db $2A		;[Note] 43
    1791.  0E:0C97  C4                  	db $C4		;[Wait] 5
    1792.  0E:0C98  60                  	db $60		;[Note] 97
    1793.  0E:0C99  C0                  	db $C0		;[Wait] 1
    1794.  0E:0C9A  28                  	db $28		;[Note] 41
    1795.  0E:0C9B  C3                  	db $C3		;[Wait] 4
    1796.  0E:0C9C  2A                  	db $2A		;[Note] 43
    1797.  0E:0C9D  C2                  	db $C2		;[Wait] 3
    1798.  0E:0C9E  60                  	db $60		;[Note] 97
    1799.  0E:0C9F                      				;[Skip delay] 3
    1800.  0E:0C9F  28                  	db $28		;[Note] 41
    1801.  0E:0CA0  C1                  	db $C1		;[Wait] 2
    1802.  0E:0CA1  2A                  	db $2A		;[Note] 43
    1803.  0E:0CA2  D7                  	db $D7		;[Wait] 24
    1804.  0E:0CA3  BF                  	db $BF		;[End-Of-Track]
    1805.  0E:0CA4                      .track_42:
    1806.  0E:0CA4  60                  	db $60		;[Note] 97
    1807.  0E:0CA5  EB                  	db $EB		;[Wait] 44
    1808.  0E:0CA6  23                  	db $23		;[Note] 36
    1809.  0E:0CA7  6E                  	db $6E		;[Volume] 14
    1810.  0E:0CA8  75                  	db $75		;[Instrument] 6
    1811.  0E:0CA9  C1                  	db $C1		;[Wait] 2
    1812.  0E:0CAA  26                  	db $26		;[Note] 39
    1813.  0E:0CAB                      				;[Skip delay] 2
    1814.  0E:0CAB  2D                  	db $2D		;[Note] 46
    1815.  0E:0CAC  C3                  	db $C3		;[Wait] 4
    1816.  0E:0CAD  2A                  	db $2A		;[Note] 43
    1817.  0E:0CAE                      				;[Skip delay] 4
    1818.  0E:0CAE  26                  	db $26		;[Note] 39
    1819.  0E:0CAF                      				;[Skip delay] 4
    1820.  0E:0CAF  2A                  	db $2A		;[Note] 43
    1821.  0E:0CB0  C2                  	db $C2		;[Wait] 3
    1822.  0E:0CB1  C0                  	db $C0		;[Wait] 1
    1823.  0E:0CB2  BF                  	db $BF		;[End-Of-Track]
    1824.  0E:0CB3                      .track_43:
    1825.  0E:0CB3  C2                  	db $C2		;[Wait] 3
    1826.  0E:0CB4  23                  	db $23		;[Note] 36
    1827.  0E:0CB5  66                  	db $66		;[Volume] 6
    1828.  0E:0CB6  CA                  	db $CA		;[Wait] 11
    1829.  0E:0CB7  60                  	db $60		;[Note] 97
    1830.  0E:0CB8  C0                  	db $C0		;[Wait] 1
    1831.  0E:0CB9  2D                  	db $2D		;[Note] 46
    1832.  0E:0CBA                      				;[Skip delay] 1
    1833.  0E:0CBA  60                  	db $60		;[Note] 97
    1834.  0E:0CBB                      				;[Skip delay] 1
    1835.  0E:0CBB  2F                  	db $2F		;[Note] 48
    1836.  0E:0CBC                      				;[Skip delay] 1
    1837.  0E:0CBC  60                  	db $60		;[Note] 97
    1838.  0E:0CBD                      				;[Skip delay] 1
    1839.  0E:0CBD  2D                  	db $2D		;[Note] 46
    1840.  0E:0CBE  C4                  	db $C4		;[Wait] 5
    1841.  0E:0CBF  60                  	db $60		;[Note] 97
    1842.  0E:0CC0  C0                  	db $C0		;[Wait] 1
    1843.  0E:0CC1  2A                  	db $2A		;[Note] 43
    1844.  0E:0CC2  C4                  	db $C4		;[Wait] 5
    1845.  0E:0CC3  60                  	db $60		;[Note] 97
    1846.  0E:0CC4  C0                  	db $C0		;[Wait] 1
    1847.  0E:0CC5  28                  	db $28		;[Note] 41
    1848.  0E:0CC6  C3                  	db $C3		;[Wait] 4
    1849.  0E:0CC7  2A                  	db $2A		;[Note] 43
    1850.  0E:0CC8  C2                  	db $C2		;[Wait] 3
    1851.  0E:0CC9  60                  	db $60		;[Note] 97
    1852.  0E:0CCA                      				;[Skip delay] 3
    1853.  0E:0CCA  28                  	db $28		;[Note] 41
    1854.  0E:0CCB  C1                  	db $C1		;[Wait] 2
    1855.  0E:0CCC  2A                  	db $2A		;[Note] 43
    1856.  0E:0CCD  D4                  	db $D4		;[Wait] 21
    1857.  0E:0CCE  BF                  	db $BF		;[End-Of-Track]
    1858.  0E:0CCF                      .track_44:
    1859.  0E:0CCF  13                  	db $13		;[Note] 20
    1860.  0E:0CD0  7F                  	db $7F		;[Instrument] 16
    1861.  0E:0CD1  C5                  	db $C5		;[Wait] 6
    1862.  0E:0CD2  13                  	db $13		;[Note] 20
    1863.  0E:0CD3  C1                  	db $C1		;[Wait] 2
    1864.  0E:0CD4  1F                  	db $1F		;[Note] 32
    1865.  0E:0CD5  C3                  	db $C3		;[Wait] 4
    1866.  0E:0CD6  13                  	db $13		;[Note] 20
    1867.  0E:0CD7                      				;[Skip delay] 4
    1868.  0E:0CD7  1F                  	db $1F		;[Note] 32
    1869.  0E:0CD8                      				;[Skip delay] 4
    1870.  0E:0CD8  1E                  	db $1E		;[Note] 31
    1871.  0E:0CD9  7D                  	db $7D		;[Instrument] 14
    1872.  0E:0CDA  C1                  	db $C1		;[Wait] 2
    1873.  0E:0CDB  1E                  	db $1E		;[Note] 31
    1874.  0E:0CDC  80                  	db $80		;[Instrument] 17
    1875.  0E:0CDD                      				;[Skip delay] 2
    1876.  0E:0CDD  1C                  	db $1C		;[Note] 29
    1877.  0E:0CDE  7D                  	db $7D		;[Instrument] 14
    1878.  0E:0CDF  C3                  	db $C3		;[Wait] 4
    1879.  0E:0CE0  1F                  	db $1F		;[Note] 32
    1880.  0E:0CE1  7F                  	db $7F		;[Instrument] 16
    1881.  0E:0CE2                      				;[Skip delay] 4
    1882.  0E:0CE2  15                  	db $15		;[Note] 22
    1883.  0E:0CE3  C5                  	db $C5		;[Wait] 6
    1884.  0E:0CE4  15                  	db $15		;[Note] 22
    1885.  0E:0CE5  C1                  	db $C1		;[Wait] 2
    1886.  0E:0CE6  21                  	db $21		;[Note] 34
    1887.  0E:0CE7  C3                  	db $C3		;[Wait] 4
    1888.  0E:0CE8  15                  	db $15		;[Note] 22
    1889.  0E:0CE9                      				;[Skip delay] 4
    1890.  0E:0CE9  21                  	db $21		;[Note] 34
    1891.  0E:0CEA                      				;[Skip delay] 4
    1892.  0E:0CEA  23                  	db $23		;[Note] 36
    1893.  0E:0CEB                      				;[Skip delay] 4
    1894.  0E:0CEB  25                  	db $25		;[Note] 38
    1895.  0E:0CEC  7D                  	db $7D		;[Instrument] 14
    1896.  0E:0CED                      				;[Skip delay] 4
    1897.  0E:0CED  21                  	db $21		;[Note] 34
    1898.  0E:0CEE                      				;[Skip delay] 4
    1899.  0E:0CEE  BF                  	db $BF		;[End-Of-Track]
    1900.  0E:0CEF                      .track_45:
    1901.  0E:0CEF  28                  	db $28		;[Note] 41
    1902.  0E:0CF0  CB                  	db $CB		;[Wait] 12
    1903.  0E:0CF1  2A                  	db $2A		;[Note] 43
    1904.  0E:0CF2  C0                  	db $C0		;[Wait] 1
    1905.  0E:0CF3  60                  	db $60		;[Note] 97
    1906.  0E:0CF4                      				;[Skip delay] 1
    1907.  0E:0CF4  2B                  	db $2B		;[Note] 44
    1908.  0E:0CF5                      				;[Skip delay] 1
    1909.  0E:0CF5  60                  	db $60		;[Note] 97
    1910.  0E:0CF6                      				;[Skip delay] 1
    1911.  0E:0CF6  2A                  	db $2A		;[Note] 43
    1912.  0E:0CF7  C4                  	db $C4		;[Wait] 5
    1913.  0E:0CF8  60                  	db $60		;[Note] 97
    1914.  0E:0CF9  C0                  	db $C0		;[Wait] 1
    1915.  0E:0CFA  28                  	db $28		;[Note] 41
    1916.  0E:0CFB  C5                  	db $C5		;[Wait] 6
    1917.  0E:0CFC  25                  	db $25		;[Note] 38
    1918.  0E:0CFD  C3                  	db $C3		;[Wait] 4
    1919.  0E:0CFE  26                  	db $26		;[Note] 39
    1920.  0E:0CFF  C7                  	db $C7		;[Wait] 8
    1921.  0E:0D00  28                  	db $28		;[Note] 41
    1922.  0E:0D01                      				;[Skip delay] 8
    1923.  0E:0D01  2A                  	db $2A		;[Note] 43
    1924.  0E:0D02                      				;[Skip delay] 8
    1925.  0E:0D02  32                  	db $32		;[Note] 51
    1926.  0E:0D03  6B                  	db $6B		;[Volume] 11
    1927.  0E:0D04  84                  	db $84		;[Instrument] 21
    1928.  0E:0D05                      				;[Skip delay] 8
    1929.  0E:0D05  BF                  	db $BF		;[End-Of-Track]
    1930.  0E:0D06                      .track_46:
    1931.  0E:0D06  60                  	db $60		;[Note] 97
    1932.  0E:0D07  DF                  	db $DF		;[Wait] 32
    1933.  0E:0D08  23                  	db $23		;[Note] 36
    1934.  0E:0D09  6F                  	db $6F		;[Volume] 15
    1935.  0E:0D0A  74                  	db $74		;[Instrument] 5
    1936.  0E:0D0B  C7                  	db $C7		;[Wait] 8
    1937.  0E:0D0C  25                  	db $25		;[Note] 38
    1938.  0E:0D0D                      				;[Skip delay] 8
    1939.  0E:0D0D  26                  	db $26		;[Note] 39
    1940.  0E:0D0E  CE                  	db $CE		;[Wait] 15
    1941.  0E:0D0F  C0                  	db $C0		;[Wait] 1
    1942.  0E:0D10  BF                  	db $BF		;[End-Of-Track]
    1943.  0E:0D11                      .track_47:
    1944.  0E:0D11  28                  	db $28		;[Note] 41
    1945.  0E:0D12  CB                  	db $CB		;[Wait] 12
    1946.  0E:0D13  2A                  	db $2A		;[Note] 43
    1947.  0E:0D14  C0                  	db $C0		;[Wait] 1
    1948.  0E:0D15  60                  	db $60		;[Note] 97
    1949.  0E:0D16                      				;[Skip delay] 1
    1950.  0E:0D16  2B                  	db $2B		;[Note] 44
    1951.  0E:0D17                      				;[Skip delay] 1
    1952.  0E:0D17  60                  	db $60		;[Note] 97
    1953.  0E:0D18                      				;[Skip delay] 1
    1954.  0E:0D18  2A                  	db $2A		;[Note] 43
    1955.  0E:0D19  C4                  	db $C4		;[Wait] 5
    1956.  0E:0D1A  60                  	db $60		;[Note] 97
    1957.  0E:0D1B  C0                  	db $C0		;[Wait] 1
    1958.  0E:0D1C  28                  	db $28		;[Note] 41
    1959.  0E:0D1D  C5                  	db $C5		;[Wait] 6
    1960.  0E:0D1E  25                  	db $25		;[Note] 38
    1961.  0E:0D1F  C3                  	db $C3		;[Wait] 4
    1962.  0E:0D20  26                  	db $26		;[Note] 39
    1963.  0E:0D21  C7                  	db $C7		;[Wait] 8
    1964.  0E:0D22  28                  	db $28		;[Note] 41
    1965.  0E:0D23                      				;[Skip delay] 8
    1966.  0E:0D23  2A                  	db $2A		;[Note] 43
    1967.  0E:0D24  CF                  	db $CF		;[Wait] 16
    1968.  0E:0D25  BF                  	db $BF		;[End-Of-Track]
    1969.  0E:0D26                      .track_48:
    1970.  0E:0D26  C2                  	db $C2		;[Wait] 3
    1971.  0E:0D27  28                  	db $28		;[Note] 41
    1972.  0E:0D28  CB                  	db $CB		;[Wait] 12
    1973.  0E:0D29  2A                  	db $2A		;[Note] 43
    1974.  0E:0D2A  C0                  	db $C0		;[Wait] 1
    1975.  0E:0D2B  60                  	db $60		;[Note] 97
    1976.  0E:0D2C                      				;[Skip delay] 1
    1977.  0E:0D2C  2B                  	db $2B		;[Note] 44
    1978.  0E:0D2D                      				;[Skip delay] 1
    1979.  0E:0D2D  60                  	db $60		;[Note] 97
    1980.  0E:0D2E                      				;[Skip delay] 1
    1981.  0E:0D2E  2A                  	db $2A		;[Note] 43
    1982.  0E:0D2F  C4                  	db $C4		;[Wait] 5
    1983.  0E:0D30  60                  	db $60		;[Note] 97
    1984.  0E:0D31  C0                  	db $C0		;[Wait] 1
    1985.  0E:0D32  28                  	db $28		;[Note] 41
    1986.  0E:0D33  C5                  	db $C5		;[Wait] 6
    1987.  0E:0D34  25                  	db $25		;[Note] 38
    1988.  0E:0D35  C3                  	db $C3		;[Wait] 4
    1989.  0E:0D36  26                  	db $26		;[Note] 39
    1990.  0E:0D37  C7                  	db $C7		;[Wait] 8
    1991.  0E:0D38  28                  	db $28		;[Note] 41
    1992.  0E:0D39                      				;[Skip delay] 8
    1993.  0E:0D39  2A                  	db $2A		;[Note] 43
    1994.  0E:0D3A  CC                  	db $CC		;[Wait] 13
    1995.  0E:0D3B  BF                  	db $BF		;[End-Of-Track]
    1996.  0E:0D3C                      .track_49:
    1997.  0E:0D3C  23                  	db $23		;[Note] 36
    1998.  0E:0D3D  6F                  	db $6F		;[Volume] 15
    1999.  0E:0D3E  70                  	db $70		;[Instrument] 1
    2000.  0E:0D3F  CB                  	db $CB		;[Wait] 12
    2001.  0E:0D40  2D                  	db $2D		;[Note] 46
    2002.  0E:0D41  C0                  	db $C0		;[Wait] 1
    2003.  0E:0D42  60                  	db $60		;[Note] 97
    2004.  0E:0D43                      				;[Skip delay] 1
    2005.  0E:0D43  2F                  	db $2F		;[Note] 48
    2006.  0E:0D44                      				;[Skip delay] 1
    2007.  0E:0D44  60                  	db $60		;[Note] 97
    2008.  0E:0D45                      				;[Skip delay] 1
    2009.  0E:0D45  2D                  	db $2D		;[Note] 46
    2010.  0E:0D46  C4                  	db $C4		;[Wait] 5
    2011.  0E:0D47  60                  	db $60		;[Note] 97
    2012.  0E:0D48  C0                  	db $C0		;[Wait] 1
    2013.  0E:0D49  2F                  	db $2F		;[Note] 48
    2014.  0E:0D4A  C4                  	db $C4		;[Wait] 5
    2015.  0E:0D4B  60                  	db $60		;[Note] 97
    2016.  0E:0D4C  C0                  	db $C0		;[Wait] 1
    2017.  0E:0D4D  31                  	db $31		;[Note] 50
    2018.  0E:0D4E  C3                  	db $C3		;[Wait] 4
    2019.  0E:0D4F  2F                  	db $2F		;[Note] 48
    2020.  0E:0D50  C2                  	db $C2		;[Wait] 3
    2021.  0E:0D51  60                  	db $60		;[Note] 97
    2022.  0E:0D52                      				;[Skip delay] 3
    2023.  0E:0D52  2A                  	db $2A		;[Note] 43
    2024.  0E:0D53  C1                  	db $C1		;[Wait] 2
    2025.  0E:0D54  2A                  	db $2A		;[Note] 43
    2026.  0E:0D55  D7                  	db $D7		;[Wait] 24
    2027.  0E:0D56  BF                  	db $BF		;[End-Of-Track]
    2028.  0E:0D57                      .track_50:
    2029.  0E:0D57  60                  	db $60		;[Note] 97
    2030.  0E:0D58  EF                  	db $EF		;[Wait] 48
    2031.  0E:0D59  23                  	db $23		;[Note] 36
    2032.  0E:0D5A  6E                  	db $6E		;[Volume] 14
    2033.  0E:0D5B  75                  	db $75		;[Instrument] 6
    2034.  0E:0D5C  C1                  	db $C1		;[Wait] 2
    2035.  0E:0D5D  26                  	db $26		;[Note] 39
    2036.  0E:0D5E                      				;[Skip delay] 2
    2037.  0E:0D5E  28                  	db $28		;[Note] 41
    2038.  0E:0D5F                      				;[Skip delay] 2
    2039.  0E:0D5F  2A                  	db $2A		;[Note] 43
    2040.  0E:0D60                      				;[Skip delay] 2
    2041.  0E:0D60  2F                  	db $2F		;[Note] 48
    2042.  0E:0D61                      				;[Skip delay] 2
    2043.  0E:0D61  2D                  	db $2D		;[Note] 46
    2044.  0E:0D62                      				;[Skip delay] 2
    2045.  0E:0D62  2B                  	db $2B		;[Note] 44
    2046.  0E:0D63                      				;[Skip delay] 2
    2047.  0E:0D63  2A                  	db $2A		;[Note] 43
    2048.  0E:0D64                      				;[Skip delay] 2
    2049.  0E:0D64  BF                  	db $BF		;[End-Of-Track]
    2050.  0E:0D65                      .track_51:
    2051.  0E:0D65  2F                  	db $2F		;[Note] 48
    2052.  0E:0D66  6D                  	db $6D		;[Volume] 13
    2053.  0E:0D67  73                  	db $73		;[Instrument] 4
    2054.  0E:0D68  D5                  	db $D5		;[Wait] 22
    2055.  0E:0D69  3B                  	db $3B		;[Note] 60
    2056.  0E:0D6A  C5                  	db $C5		;[Wait] 6
    2057.  0E:0D6B  36                  	db $36		;[Note] 55
    2058.  0E:0D6C  C3                  	db $C3		;[Wait] 4
    2059.  0E:0D6D  39                  	db $39		;[Note] 58
    2060.  0E:0D6E  CF                  	db $CF		;[Wait] 16
    2061.  0E:0D6F  3D                  	db $3D		;[Note] 62
    2062.  0E:0D70                      				;[Skip delay] 16
    2063.  0E:0D70  BF                  	db $BF		;[End-Of-Track]
    2064.  0E:0D71                      .track_52:
    2065.  0E:0D71  23                  	db $23		;[Note] 36
    2066.  0E:0D72  6F                  	db $6F		;[Volume] 15
    2067.  0E:0D73  CB                  	db $CB		;[Wait] 12
    2068.  0E:0D74  2D                  	db $2D		;[Note] 46
    2069.  0E:0D75  C0                  	db $C0		;[Wait] 1
    2070.  0E:0D76  60                  	db $60		;[Note] 97
    2071.  0E:0D77                      				;[Skip delay] 1
    2072.  0E:0D77  2F                  	db $2F		;[Note] 48
    2073.  0E:0D78                      				;[Skip delay] 1
    2074.  0E:0D78  60                  	db $60		;[Note] 97
    2075.  0E:0D79                      				;[Skip delay] 1
    2076.  0E:0D79  2D                  	db $2D		;[Note] 46
    2077.  0E:0D7A  C4                  	db $C4		;[Wait] 5
    2078.  0E:0D7B  60                  	db $60		;[Note] 97
    2079.  0E:0D7C  C0                  	db $C0		;[Wait] 1
    2080.  0E:0D7D  2F                  	db $2F		;[Note] 48
    2081.  0E:0D7E  C4                  	db $C4		;[Wait] 5
    2082.  0E:0D7F  60                  	db $60		;[Note] 97
    2083.  0E:0D80  C0                  	db $C0		;[Wait] 1
    2084.  0E:0D81  31                  	db $31		;[Note] 50
    2085.  0E:0D82  C3                  	db $C3		;[Wait] 4
    2086.  0E:0D83  2F                  	db $2F		;[Note] 48
    2087.  0E:0D84  C2                  	db $C2		;[Wait] 3
    2088.  0E:0D85  60                  	db $60		;[Note] 97
    2089.  0E:0D86                      				;[Skip delay] 3
    2090.  0E:0D86  2A                  	db $2A		;[Note] 43
    2091.  0E:0D87  C1                  	db $C1		;[Wait] 2
    2092.  0E:0D88  2A                  	db $2A		;[Note] 43
    2093.  0E:0D89  D7                  	db $D7		;[Wait] 24
    2094.  0E:0D8A  BF                  	db $BF		;[End-Of-Track]
    2095.  0E:0D8B                      .track_53:
    2096.  0E:0D8B  C2                  	db $C2		;[Wait] 3
    2097.  0E:0D8C  23                  	db $23		;[Note] 36
    2098.  0E:0D8D  66                  	db $66		;[Volume] 6
    2099.  0E:0D8E  CB                  	db $CB		;[Wait] 12
    2100.  0E:0D8F  2D                  	db $2D		;[Note] 46
    2101.  0E:0D90  C0                  	db $C0		;[Wait] 1
    2102.  0E:0D91  60                  	db $60		;[Note] 97
    2103.  0E:0D92                      				;[Skip delay] 1
    2104.  0E:0D92  2F                  	db $2F		;[Note] 48
    2105.  0E:0D93                      				;[Skip delay] 1
    2106.  0E:0D93  60                  	db $60		;[Note] 97
    2107.  0E:0D94                      				;[Skip delay] 1
    2108.  0E:0D94  2D                  	db $2D		;[Note] 46
    2109.  0E:0D95  C4                  	db $C4		;[Wait] 5
    2110.  0E:0D96  60                  	db $60		;[Note] 97
    2111.  0E:0D97  C0                  	db $C0		;[Wait] 1
    2112.  0E:0D98  2F                  	db $2F		;[Note] 48
    2113.  0E:0D99  C4                  	db $C4		;[Wait] 5
    2114.  0E:0D9A  60                  	db $60		;[Note] 97
    2115.  0E:0D9B  C0                  	db $C0		;[Wait] 1
    2116.  0E:0D9C  31                  	db $31		;[Note] 50
    2117.  0E:0D9D  C3                  	db $C3		;[Wait] 4
    2118.  0E:0D9E  2F                  	db $2F		;[Note] 48
    2119.  0E:0D9F  C2                  	db $C2		;[Wait] 3
    2120.  0E:0DA0  60                  	db $60		;[Note] 97
    2121.  0E:0DA1                      				;[Skip delay] 3
    2122.  0E:0DA1  2A                  	db $2A		;[Note] 43
    2123.  0E:0DA2  C1                  	db $C1		;[Wait] 2
    2124.  0E:0DA3  2A                  	db $2A		;[Note] 43
    2125.  0E:0DA4  D4                  	db $D4		;[Wait] 21
    2126.  0E:0DA5  BF                  	db $BF		;[End-Of-Track]
    2127.  0E:0DA6                      .track_54:
    2128.  0E:0DA6  2A                  	db $2A		;[Note] 43
    2129.  0E:0DA7  6F                  	db $6F		;[Volume] 15
    2130.  0E:0DA8  82                  	db $82		;[Instrument] 19
    2131.  0E:0DA9  C2                  	db $C2		;[Wait] 3
    2132.  0E:0DAA  2A                  	db $2A		;[Note] 43
    2133.  0E:0DAB  67                  	db $67		;[Volume] 7
    2134.  0E:0DAC                      				;[Skip delay] 3
    2135.  0E:0DAC  22                  	db $22		;[Note] 35
    2136.  0E:0DAD  6F                  	db $6F		;[Volume] 15
    2137.  0E:0DAE                      				;[Skip delay] 3
    2138.  0E:0DAE  22                  	db $22		;[Note] 35
    2139.  0E:0DAF  67                  	db $67		;[Volume] 7
    2140.  0E:0DB0                      				;[Skip delay] 3
    2141.  0E:0DB0  39                  	db $39		;[Note] 58
    2142.  0E:0DB1  6F                  	db $6F		;[Volume] 15
    2143.  0E:0DB2  84                  	db $84		;[Instrument] 21
    2144.  0E:0DB3  C3                  	db $C3		;[Wait] 4
    2145.  0E:0DB4  26                  	db $26		;[Note] 39
    2146.  0E:0DB5  82                  	db $82		;[Instrument] 19
    2147.  0E:0DB6  C2                  	db $C2		;[Wait] 3
    2148.  0E:0DB7  26                  	db $26		;[Note] 39
    2149.  0E:0DB8  67                  	db $67		;[Volume] 7
    2150.  0E:0DB9                      				;[Skip delay] 3
    2151.  0E:0DB9  1E                  	db $1E		;[Note] 31
    2152.  0E:0DBA  6F                  	db $6F		;[Volume] 15
    2153.  0E:0DBB                      				;[Skip delay] 3
    2154.  0E:0DBB  1E                  	db $1E		;[Note] 31
    2155.  0E:0DBC  67                  	db $67		;[Volume] 7
    2156.  0E:0DBD                      				;[Skip delay] 3
    2157.  0E:0DBD  39                  	db $39		;[Note] 58
    2158.  0E:0DBE  6F                  	db $6F		;[Volume] 15
    2159.  0E:0DBF  84                  	db $84		;[Instrument] 21
    2160.  0E:0DC0  C3                  	db $C3		;[Wait] 4
    2161.  0E:0DC1  23                  	db $23		;[Note] 36
    2162.  0E:0DC2  83                  	db $83		;[Instrument] 20
    2163.  0E:0DC3                      				;[Skip delay] 4
    2164.  0E:0DC3  23                  	db $23		;[Note] 36
    2165.  0E:0DC4                      				;[Skip delay] 4
    2166.  0E:0DC4  23                  	db $23		;[Note] 36
    2167.  0E:0DC5  81                  	db $81		;[Instrument] 18
    2168.  0E:0DC6  C2                  	db $C2		;[Wait] 3
    2169.  0E:0DC7  23                  	db $23		;[Note] 36
    2170.  0E:0DC8  67                  	db $67		;[Volume] 7
    2171.  0E:0DC9  C0                  	db $C0		;[Wait] 1
    2172.  0E:0DCA  23                  	db $23		;[Note] 36
    2173.  0E:0DCB  6F                  	db $6F		;[Volume] 15
    2174.  0E:0DCC  83                  	db $83		;[Instrument] 20
    2175.  0E:0DCD  C1                  	db $C1		;[Wait] 2
    2176.  0E:0DCE  23                  	db $23		;[Note] 36
    2177.  0E:0DCF                      				;[Skip delay] 2
    2178.  0E:0DCF  2A                  	db $2A		;[Note] 43
    2179.  0E:0DD0  82                  	db $82		;[Instrument] 19
    2180.  0E:0DD1                      				;[Skip delay] 2
    2181.  0E:0DD1  2A                  	db $2A		;[Note] 43
    2182.  0E:0DD2  C2                  	db $C2		;[Wait] 3
    2183.  0E:0DD3  2A                  	db $2A		;[Note] 43
    2184.  0E:0DD4  67                  	db $67		;[Volume] 7
    2185.  0E:0DD5  C0                  	db $C0		;[Wait] 1
    2186.  0E:0DD6  2A                  	db $2A		;[Note] 43
    2187.  0E:0DD7  6F                  	db $6F		;[Volume] 15
    2188.  0E:0DD8  C2                  	db $C2		;[Wait] 3
    2189.  0E:0DD9  2A                  	db $2A		;[Note] 43
    2190.  0E:0DDA  67                  	db $67		;[Volume] 7
    2191.  0E:0DDB  C0                  	db $C0		;[Wait] 1
    2192.  0E:0DDC  2A                  	db $2A		;[Note] 43
    2193.  0E:0DDD  6F                  	db $6F		;[Volume] 15
    2194.  0E:0DDE  C1                  	db $C1		;[Wait] 2
    2195.  0E:0DDF  26                  	db $26		;[Note] 39
    2196.  0E:0DE0                      				;[Skip delay] 2
    2197.  0E:0DE0  22                  	db $22		;[Note] 35
    2198.  0E:0DE1                      				;[Skip delay] 2
    2199.  0E:0DE1  BF                  	db $BF		;[End-Of-Track]
    2200.  0E:0DE2                      .track_55:
    2201.  0E:0DE2  13                  	db $13		;[Note] 20
    2202.  0E:0DE3  7D                  	db $7D		;[Instrument] 14
    2203.  0E:0DE4  C5                  	db $C5		;[Wait] 6
    2204.  0E:0DE5  13                  	db $13		;[Note] 20
    2205.  0E:0DE6  C1                  	db $C1		;[Wait] 2
    2206.  0E:0DE7  1F                  	db $1F		;[Note] 32
    2207.  0E:0DE8  C3                  	db $C3		;[Wait] 4
    2208.  0E:0DE9  13                  	db $13		;[Note] 20
    2209.  0E:0DEA                      				;[Skip delay] 4
    2210.  0E:0DEA  15                  	db $15		;[Note] 22
    2211.  0E:0DEB  C5                  	db $C5		;[Wait] 6
    2212.  0E:0DEC  15                  	db $15		;[Note] 22
    2213.  0E:0DED  C1                  	db $C1		;[Wait] 2
    2214.  0E:0DEE  21                  	db $21		;[Note] 34
    2215.  0E:0DEF  C3                  	db $C3		;[Wait] 4
    2216.  0E:0DF0  15                  	db $15		;[Note] 22
    2217.  0E:0DF1                      				;[Skip delay] 4
    2218.  0E:0DF1  17                  	db $17		;[Note] 24
    2219.  0E:0DF2  7F                  	db $7F		;[Instrument] 16
    2220.  0E:0DF3  C5                  	db $C5		;[Wait] 6
    2221.  0E:0DF4  17                  	db $17		;[Note] 24
    2222.  0E:0DF5  C1                  	db $C1		;[Wait] 2
    2223.  0E:0DF6  23                  	db $23		;[Note] 36
    2224.  0E:0DF7  C3                  	db $C3		;[Wait] 4
    2225.  0E:0DF8  17                  	db $17		;[Note] 24
    2226.  0E:0DF9                      				;[Skip delay] 4
    2227.  0E:0DF9  23                  	db $23		;[Note] 36
    2228.  0E:0DFA                      				;[Skip delay] 4
    2229.  0E:0DFA  1E                  	db $1E		;[Note] 31
    2230.  0E:0DFB                      				;[Skip delay] 4
    2231.  0E:0DFB  21                  	db $21		;[Note] 34
    2232.  0E:0DFC                      				;[Skip delay] 4
    2233.  0E:0DFC  1E                  	db $1E		;[Note] 31
    2234.  0E:0DFD                      				;[Skip delay] 4
    2235.  0E:0DFD  BF                  	db $BF		;[End-Of-Track]
    2236.  0E:0DFE                      .track_56:
    2237.  0E:0DFE  2B                  	db $2B		;[Note] 44
    2238.  0E:0DFF  C5                  	db $C5		;[Wait] 6
    2239.  0E:0E00  2F                  	db $2F		;[Note] 48
    2240.  0E:0E01                      				;[Skip delay] 6
    2241.  0E:0E01  2B                  	db $2B		;[Note] 44
    2242.  0E:0E02  C3                  	db $C3		;[Wait] 4
    2243.  0E:0E03  2D                  	db $2D		;[Note] 46
    2244.  0E:0E04  C5                  	db $C5		;[Wait] 6
    2245.  0E:0E05  2F                  	db $2F		;[Note] 48
    2246.  0E:0E06                      				;[Skip delay] 6
    2247.  0E:0E06  31                  	db $31		;[Note] 50
    2248.  0E:0E07  C3                  	db $C3		;[Wait] 4
    2249.  0E:0E08  2F                  	db $2F		;[Note] 48
    2250.  0E:0E09  DF                  	db $DF		;[Wait] 32
    2251.  0E:0E0A  BF                  	db $BF		;[End-Of-Track]
    2252.  0E:0E0B                      .track_57:
    2253.  0E:0E0B  23                  	db $23		;[Note] 36
    2254.  0E:0E0C  6F                  	db $6F		;[Volume] 15
    2255.  0E:0E0D  74                  	db $74		;[Instrument] 5
    2256.  0E:0E0E  C5                  	db $C5		;[Wait] 6
    2257.  0E:0E0F  2A                  	db $2A		;[Note] 43
    2258.  0E:0E10                      				;[Skip delay] 6
    2259.  0E:0E10  28                  	db $28		;[Note] 41
    2260.  0E:0E11  C3                  	db $C3		;[Wait] 4
    2261.  0E:0E12  2A                  	db $2A		;[Note] 43
    2262.  0E:0E13  C5                  	db $C5		;[Wait] 6
    2263.  0E:0E14  2A                  	db $2A		;[Note] 43
    2264.  0E:0E15                      				;[Skip delay] 6
    2265.  0E:0E15  2D                  	db $2D		;[Note] 46
    2266.  0E:0E16  C3                  	db $C3		;[Wait] 4
    2267.  0E:0E17  2A                  	db $2A		;[Note] 43
    2268.  0E:0E18  DE                  	db $DE		;[Wait] 31
    2269.  0E:0E19  C0                  	db $C0		;[Wait] 1
    2270.  0E:0E1A  BF                  	db $BF		;[End-Of-Track]
    2271.  0E:0E1B                      .track_58:
    2272.  0E:0E1B  37                  	db $37		;[Note] 56
    2273.  0E:0E1C  C5                  	db $C5		;[Wait] 6
    2274.  0E:0E1D  3B                  	db $3B		;[Note] 60
    2275.  0E:0E1E                      				;[Skip delay] 6
    2276.  0E:0E1E  37                  	db $37		;[Note] 56
    2277.  0E:0E1F  C3                  	db $C3		;[Wait] 4
    2278.  0E:0E20  39                  	db $39		;[Note] 58
    2279.  0E:0E21  C5                  	db $C5		;[Wait] 6
    2280.  0E:0E22  3B                  	db $3B		;[Note] 60
    2281.  0E:0E23                      				;[Skip delay] 6
    2282.  0E:0E23  3D                  	db $3D		;[Note] 62
    2283.  0E:0E24  C3                  	db $C3		;[Wait] 4
    2284.  0E:0E25  3B                  	db $3B		;[Note] 60
    2285.  0E:0E26  DF                  	db $DF		;[Wait] 32
    2286.  0E:0E27  BF                  	db $BF		;[End-Of-Track]
    2287.  0E:0E28                      .track_59:
    2288.  0E:0E28  07                  	db $07		;[Note] 8
    2289.  0E:0E29  C5                  	db $C5		;[Wait] 6
    2290.  0E:0E2A  07                  	db $07		;[Note] 8
    2291.  0E:0E2B  C1                  	db $C1		;[Wait] 2
    2292.  0E:0E2C  13                  	db $13		;[Note] 20
    2293.  0E:0E2D  C3                  	db $C3		;[Wait] 4
    2294.  0E:0E2E  07                  	db $07		;[Note] 8
    2295.  0E:0E2F                      				;[Skip delay] 4
    2296.  0E:0E2F  09                  	db $09		;[Note] 10
    2297.  0E:0E30  C5                  	db $C5		;[Wait] 6
    2298.  0E:0E31  09                  	db $09		;[Note] 10
    2299.  0E:0E32  C1                  	db $C1		;[Wait] 2
    2300.  0E:0E33  15                  	db $15		;[Note] 22
    2301.  0E:0E34  C3                  	db $C3		;[Wait] 4
    2302.  0E:0E35  09                  	db $09		;[Note] 10
    2303.  0E:0E36                      				;[Skip delay] 4
    2304.  0E:0E36  0B                  	db $0B		;[Note] 12
    2305.  0E:0E37  C5                  	db $C5		;[Wait] 6
    2306.  0E:0E38  0B                  	db $0B		;[Note] 12
    2307.  0E:0E39  C1                  	db $C1		;[Wait] 2
    2308.  0E:0E3A  17                  	db $17		;[Note] 24
    2309.  0E:0E3B  C3                  	db $C3		;[Wait] 4
    2310.  0E:0E3C  0B                  	db $0B		;[Note] 12
    2311.  0E:0E3D                      				;[Skip delay] 4
    2312.  0E:0E3D  17                  	db $17		;[Note] 24
    2313.  0E:0E3E                      				;[Skip delay] 4
    2314.  0E:0E3E  12                  	db $12		;[Note] 19
    2315.  0E:0E3F                      				;[Skip delay] 4
    2316.  0E:0E3F  15                  	db $15		;[Note] 22
    2317.  0E:0E40                      				;[Skip delay] 4
    2318.  0E:0E40  12                  	db $12		;[Note] 19
    2319.  0E:0E41                      				;[Skip delay] 4
    2320.  0E:0E41  BF                  	db $BF		;[End-Of-Track]
    2321.  0E:0E42                      .track_60:
    2322.  0E:0E42  C2                  	db $C2		;[Wait] 3
    2323.  0E:0E43  2B                  	db $2B		;[Note] 44
    2324.  0E:0E44  C5                  	db $C5		;[Wait] 6
    2325.  0E:0E45  2F                  	db $2F		;[Note] 48
    2326.  0E:0E46                      				;[Skip delay] 6
    2327.  0E:0E46  2B                  	db $2B		;[Note] 44
    2328.  0E:0E47  C3                  	db $C3		;[Wait] 4
    2329.  0E:0E48  2D                  	db $2D		;[Note] 46
    2330.  0E:0E49  C5                  	db $C5		;[Wait] 6
    2331.  0E:0E4A  2F                  	db $2F		;[Note] 48
    2332.  0E:0E4B                      				;[Skip delay] 6
    2333.  0E:0E4B  31                  	db $31		;[Note] 50
    2334.  0E:0E4C  C3                  	db $C3		;[Wait] 4
    2335.  0E:0E4D  2F                  	db $2F		;[Note] 48
    2336.  0E:0E4E  DC                  	db $DC		;[Wait] 29
    2337.  0E:0E4F  BF                  	db $BF		;[End-Of-Track]
    2338.  0E:0E50                      .track_61:
    2339.  0E:0E50  23                  	db $23		;[Note] 36
    2340.  0E:0E51  6F                  	db $6F		;[Volume] 15
    2341.  0E:0E52  83                  	db $83		;[Instrument] 20
    2342.  0E:0E53  C1                  	db $C1		;[Wait] 2
    2343.  0E:0E54  23                  	db $23		;[Note] 36
    2344.  0E:0E55  C3                  	db $C3		;[Wait] 4
    2345.  0E:0E56  23                  	db $23		;[Note] 36
    2346.  0E:0E57  81                  	db $81		;[Instrument] 18
    2347.  0E:0E58  C2                  	db $C2		;[Wait] 3
    2348.  0E:0E59  23                  	db $23		;[Note] 36
    2349.  0E:0E5A  67                  	db $67		;[Volume] 7
    2350.  0E:0E5B  C0                  	db $C0		;[Wait] 1
    2351.  0E:0E5C  23                  	db $23		;[Note] 36
    2352.  0E:0E5D  6F                  	db $6F		;[Volume] 15
    2353.  0E:0E5E  83                  	db $83		;[Instrument] 20
    2354.  0E:0E5F  C1                  	db $C1		;[Wait] 2
    2355.  0E:0E60  23                  	db $23		;[Note] 36
    2356.  0E:0E61  81                  	db $81		;[Instrument] 18
    2357.  0E:0E62  C2                  	db $C2		;[Wait] 3
    2358.  0E:0E63  23                  	db $23		;[Note] 36
    2359.  0E:0E64  67                  	db $67		;[Volume] 7
    2360.  0E:0E65                      				;[Skip delay] 3
    2361.  0E:0E65  23                  	db $23		;[Note] 36
    2362.  0E:0E66  6F                  	db $6F		;[Volume] 15
    2363.  0E:0E67  83                  	db $83		;[Instrument] 20
    2364.  0E:0E68  C5                  	db $C5		;[Wait] 6
    2365.  0E:0E69  23                  	db $23		;[Note] 36
    2366.  0E:0E6A  81                  	db $81		;[Instrument] 18
    2367.  0E:0E6B  C2                  	db $C2		;[Wait] 3
    2368.  0E:0E6C  23                  	db $23		;[Note] 36
    2369.  0E:0E6D  67                  	db $67		;[Volume] 7
    2370.  0E:0E6E  CA                  	db $CA		;[Wait] 11
    2371.  0E:0E6F  23                  	db $23		;[Note] 36
    2372.  0E:0E70  6F                  	db $6F		;[Volume] 15
    2373.  0E:0E71  C2                  	db $C2		;[Wait] 3
    2374.  0E:0E72  23                  	db $23		;[Note] 36
    2375.  0E:0E73  67                  	db $67		;[Volume] 7
    2376.  0E:0E74  CC                  	db $CC		;[Wait] 13
    2377.  0E:0E75  23                  	db $23		;[Note] 36
    2378.  0E:0E76  6F                  	db $6F		;[Volume] 15
    2379.  0E:0E77  C2                  	db $C2		;[Wait] 3
    2380.  0E:0E78  23                  	db $23		;[Note] 36
    2381.  0E:0E79  67                  	db $67		;[Volume] 7
    2382.  0E:0E7A  C6                  	db $C6		;[Wait] 7
    2383.  0E:0E7B  BF                  	db $BF		;[End-Of-Track]
    2384.  0E:0E7C                      .track_62:
    2385.  0E:0E7C  1E                  	db $1E		;[Note] 31
    2386.  0E:0E7D  6F                  	db $6F		;[Volume] 15
    2387.  0E:0E7E  7F                  	db $7F		;[Instrument] 16
    2388.  0E:0E7F  C1                  	db $C1		;[Wait] 2
    2389.  0E:0E80  1F                  	db $1F		;[Note] 32
    2390.  0E:0E81                      				;[Skip delay] 2
    2391.  0E:0E81  60                  	db $60		;[Note] 97
    2392.  0E:0E82                      				;[Skip delay] 2
    2393.  0E:0E82  1F                  	db $1F		;[Note] 32
    2394.  0E:0E83  7D                  	db $7D		;[Instrument] 14
    2395.  0E:0E84  C3                  	db $C3		;[Wait] 4
    2396.  0E:0E85  1E                  	db $1E		;[Note] 31
    2397.  0E:0E86  7F                  	db $7F		;[Instrument] 16
    2398.  0E:0E87  C1                  	db $C1		;[Wait] 2
    2399.  0E:0E88  1F                  	db $1F		;[Note] 32
    2400.  0E:0E89  7D                  	db $7D		;[Instrument] 14
    2401.  0E:0E8A                      				;[Skip delay] 2
    2402.  0E:0E8A  60                  	db $60		;[Note] 97
    2403.  0E:0E8B  C5                  	db $C5		;[Wait] 6
    2404.  0E:0E8C  1F                  	db $1F		;[Note] 32
    2405.  0E:0E8D  80                  	db $80		;[Instrument] 17
    2406.  0E:0E8E  C1                  	db $C1		;[Wait] 2
    2407.  0E:0E8F  1F                  	db $1F		;[Note] 32
    2408.  0E:0E90  C5                  	db $C5		;[Wait] 6
    2409.  0E:0E91  21                  	db $21		;[Note] 34
    2410.  0E:0E92  C3                  	db $C3		;[Wait] 4
    2411.  0E:0E93  21                  	db $21		;[Note] 34
    2412.  0E:0E94  7F                  	db $7F		;[Instrument] 16
    2413.  0E:0E95  C5                  	db $C5		;[Wait] 6
    2414.  0E:0E96  23                  	db $23		;[Note] 36
    2415.  0E:0E97  7D                  	db $7D		;[Instrument] 14
    2416.  0E:0E98                      				;[Skip delay] 6
    2417.  0E:0E98  25                  	db $25		;[Note] 38
    2418.  0E:0E99  7F                  	db $7F		;[Instrument] 16
    2419.  0E:0E9A  C3                  	db $C3		;[Wait] 4
    2420.  0E:0E9B  26                  	db $26		;[Note] 39
    2421.  0E:0E9C  C5                  	db $C5		;[Wait] 6
    2422.  0E:0E9D  25                  	db $25		;[Note] 38
    2423.  0E:0E9E  7D                  	db $7D		;[Instrument] 14
    2424.  0E:0E9F                      				;[Skip delay] 6
    2425.  0E:0E9F  21                  	db $21		;[Note] 34
    2426.  0E:0EA0  7F                  	db $7F		;[Instrument] 16
    2427.  0E:0EA1  C3                  	db $C3		;[Wait] 4
    2428.  0E:0EA2  BF                  	db $BF		;[End-Of-Track]
    2429.  0E:0EA3                      .track_63:
    2430.  0E:0EA3  2B                  	db $2B		;[Note] 44
    2431.  0E:0EA4  6F                  	db $6F		;[Volume] 15
    2432.  0E:0EA5  70                  	db $70		;[Instrument] 1
    2433.  0E:0EA6  C5                  	db $C5		;[Wait] 6
    2434.  0E:0EA7  3B                  	db $3B		;[Note] 60
    2435.  0E:0EA8  6B                  	db $6B		;[Volume] 11
    2436.  0E:0EA9  84                  	db $84		;[Instrument] 21
    2437.  0E:0EAA  C9                  	db $C9		;[Wait] 10
    2438.  0E:0EAB  2B                  	db $2B		;[Note] 44
    2439.  0E:0EAC  6F                  	db $6F		;[Volume] 15
    2440.  0E:0EAD  70                  	db $70		;[Instrument] 1
    2441.  0E:0EAE  C5                  	db $C5		;[Wait] 6
    2442.  0E:0EAF  2D                  	db $2D		;[Note] 46
    2443.  0E:0EB0                      				;[Skip delay] 6
    2444.  0E:0EB0  2F                  	db $2F		;[Note] 48
    2445.  0E:0EB1  C3                  	db $C3		;[Wait] 4
    2446.  0E:0EB2  31                  	db $31		;[Note] 50
    2447.  0E:0EB3  C5                  	db $C5		;[Wait] 6
    2448.  0E:0EB4  3B                  	db $3B		;[Note] 60
    2449.  0E:0EB5  6B                  	db $6B		;[Volume] 11
    2450.  0E:0EB6  84                  	db $84		;[Instrument] 21
    2451.  0E:0EB7  C9                  	db $C9		;[Wait] 10
    2452.  0E:0EB8  2D                  	db $2D		;[Note] 46
    2453.  0E:0EB9  6F                  	db $6F		;[Volume] 15
    2454.  0E:0EBA  70                  	db $70		;[Instrument] 1
    2455.  0E:0EBB  C5                  	db $C5		;[Wait] 6
    2456.  0E:0EBC  3B                  	db $3B		;[Note] 60
    2457.  0E:0EBD  6B                  	db $6B		;[Volume] 11
    2458.  0E:0EBE  84                  	db $84		;[Instrument] 21
    2459.  0E:0EBF  C9                  	db $C9		;[Wait] 10
    2460.  0E:0EC0  BF                  	db $BF		;[End-Of-Track]
    2461.  0E:0EC1                      .track_64:
    2462.  0E:0EC1  37                  	db $37		;[Note] 56
    2463.  0E:0EC2  6B                  	db $6B		;[Volume] 11
    2464.  0E:0EC3  73                  	db $73		;[Instrument] 4
    2465.  0E:0EC4  CF                  	db $CF		;[Wait] 16
    2466.  0E:0EC5  34                  	db $34		;[Note] 53
    2467.  0E:0EC6                      				;[Skip delay] 16
    2468.  0E:0EC6  39                  	db $39		;[Note] 58
    2469.  0E:0EC7                      				;[Skip delay] 16
    2470.  0E:0EC7  3D                  	db $3D		;[Note] 62
    2471.  0E:0EC8                      				;[Skip delay] 16
    2472.  0E:0EC8  BF                  	db $BF		;[End-Of-Track]
    2473.  0E:0EC9                      .track_65:
    2474.  0E:0EC9  12                  	db $12		;[Note] 19
    2475.  0E:0ECA  C1                  	db $C1		;[Wait] 2
    2476.  0E:0ECB  13                  	db $13		;[Note] 20
    2477.  0E:0ECC                      				;[Skip delay] 2
    2478.  0E:0ECC  60                  	db $60		;[Note] 97
    2479.  0E:0ECD                      				;[Skip delay] 2
    2480.  0E:0ECD  13                  	db $13		;[Note] 20
    2481.  0E:0ECE  C3                  	db $C3		;[Wait] 4
    2482.  0E:0ECF  12                  	db $12		;[Note] 19
    2483.  0E:0ED0  C1                  	db $C1		;[Wait] 2
    2484.  0E:0ED1  13                  	db $13		;[Note] 20
    2485.  0E:0ED2                      				;[Skip delay] 2
    2486.  0E:0ED2  60                  	db $60		;[Note] 97
    2487.  0E:0ED3  D1                  	db $D1		;[Wait] 18
    2488.  0E:0ED4  15                  	db $15		;[Note] 22
    2489.  0E:0ED5  C5                  	db $C5		;[Wait] 6
    2490.  0E:0ED6  17                  	db $17		;[Note] 24
    2491.  0E:0ED7                      				;[Skip delay] 6
    2492.  0E:0ED7  19                  	db $19		;[Note] 26
    2493.  0E:0ED8  C3                  	db $C3		;[Wait] 4
    2494.  0E:0ED9  1A                  	db $1A		;[Note] 27
    2495.  0E:0EDA  C5                  	db $C5		;[Wait] 6
    2496.  0E:0EDB  19                  	db $19		;[Note] 26
    2497.  0E:0EDC                      				;[Skip delay] 6
    2498.  0E:0EDC  15                  	db $15		;[Note] 22
    2499.  0E:0EDD  C3                  	db $C3		;[Wait] 4
    2500.  0E:0EDE  BF                  	db $BF		;[End-Of-Track]
    2501.  0E:0EDF                      .track_66:
    2502.  0E:0EDF  2B                  	db $2B		;[Note] 44
    2503.  0E:0EE0  CF                  	db $CF		;[Wait] 16
    2504.  0E:0EE1  2B                  	db $2B		;[Note] 44
    2505.  0E:0EE2  C5                  	db $C5		;[Wait] 6
    2506.  0E:0EE3  2D                  	db $2D		;[Note] 46
    2507.  0E:0EE4                      				;[Skip delay] 6
    2508.  0E:0EE4  2F                  	db $2F		;[Note] 48
    2509.  0E:0EE5  C3                  	db $C3		;[Wait] 4
    2510.  0E:0EE6  31                  	db $31		;[Note] 50
    2511.  0E:0EE7  CF                  	db $CF		;[Wait] 16
    2512.  0E:0EE8  2D                  	db $2D		;[Note] 46
    2513.  0E:0EE9                      				;[Skip delay] 16
    2514.  0E:0EE9  BF                  	db $BF		;[End-Of-Track]
    2515.  0E:0EEA                      .track_67:
    2516.  0E:0EEA  C2                  	db $C2		;[Wait] 3
    2517.  0E:0EEB  2B                  	db $2B		;[Note] 44
    2518.  0E:0EEC  CF                  	db $CF		;[Wait] 16
    2519.  0E:0EED  2B                  	db $2B		;[Note] 44
    2520.  0E:0EEE  C5                  	db $C5		;[Wait] 6
    2521.  0E:0EEF  2D                  	db $2D		;[Note] 46
    2522.  0E:0EF0                      				;[Skip delay] 6
    2523.  0E:0EF0  2F                  	db $2F		;[Note] 48
    2524.  0E:0EF1  C3                  	db $C3		;[Wait] 4
    2525.  0E:0EF2  31                  	db $31		;[Note] 50
    2526.  0E:0EF3  CF                  	db $CF		;[Wait] 16
    2527.  0E:0EF4  2D                  	db $2D		;[Note] 46
    2528.  0E:0EF5  CC                  	db $CC		;[Wait] 13
    2529.  0E:0EF6  BF                  	db $BF		;[End-Of-Track]
    2530.  0E:0EF7                      .track_68:
    2531.  0E:0EF7  23                  	db $23		;[Note] 36
    2532.  0E:0EF8  6F                  	db $6F		;[Volume] 15
    2533.  0E:0EF9  83                  	db $83		;[Instrument] 20
    2534.  0E:0EFA  C1                  	db $C1		;[Wait] 2
    2535.  0E:0EFB  23                  	db $23		;[Note] 36
    2536.  0E:0EFC  C3                  	db $C3		;[Wait] 4
    2537.  0E:0EFD  23                  	db $23		;[Note] 36
    2538.  0E:0EFE  81                  	db $81		;[Instrument] 18
    2539.  0E:0EFF  C2                  	db $C2		;[Wait] 3
    2540.  0E:0F00  23                  	db $23		;[Note] 36
    2541.  0E:0F01  67                  	db $67		;[Volume] 7
    2542.  0E:0F02  C0                  	db $C0		;[Wait] 1
    2543.  0E:0F03  23                  	db $23		;[Note] 36
    2544.  0E:0F04  6F                  	db $6F		;[Volume] 15
    2545.  0E:0F05  83                  	db $83		;[Instrument] 20
    2546.  0E:0F06  C1                  	db $C1		;[Wait] 2
    2547.  0E:0F07  23                  	db $23		;[Note] 36
    2548.  0E:0F08  81                  	db $81		;[Instrument] 18
    2549.  0E:0F09  C2                  	db $C2		;[Wait] 3
    2550.  0E:0F0A  23                  	db $23		;[Note] 36
    2551.  0E:0F0B  67                  	db $67		;[Volume] 7
    2552.  0E:0F0C                      				;[Skip delay] 3
    2553.  0E:0F0C  23                  	db $23		;[Note] 36
    2554.  0E:0F0D  6F                  	db $6F		;[Volume] 15
    2555.  0E:0F0E  83                  	db $83		;[Instrument] 20
    2556.  0E:0F0F  C5                  	db $C5		;[Wait] 6
    2557.  0E:0F10  23                  	db $23		;[Note] 36
    2558.  0E:0F11  81                  	db $81		;[Instrument] 18
    2559.  0E:0F12  C2                  	db $C2		;[Wait] 3
    2560.  0E:0F13  23                  	db $23		;[Note] 36
    2561.  0E:0F14  67                  	db $67		;[Volume] 7
    2562.  0E:0F15  C4                  	db $C4		;[Wait] 5
    2563.  0E:0F16  26                  	db $26		;[Note] 39
    2564.  0E:0F17  6F                  	db $6F		;[Volume] 15
    2565.  0E:0F18  82                  	db $82		;[Instrument] 19
    2566.  0E:0F19  C2                  	db $C2		;[Wait] 3
    2567.  0E:0F1A  26                  	db $26		;[Note] 39
    2568.  0E:0F1B  67                  	db $67		;[Volume] 7
    2569.  0E:0F1C                      				;[Skip delay] 3
    2570.  0E:0F1C  1E                  	db $1E		;[Note] 31
    2571.  0E:0F1D  6F                  	db $6F		;[Volume] 15
    2572.  0E:0F1E                      				;[Skip delay] 3
    2573.  0E:0F1E  1E                  	db $1E		;[Note] 31
    2574.  0E:0F1F  67                  	db $67		;[Volume] 7
    2575.  0E:0F20                      				;[Skip delay] 3
    2576.  0E:0F20  23                  	db $23		;[Note] 36
    2577.  0E:0F21  6F                  	db $6F		;[Volume] 15
    2578.  0E:0F22  83                  	db $83		;[Instrument] 20
    2579.  0E:0F23  C3                  	db $C3		;[Wait] 4
    2580.  0E:0F24  22                  	db $22		;[Note] 35
    2581.  0E:0F25  82                  	db $82		;[Instrument] 19
    2582.  0E:0F26  C2                  	db $C2		;[Wait] 3
    2583.  0E:0F27  22                  	db $22		;[Note] 35
    2584.  0E:0F28  67                  	db $67		;[Volume] 7
    2585.  0E:0F29                      				;[Skip delay] 3
    2586.  0E:0F29  1E                  	db $1E		;[Note] 31
    2587.  0E:0F2A  6F                  	db $6F		;[Volume] 15
    2588.  0E:0F2B                      				;[Skip delay] 3
    2589.  0E:0F2B  1E                  	db $1E		;[Note] 31
    2590.  0E:0F2C  67                  	db $67		;[Volume] 7
    2591.  0E:0F2D                      				;[Skip delay] 3
    2592.  0E:0F2D  23                  	db $23		;[Note] 36
    2593.  0E:0F2E  6F                  	db $6F		;[Volume] 15
    2594.  0E:0F2F  83                  	db $83		;[Instrument] 20
    2595.  0E:0F30  C3                  	db $C3		;[Wait] 4
    2596.  0E:0F31  BF                  	db $BF		;[End-Of-Track]
    2597.  0E:0F32                      .track_69:
    2598.  0E:0F32  1C                  	db $1C		;[Note] 29
    2599.  0E:0F33  6F                  	db $6F		;[Volume] 15
    2600.  0E:0F34  7F                  	db $7F		;[Instrument] 16
    2601.  0E:0F35  C1                  	db $C1		;[Wait] 2
    2602.  0E:0F36  1E                  	db $1E		;[Note] 31
    2603.  0E:0F37                      				;[Skip delay] 2
    2604.  0E:0F37  60                  	db $60		;[Note] 97
    2605.  0E:0F38                      				;[Skip delay] 2
    2606.  0E:0F38  1E                  	db $1E		;[Note] 31
    2607.  0E:0F39  7D                  	db $7D		;[Instrument] 14
    2608.  0E:0F3A  C3                  	db $C3		;[Wait] 4
    2609.  0E:0F3B  1C                  	db $1C		;[Note] 29
    2610.  0E:0F3C  7F                  	db $7F		;[Instrument] 16
    2611.  0E:0F3D  C1                  	db $C1		;[Wait] 2
    2612.  0E:0F3E  1E                  	db $1E		;[Note] 31
    2613.  0E:0F3F  7D                  	db $7D		;[Instrument] 14
    2614.  0E:0F40                      				;[Skip delay] 2
    2615.  0E:0F40  60                  	db $60		;[Note] 97
    2616.  0E:0F41  C5                  	db $C5		;[Wait] 6
    2617.  0E:0F42  1F                  	db $1F		;[Note] 32
    2618.  0E:0F43  80                  	db $80		;[Instrument] 17
    2619.  0E:0F44  C1                  	db $C1		;[Wait] 2
    2620.  0E:0F45  1F                  	db $1F		;[Note] 32
    2621.  0E:0F46  C5                  	db $C5		;[Wait] 6
    2622.  0E:0F47  21                  	db $21		;[Note] 34
    2623.  0E:0F48  C3                  	db $C3		;[Wait] 4
    2624.  0E:0F49  1F                  	db $1F		;[Note] 32
    2625.  0E:0F4A  7F                  	db $7F		;[Instrument] 16
    2626.  0E:0F4B                      				;[Skip delay] 4
    2627.  0E:0F4B  1A                  	db $1A		;[Note] 27
    2628.  0E:0F4C  7D                  	db $7D		;[Instrument] 14
    2629.  0E:0F4D                      				;[Skip delay] 4
    2630.  0E:0F4D  1E                  	db $1E		;[Note] 31
    2631.  0E:0F4E                      				;[Skip delay] 4
    2632.  0E:0F4E  1F                  	db $1F		;[Note] 32
    2633.  0E:0F4F  7F                  	db $7F		;[Instrument] 16
    2634.  0E:0F50                      				;[Skip delay] 4
    2635.  0E:0F50  1E                  	db $1E		;[Note] 31
    2636.  0E:0F51                      				;[Skip delay] 4
    2637.  0E:0F51  1A                  	db $1A		;[Note] 27
    2638.  0E:0F52  C1                  	db $C1		;[Wait] 2
    2639.  0E:0F53  7D                  	db $7D		;[Instrument] 14
    2640.  0E:0F54                      				;[Skip delay] 2
    2641.  0E:0F54  1C                  	db $1C		;[Note] 29
    2642.  0E:0F55  C3                  	db $C3		;[Wait] 4
    2643.  0E:0F56  1E                  	db $1E		;[Note] 31
    2644.  0E:0F57  7F                  	db $7F		;[Instrument] 16
    2645.  0E:0F58                      				;[Skip delay] 4
    2646.  0E:0F58  BF                  	db $BF		;[End-Of-Track]
    2647.  0E:0F59                      .track_70:
    2648.  0E:0F59  2A                  	db $2A		;[Note] 43
    2649.  0E:0F5A  6F                  	db $6F		;[Volume] 15
    2650.  0E:0F5B  70                  	db $70		;[Instrument] 1
    2651.  0E:0F5C  CF                  	db $CF		;[Wait] 16
    2652.  0E:0F5D  2A                  	db $2A		;[Note] 43
    2653.  0E:0F5E  C5                  	db $C5		;[Wait] 6
    2654.  0E:0F5F  2B                  	db $2B		;[Note] 44
    2655.  0E:0F60                      				;[Skip delay] 6
    2656.  0E:0F60  2D                  	db $2D		;[Note] 46
    2657.  0E:0F61  C3                  	db $C3		;[Wait] 4
    2658.  0E:0F62  2B                  	db $2B		;[Note] 44
    2659.  0E:0F63  C7                  	db $C7		;[Wait] 8
    2660.  0E:0F64  3B                  	db $3B		;[Note] 60
    2661.  0E:0F65  84                  	db $84		;[Instrument] 21
    2662.  0E:0F66                      				;[Skip delay] 8
    2663.  0E:0F66  2A                  	db $2A		;[Note] 43
    2664.  0E:0F67                      				;[Skip delay] 8
    2665.  0E:0F67  3B                  	db $3B		;[Note] 60
    2666.  0E:0F68                      				;[Skip delay] 8
    2667.  0E:0F68  BF                  	db $BF		;[End-Of-Track]
    2668.  0E:0F69                      .track_71:
    2669.  0E:0F69  36                  	db $36		;[Note] 55
    2670.  0E:0F6A  CF                  	db $CF		;[Wait] 16
    2671.  0E:0F6B  32                  	db $32		;[Note] 51
    2672.  0E:0F6C                      				;[Skip delay] 16
    2673.  0E:0F6C  37                  	db $37		;[Note] 56
    2674.  0E:0F6D                      				;[Skip delay] 16
    2675.  0E:0F6D  36                  	db $36		;[Note] 55
    2676.  0E:0F6E                      				;[Skip delay] 16
    2677.  0E:0F6E  BF                  	db $BF		;[End-Of-Track]
    2678.  0E:0F6F                      .track_72:
    2679.  0E:0F6F  10                  	db $10		;[Note] 17
    2680.  0E:0F70  C1                  	db $C1		;[Wait] 2
    2681.  0E:0F71  12                  	db $12		;[Note] 19
    2682.  0E:0F72                      				;[Skip delay] 2
    2683.  0E:0F72  60                  	db $60		;[Note] 97
    2684.  0E:0F73                      				;[Skip delay] 2
    2685.  0E:0F73  12                  	db $12		;[Note] 19
    2686.  0E:0F74  C3                  	db $C3		;[Wait] 4
    2687.  0E:0F75  10                  	db $10		;[Note] 17
    2688.  0E:0F76  C1                  	db $C1		;[Wait] 2
    2689.  0E:0F77  12                  	db $12		;[Note] 19
    2690.  0E:0F78                      				;[Skip delay] 2
    2691.  0E:0F78  60                  	db $60		;[Note] 97
    2692.  0E:0F79  D1                  	db $D1		;[Wait] 18
    2693.  0E:0F7A  13                  	db $13		;[Note] 20
    2694.  0E:0F7B  C3                  	db $C3		;[Wait] 4
    2695.  0E:0F7C  0E                  	db $0E		;[Note] 15
    2696.  0E:0F7D                      				;[Skip delay] 4
    2697.  0E:0F7D  12                  	db $12		;[Note] 19
    2698.  0E:0F7E                      				;[Skip delay] 4
    2699.  0E:0F7E  13                  	db $13		;[Note] 20
    2700.  0E:0F7F                      				;[Skip delay] 4
    2701.  0E:0F7F  12                  	db $12		;[Note] 19
    2702.  0E:0F80                      				;[Skip delay] 4
    2703.  0E:0F80  0E                  	db $0E		;[Note] 15
    2704.  0E:0F81                      				;[Skip delay] 4
    2705.  0E:0F81  10                  	db $10		;[Note] 17
    2706.  0E:0F82                      				;[Skip delay] 4
    2707.  0E:0F82  12                  	db $12		;[Note] 19
    2708.  0E:0F83                      				;[Skip delay] 4
    2709.  0E:0F83  BF                  	db $BF		;[End-Of-Track]
    2710.  0E:0F84                      .track_73:
    2711.  0E:0F84  2A                  	db $2A		;[Note] 43
    2712.  0E:0F85  CF                  	db $CF		;[Wait] 16
    2713.  0E:0F86  2A                  	db $2A		;[Note] 43
    2714.  0E:0F87  C5                  	db $C5		;[Wait] 6
    2715.  0E:0F88  2B                  	db $2B		;[Note] 44
    2716.  0E:0F89                      				;[Skip delay] 6
    2717.  0E:0F89  2D                  	db $2D		;[Note] 46
    2718.  0E:0F8A  C3                  	db $C3		;[Wait] 4
    2719.  0E:0F8B  2B                  	db $2B		;[Note] 44
    2720.  0E:0F8C  CF                  	db $CF		;[Wait] 16
    2721.  0E:0F8D  2A                  	db $2A		;[Note] 43
    2722.  0E:0F8E                      				;[Skip delay] 16
    2723.  0E:0F8E  BF                  	db $BF		;[End-Of-Track]
    2724.  0E:0F8F                      .track_74:
    2725.  0E:0F8F  C2                  	db $C2		;[Wait] 3
    2726.  0E:0F90  2A                  	db $2A		;[Note] 43
    2727.  0E:0F91  CF                  	db $CF		;[Wait] 16
    2728.  0E:0F92  2A                  	db $2A		;[Note] 43
    2729.  0E:0F93  C5                  	db $C5		;[Wait] 6
    2730.  0E:0F94  2B                  	db $2B		;[Note] 44
    2731.  0E:0F95                      				;[Skip delay] 6
    2732.  0E:0F95  2D                  	db $2D		;[Note] 46
    2733.  0E:0F96  C3                  	db $C3		;[Wait] 4
    2734.  0E:0F97  2B                  	db $2B		;[Note] 44
    2735.  0E:0F98  CF                  	db $CF		;[Wait] 16
    2736.  0E:0F99  2A                  	db $2A		;[Note] 43
    2737.  0E:0F9A  CC                  	db $CC		;[Wait] 13
    2738.  0E:0F9B  BF                  	db $BF		;[End-Of-Track]
    2739.  0E:0F9C                      .track_75:
    2740.  0E:0F9C  2F                  	db $2F		;[Note] 48
    2741.  0E:0F9D  83                  	db $83		;[Instrument] 20
    2742.  0E:0F9E  C5                  	db $C5		;[Wait] 6
    2743.  0E:0F9F  2F                  	db $2F		;[Note] 48
    2744.  0E:0FA0                      				;[Skip delay] 6
    2745.  0E:0FA0  23                  	db $23		;[Note] 36
    2746.  0E:0FA1  6F                  	db $6F		;[Volume] 15
    2747.  0E:0FA2  81                  	db $81		;[Instrument] 18
    2748.  0E:0FA3  C2                  	db $C2		;[Wait] 3
    2749.  0E:0FA4  23                  	db $23		;[Note] 36
    2750.  0E:0FA5  67                  	db $67		;[Volume] 7
    2751.  0E:0FA6  C4                  	db $C4		;[Wait] 5
    2752.  0E:0FA7  26                  	db $26		;[Note] 39
    2753.  0E:0FA8  6F                  	db $6F		;[Volume] 15
    2754.  0E:0FA9  82                  	db $82		;[Instrument] 19
    2755.  0E:0FAA  C2                  	db $C2		;[Wait] 3
    2756.  0E:0FAB  26                  	db $26		;[Note] 39
    2757.  0E:0FAC  67                  	db $67		;[Volume] 7
    2758.  0E:0FAD  C0                  	db $C0		;[Wait] 1
    2759.  0E:0FAE  22                  	db $22		;[Note] 35
    2760.  0E:0FAF  6F                  	db $6F		;[Volume] 15
    2761.  0E:0FB0  C2                  	db $C2		;[Wait] 3
    2762.  0E:0FB1  22                  	db $22		;[Note] 35
    2763.  0E:0FB2  67                  	db $67		;[Volume] 7
    2764.  0E:0FB3  C0                  	db $C0		;[Wait] 1
    2765.  0E:0FB4  1E                  	db $1E		;[Note] 31
    2766.  0E:0FB5  6F                  	db $6F		;[Volume] 15
    2767.  0E:0FB6  C2                  	db $C2		;[Wait] 3
    2768.  0E:0FB7  1E                  	db $1E		;[Note] 31
    2769.  0E:0FB8  67                  	db $67		;[Volume] 7
    2770.  0E:0FB9  C0                  	db $C0		;[Wait] 1
    2771.  0E:0FBA  2F                  	db $2F		;[Note] 48
    2772.  0E:0FBB  6F                  	db $6F		;[Volume] 15
    2773.  0E:0FBC  83                  	db $83		;[Instrument] 20
    2774.  0E:0FBD  C5                  	db $C5		;[Wait] 6
    2775.  0E:0FBE  2F                  	db $2F		;[Note] 48
    2776.  0E:0FBF                      				;[Skip delay] 6
    2777.  0E:0FBF  23                  	db $23		;[Note] 36
    2778.  0E:0FC0  81                  	db $81		;[Instrument] 18
    2779.  0E:0FC1  C2                  	db $C2		;[Wait] 3
    2780.  0E:0FC2  23                  	db $23		;[Note] 36
    2781.  0E:0FC3  67                  	db $67		;[Volume] 7
    2782.  0E:0FC4  C4                  	db $C4		;[Wait] 5
    2783.  0E:0FC5  2F                  	db $2F		;[Note] 48
    2784.  0E:0FC6  83                  	db $83		;[Instrument] 20
    2785.  0E:0FC7  C3                  	db $C3		;[Wait] 4
    2786.  0E:0FC8  23                  	db $23		;[Note] 36
    2787.  0E:0FC9  6F                  	db $6F		;[Volume] 15
    2788.  0E:0FCA  81                  	db $81		;[Instrument] 18
    2789.  0E:0FCB  C2                  	db $C2		;[Wait] 3
    2790.  0E:0FCC  23                  	db $23		;[Note] 36
    2791.  0E:0FCD  67                  	db $67		;[Volume] 7
    2792.  0E:0FCE  C0                  	db $C0		;[Wait] 1
    2793.  0E:0FCF  2F                  	db $2F		;[Note] 48
    2794.  0E:0FD0  6F                  	db $6F		;[Volume] 15
    2795.  0E:0FD1  83                  	db $83		;[Instrument] 20
    2796.  0E:0FD2  C3                  	db $C3		;[Wait] 4
    2797.  0E:0FD3  BF                  	db $BF		;[End-Of-Track]
    2798.  0E:0FD4                      .track_76:
    2799.  0E:0FD4  1C                  	db $1C		;[Note] 29
    2800.  0E:0FD5  7D                  	db $7D		;[Instrument] 14
    2801.  0E:0FD6  C5                  	db $C5		;[Wait] 6
    2802.  0E:0FD7  1C                  	db $1C		;[Note] 29
    2803.  0E:0FD8  74                  	db $74		;[Instrument] 5
    2804.  0E:0FD9  C1                  	db $C1		;[Wait] 2
    2805.  0E:0FDA  60                  	db $60		;[Note] 97
    2806.  0E:0FDB  C3                  	db $C3		;[Wait] 4
    2807.  0E:0FDC  1C                  	db $1C		;[Note] 29
    2808.  0E:0FDD  70                  	db $70		;[Instrument] 1
    2809.  0E:0FDE  C7                  	db $C7		;[Wait] 8
    2810.  0E:0FDF  1A                  	db $1A		;[Note] 27
    2811.  0E:0FE0  C3                  	db $C3		;[Wait] 4
    2812.  0E:0FE1  19                  	db $19		;[Note] 26
    2813.  0E:0FE2                      				;[Skip delay] 4
    2814.  0E:0FE2  1C                  	db $1C		;[Note] 29
    2815.  0E:0FE3                      				;[Skip delay] 4
    2816.  0E:0FE3  1D                  	db $1D		;[Note] 30
    2817.  0E:0FE4  C5                  	db $C5		;[Wait] 6
    2818.  0E:0FE5  1D                  	db $1D		;[Note] 30
    2819.  0E:0FE6  C1                  	db $C1		;[Wait] 2
    2820.  0E:0FE7  60                  	db $60		;[Note] 97
    2821.  0E:0FE8  C3                  	db $C3		;[Wait] 4
    2822.  0E:0FE9  1D                  	db $1D		;[Note] 30
    2823.  0E:0FEA  C7                  	db $C7		;[Wait] 8
    2824.  0E:0FEB  1A                  	db $1A		;[Note] 27
    2825.  0E:0FEC  7F                  	db $7F		;[Instrument] 16
    2826.  0E:0FED  C1                  	db $C1		;[Wait] 2
    2827.  0E:0FEE  1A                  	db $1A		;[Note] 27
    2828.  0E:0FEF  80                  	db $80		;[Instrument] 17
    2829.  0E:0FF0                      				;[Skip delay] 2
    2830.  0E:0FF0  19                  	db $19		;[Note] 26
    2831.  0E:0FF1  7D                  	db $7D		;[Instrument] 14
    2832.  0E:0FF2  C3                  	db $C3		;[Wait] 4
    2833.  0E:0FF3  1D                  	db $1D		;[Note] 30
    2834.  0E:0FF4                      				;[Skip delay] 4
    2835.  0E:0FF4  BF                  	db $BF		;[End-Of-Track]
    2836.  0E:0FF5                      .track_77:
    2837.  0E:0FF5  28                  	db $28		;[Note] 41
    2838.  0E:0FF6  70                  	db $70		;[Instrument] 1
    2839.  0E:0FF7  CB                  	db $CB		;[Wait] 12
    2840.  0E:0FF8  3B                  	db $3B		;[Note] 60
    2841.  0E:0FF9  6B                  	db $6B		;[Volume] 11
    2842.  0E:0FFA  84                  	db $84		;[Instrument] 21
    2843.  0E:0FFB  C3                  	db $C3		;[Wait] 4
    2844.  0E:0FFC  25                  	db $25		;[Note] 38
    2845.  0E:0FFD  6F                  	db $6F		;[Volume] 15
    2846.  0E:0FFE  70                  	db $70		;[Instrument] 1
    2847.  0E:0FFF  C7                  	db $C7		;[Wait] 8
    2848.  0E:1000  39                  	db $39		;[Note] 58
    2849.  0E:1001  84                  	db $84		;[Instrument] 21
    2850.  0E:1002                      				;[Skip delay] 8
    2851.  0E:1002  29                  	db $29		;[Note] 42
    2852.  0E:1003  70                  	db $70		;[Instrument] 1
    2853.  0E:1004  CB                  	db $CB		;[Wait] 12
    2854.  0E:1005  39                  	db $39		;[Note] 58
    2855.  0E:1006  6B                  	db $6B		;[Volume] 11
    2856.  0E:1007  84                  	db $84		;[Instrument] 21
    2857.  0E:1008  C3                  	db $C3		;[Wait] 4
    2858.  0E:1009  25                  	db $25		;[Note] 38
    2859.  0E:100A  6F                  	db $6F		;[Volume] 15
    2860.  0E:100B  70                  	db $70		;[Instrument] 1
    2861.  0E:100C  C7                  	db $C7		;[Wait] 8
    2862.  0E:100D  39                  	db $39		;[Note] 58
    2863.  0E:100E  84                  	db $84		;[Instrument] 21
    2864.  0E:100F                      				;[Skip delay] 8
    2865.  0E:100F  BF                  	db $BF		;[End-Of-Track]
    2866.  0E:1010                      .track_78:
    2867.  0E:1010  34                  	db $34		;[Note] 53
    2868.  0E:1011  D3                  	db $D3		;[Wait] 20
    2869.  0E:1012  32                  	db $32		;[Note] 51
    2870.  0E:1013  C3                  	db $C3		;[Wait] 4
    2871.  0E:1014  31                  	db $31		;[Note] 50
    2872.  0E:1015                      				;[Skip delay] 4
    2873.  0E:1015  2F                  	db $2F		;[Note] 48
    2874.  0E:1016                      				;[Skip delay] 4
    2875.  0E:1016  35                  	db $35		;[Note] 54
    2876.  0E:1017  D3                  	db $D3		;[Wait] 20
    2877.  0E:1018  31                  	db $31		;[Note] 50
    2878.  0E:1019  C3                  	db $C3		;[Wait] 4
    2879.  0E:101A  30                  	db $30		;[Note] 49
    2880.  0E:101B                      				;[Skip delay] 4
    2881.  0E:101B  35                  	db $35		;[Note] 54
    2882.  0E:101C                      				;[Skip delay] 4
    2883.  0E:101C  BF                  	db $BF		;[End-Of-Track]
    2884.  0E:101D                      .track_79:
    2885.  0E:101D  10                  	db $10		;[Note] 17
    2886.  0E:101E  C5                  	db $C5		;[Wait] 6
    2887.  0E:101F  10                  	db $10		;[Note] 17
    2888.  0E:1020  C1                  	db $C1		;[Wait] 2
    2889.  0E:1021  60                  	db $60		;[Note] 97
    2890.  0E:1022  C3                  	db $C3		;[Wait] 4
    2891.  0E:1023  10                  	db $10		;[Note] 17
    2892.  0E:1024  C7                  	db $C7		;[Wait] 8
    2893.  0E:1025  0E                  	db $0E		;[Note] 15
    2894.  0E:1026  C3                  	db $C3		;[Wait] 4
    2895.  0E:1027  0D                  	db $0D		;[Note] 14
    2896.  0E:1028                      				;[Skip delay] 4
    2897.  0E:1028  10                  	db $10		;[Note] 17
    2898.  0E:1029                      				;[Skip delay] 4
    2899.  0E:1029  11                  	db $11		;[Note] 18
    2900.  0E:102A  C5                  	db $C5		;[Wait] 6
    2901.  0E:102B  11                  	db $11		;[Note] 18
    2902.  0E:102C  C1                  	db $C1		;[Wait] 2
    2903.  0E:102D  60                  	db $60		;[Note] 97
    2904.  0E:102E  C3                  	db $C3		;[Wait] 4
    2905.  0E:102F  11                  	db $11		;[Note] 18
    2906.  0E:1030  C7                  	db $C7		;[Wait] 8
    2907.  0E:1031  0E                  	db $0E		;[Note] 15
    2908.  0E:1032  C3                  	db $C3		;[Wait] 4
    2909.  0E:1033  0D                  	db $0D		;[Note] 14
    2910.  0E:1034                      				;[Skip delay] 4
    2911.  0E:1034  11                  	db $11		;[Note] 18
    2912.  0E:1035                      				;[Skip delay] 4
    2913.  0E:1035  BF                  	db $BF		;[End-Of-Track]
    2914.  0E:1036                      .track_80:
    2915.  0E:1036  28                  	db $28		;[Note] 41
    2916.  0E:1037  CF                  	db $CF		;[Wait] 16
    2917.  0E:1038  25                  	db $25		;[Note] 38
    2918.  0E:1039                      				;[Skip delay] 16
    2919.  0E:1039  29                  	db $29		;[Note] 42
    2920.  0E:103A                      				;[Skip delay] 16
    2921.  0E:103A  25                  	db $25		;[Note] 38
    2922.  0E:103B                      				;[Skip delay] 16
    2923.  0E:103B  BF                  	db $BF		;[End-Of-Track]
    2924.  0E:103C                      .track_81:
    2925.  0E:103C  C2                  	db $C2		;[Wait] 3
    2926.  0E:103D  28                  	db $28		;[Note] 41
    2927.  0E:103E  CF                  	db $CF		;[Wait] 16
    2928.  0E:103F  25                  	db $25		;[Note] 38
    2929.  0E:1040                      				;[Skip delay] 16
    2930.  0E:1040  29                  	db $29		;[Note] 42
    2931.  0E:1041                      				;[Skip delay] 16
    2932.  0E:1041  25                  	db $25		;[Note] 38
    2933.  0E:1042  CC                  	db $CC		;[Wait] 13
    2934.  0E:1043  BF                  	db $BF		;[End-Of-Track]
    2935.  0E:1044                      .track_82:
    2936.  0E:1044  2F                  	db $2F		;[Note] 48
    2937.  0E:1045  6F                  	db $6F		;[Volume] 15
    2938.  0E:1046  83                  	db $83		;[Instrument] 20
    2939.  0E:1047  C7                  	db $C7		;[Wait] 8
    2940.  0E:1048  2F                  	db $2F		;[Note] 48
    2941.  0E:1049                      				;[Skip delay] 8
    2942.  0E:1049  2F                  	db $2F		;[Note] 48
    2943.  0E:104A                      				;[Skip delay] 8
    2944.  0E:104A  2F                  	db $2F		;[Note] 48
    2945.  0E:104B                      				;[Skip delay] 8
    2946.  0E:104B  2F                  	db $2F		;[Note] 48
    2947.  0E:104C  C3                  	db $C3		;[Wait] 4
    2948.  0E:104D  2A                  	db $2A		;[Note] 43
    2949.  0E:104E  82                  	db $82		;[Instrument] 19
    2950.  0E:104F  C2                  	db $C2		;[Wait] 3
    2951.  0E:1050  2A                  	db $2A		;[Note] 43
    2952.  0E:1051  67                  	db $67		;[Volume] 7
    2953.  0E:1052                      				;[Skip delay] 3
    2954.  0E:1052  22                  	db $22		;[Note] 35
    2955.  0E:1053  6F                  	db $6F		;[Volume] 15
    2956.  0E:1054                      				;[Skip delay] 3
    2957.  0E:1054  22                  	db $22		;[Note] 35
    2958.  0E:1055  67                  	db $67		;[Volume] 7
    2959.  0E:1056                      				;[Skip delay] 3
    2960.  0E:1056  26                  	db $26		;[Note] 39
    2961.  0E:1057  6F                  	db $6F		;[Volume] 15
    2962.  0E:1058  C1                  	db $C1		;[Wait] 2
    2963.  0E:1059  26                  	db $26		;[Note] 39
    2964.  0E:105A  C2                  	db $C2		;[Wait] 3
    2965.  0E:105B  26                  	db $26		;[Note] 39
    2966.  0E:105C  67                  	db $67		;[Volume] 7
    2967.  0E:105D  C0                  	db $C0		;[Wait] 1
    2968.  0E:105E  1E                  	db $1E		;[Note] 31
    2969.  0E:105F  6F                  	db $6F		;[Volume] 15
    2970.  0E:1060  C1                  	db $C1		;[Wait] 2
    2971.  0E:1061  2F                  	db $2F		;[Note] 48
    2972.  0E:1062  83                  	db $83		;[Instrument] 20
    2973.  0E:1063                      				;[Skip delay] 2
    2974.  0E:1063  2F                  	db $2F		;[Note] 48
    2975.  0E:1064                      				;[Skip delay] 2
    2976.  0E:1064  23                  	db $23		;[Note] 36
    2977.  0E:1065  81                  	db $81		;[Instrument] 18
    2978.  0E:1066  C2                  	db $C2		;[Wait] 3
    2979.  0E:1067  23                  	db $23		;[Note] 36
    2980.  0E:1068  67                  	db $67		;[Volume] 7
    2981.  0E:1069  C0                  	db $C0		;[Wait] 1
    2982.  0E:106A  BF                  	db $BF		;[End-Of-Track]
    2983.  0E:106B                      .track_83:
    2984.  0E:106B  1E                  	db $1E		;[Note] 31
    2985.  0E:106C  7F                  	db $7F		;[Instrument] 16
    2986.  0E:106D  C3                  	db $C3		;[Wait] 4
    2987.  0E:106E  1E                  	db $1E		;[Note] 31
    2988.  0E:106F  7D                  	db $7D		;[Instrument] 14
    2989.  0E:1070  C0                  	db $C0		;[Wait] 1
    2990.  0E:1071  60                  	db $60		;[Note] 97
    2991.  0E:1072                      				;[Skip delay] 1
    2992.  0E:1072  1E                  	db $1E		;[Note] 31
    2993.  0E:1073                      				;[Skip delay] 1
    2994.  0E:1073  60                  	db $60		;[Note] 97
    2995.  0E:1074                      				;[Skip delay] 1
    2996.  0E:1074  1E                  	db $1E		;[Note] 31
    2997.  0E:1075  7F                  	db $7F		;[Instrument] 16
    2998.  0E:1076  C3                  	db $C3		;[Wait] 4
    2999.  0E:1077  1E                  	db $1E		;[Note] 31
    3000.  0E:1078  7D                  	db $7D		;[Instrument] 14
    3001.  0E:1079  C0                  	db $C0		;[Wait] 1
    3002.  0E:107A  60                  	db $60		;[Note] 97
    3003.  0E:107B                      				;[Skip delay] 1
    3004.  0E:107B  1E                  	db $1E		;[Note] 31
    3005.  0E:107C                      				;[Skip delay] 1
    3006.  0E:107C  60                  	db $60		;[Note] 97
    3007.  0E:107D                      				;[Skip delay] 1
    3008.  0E:107D  1E                  	db $1E		;[Note] 31
    3009.  0E:107E  7F                  	db $7F		;[Instrument] 16
    3010.  0E:107F  C3                  	db $C3		;[Wait] 4
    3011.  0E:1080  1E                  	db $1E		;[Note] 31
    3012.  0E:1081  7D                  	db $7D		;[Instrument] 14
    3013.  0E:1082  C0                  	db $C0		;[Wait] 1
    3014.  0E:1083  60                  	db $60		;[Note] 97
    3015.  0E:1084                      				;[Skip delay] 1
    3016.  0E:1084  1E                  	db $1E		;[Note] 31
    3017.  0E:1085                      				;[Skip delay] 1
    3018.  0E:1085  60                  	db $60		;[Note] 97
    3019.  0E:1086                      				;[Skip delay] 1
    3020.  0E:1086  1E                  	db $1E		;[Note] 31
    3021.  0E:1087  7F                  	db $7F		;[Instrument] 16
    3022.  0E:1088  C3                  	db $C3		;[Wait] 4
    3023.  0E:1089  1E                  	db $1E		;[Note] 31
    3024.  0E:108A  7D                  	db $7D		;[Instrument] 14
    3025.  0E:108B  C0                  	db $C0		;[Wait] 1
    3026.  0E:108C  60                  	db $60		;[Note] 97
    3027.  0E:108D                      				;[Skip delay] 1
    3028.  0E:108D  1E                  	db $1E		;[Note] 31
    3029.  0E:108E                      				;[Skip delay] 1
    3030.  0E:108E  60                  	db $60		;[Note] 97
    3031.  0E:108F                      				;[Skip delay] 1
    3032.  0E:108F  1E                  	db $1E		;[Note] 31
    3033.  0E:1090  7F                  	db $7F		;[Instrument] 16
    3034.  0E:1091  C3                  	db $C3		;[Wait] 4
    3035.  0E:1092  1E                  	db $1E		;[Note] 31
    3036.  0E:1093  7D                  	db $7D		;[Instrument] 14
    3037.  0E:1094  C0                  	db $C0		;[Wait] 1
    3038.  0E:1095  60                  	db $60		;[Note] 97
    3039.  0E:1096                      				;[Skip delay] 1
    3040.  0E:1096  1E                  	db $1E		;[Note] 31
    3041.  0E:1097                      				;[Skip delay] 1
    3042.  0E:1097  60                  	db $60		;[Note] 97
    3043.  0E:1098                      				;[Skip delay] 1
    3044.  0E:1098  1C                  	db $1C		;[Note] 29
    3045.  0E:1099  7F                  	db $7F		;[Instrument] 16
    3046.  0E:109A  C3                  	db $C3		;[Wait] 4
    3047.  0E:109B  1C                  	db $1C		;[Note] 29
    3048.  0E:109C  7D                  	db $7D		;[Instrument] 14
    3049.  0E:109D  C0                  	db $C0		;[Wait] 1
    3050.  0E:109E  60                  	db $60		;[Note] 97
    3051.  0E:109F                      				;[Skip delay] 1
    3052.  0E:109F  1C                  	db $1C		;[Note] 29
    3053.  0E:10A0                      				;[Skip delay] 1
    3054.  0E:10A0  60                  	db $60		;[Note] 97
    3055.  0E:10A1                      				;[Skip delay] 1
    3056.  0E:10A1  1A                  	db $1A		;[Note] 27
    3057.  0E:10A2  C3                  	db $C3		;[Wait] 4
    3058.  0E:10A3  1A                  	db $1A		;[Note] 27
    3059.  0E:10A4  C0                  	db $C0		;[Wait] 1
    3060.  0E:10A5  60                  	db $60		;[Note] 97
    3061.  0E:10A6                      				;[Skip delay] 1
    3062.  0E:10A6  1A                  	db $1A		;[Note] 27
    3063.  0E:10A7                      				;[Skip delay] 1
    3064.  0E:10A7  60                  	db $60		;[Note] 97
    3065.  0E:10A8                      				;[Skip delay] 1
    3066.  0E:10A8  19                  	db $19		;[Note] 26
    3067.  0E:10A9  C1                  	db $C1		;[Wait] 2
    3068.  0E:10AA  19                  	db $19		;[Note] 26
    3069.  0E:10AB  80                  	db $80		;[Instrument] 17
    3070.  0E:10AC                      				;[Skip delay] 2
    3071.  0E:10AC  19                  	db $19		;[Note] 26
    3072.  0E:10AD  7D                  	db $7D		;[Instrument] 14
    3073.  0E:10AE  C0                  	db $C0		;[Wait] 1
    3074.  0E:10AF  60                  	db $60		;[Note] 97
    3075.  0E:10B0                      				;[Skip delay] 1
    3076.  0E:10B0  19                  	db $19		;[Note] 26
    3077.  0E:10B1                      				;[Skip delay] 1
    3078.  0E:10B1  60                  	db $60		;[Note] 97
    3079.  0E:10B2                      				;[Skip delay] 1
    3080.  0E:10B2  BF                  	db $BF		;[End-Of-Track]
    3081.  0E:10B3                      .track_84:
    3082.  0E:10B3  2A                  	db $2A		;[Note] 43
    3083.  0E:10B4  70                  	db $70		;[Instrument] 1
    3084.  0E:10B5  FB                  	db $FB		;[Wait] 60
    3085.  0E:10B6  3B                  	db $3B		;[Note] 60
    3086.  0E:10B7  6B                  	db $6B		;[Volume] 11
    3087.  0E:10B8  84                  	db $84		;[Instrument] 21
    3088.  0E:10B9  C3                  	db $C3		;[Wait] 4
    3089.  0E:10BA  BF                  	db $BF		;[End-Of-Track]
    3090.  0E:10BB                      .track_85:
    3091.  0E:10BB  36                  	db $36		;[Note] 55
    3092.  0E:10BC  FF                  	db $FF		;[Wait] 64
    3093.  0E:10BD  BF                  	db $BF		;[End-Of-Track]
    3094.  0E:10BE                      .track_86:
    3095.  0E:10BE  12                  	db $12		;[Note] 19
    3096.  0E:10BF  C3                  	db $C3		;[Wait] 4
    3097.  0E:10C0  12                  	db $12		;[Note] 19
    3098.  0E:10C1  C0                  	db $C0		;[Wait] 1
    3099.  0E:10C2  60                  	db $60		;[Note] 97
    3100.  0E:10C3                      				;[Skip delay] 1
    3101.  0E:10C3  12                  	db $12		;[Note] 19
    3102.  0E:10C4                      				;[Skip delay] 1
    3103.  0E:10C4  60                  	db $60		;[Note] 97
    3104.  0E:10C5                      				;[Skip delay] 1
    3105.  0E:10C5  12                  	db $12		;[Note] 19
    3106.  0E:10C6  C3                  	db $C3		;[Wait] 4
    3107.  0E:10C7  12                  	db $12		;[Note] 19
    3108.  0E:10C8  C0                  	db $C0		;[Wait] 1
    3109.  0E:10C9  60                  	db $60		;[Note] 97
    3110.  0E:10CA                      				;[Skip delay] 1
    3111.  0E:10CA  12                  	db $12		;[Note] 19
    3112.  0E:10CB                      				;[Skip delay] 1
    3113.  0E:10CB  60                  	db $60		;[Note] 97
    3114.  0E:10CC                      				;[Skip delay] 1
    3115.  0E:10CC  12                  	db $12		;[Note] 19
    3116.  0E:10CD  C3                  	db $C3		;[Wait] 4
    3117.  0E:10CE  12                  	db $12		;[Note] 19
    3118.  0E:10CF  C0                  	db $C0		;[Wait] 1
    3119.  0E:10D0  60                  	db $60		;[Note] 97
    3120.  0E:10D1                      				;[Skip delay] 1
    3121.  0E:10D1  12                  	db $12		;[Note] 19
    3122.  0E:10D2                      				;[Skip delay] 1
    3123.  0E:10D2  60                  	db $60		;[Note] 97
    3124.  0E:10D3                      				;[Skip delay] 1
    3125.  0E:10D3  12                  	db $12		;[Note] 19
    3126.  0E:10D4  C3                  	db $C3		;[Wait] 4
    3127.  0E:10D5  12                  	db $12		;[Note] 19
    3128.  0E:10D6  C0                  	db $C0		;[Wait] 1
    3129.  0E:10D7  60                  	db $60		;[Note] 97
    3130.  0E:10D8                      				;[Skip delay] 1
    3131.  0E:10D8  12                  	db $12		;[Note] 19
    3132.  0E:10D9                      				;[Skip delay] 1
    3133.  0E:10D9  60                  	db $60		;[Note] 97
    3134.  0E:10DA                      				;[Skip delay] 1
    3135.  0E:10DA  12                  	db $12		;[Note] 19
    3136.  0E:10DB  C3                  	db $C3		;[Wait] 4
    3137.  0E:10DC  12                  	db $12		;[Note] 19
    3138.  0E:10DD  C0                  	db $C0		;[Wait] 1
    3139.  0E:10DE  60                  	db $60		;[Note] 97
    3140.  0E:10DF                      				;[Skip delay] 1
    3141.  0E:10DF  12                  	db $12		;[Note] 19
    3142.  0E:10E0                      				;[Skip delay] 1
    3143.  0E:10E0  60                  	db $60		;[Note] 97
    3144.  0E:10E1                      				;[Skip delay] 1
    3145.  0E:10E1  10                  	db $10		;[Note] 17
    3146.  0E:10E2  C3                  	db $C3		;[Wait] 4
    3147.  0E:10E3  10                  	db $10		;[Note] 17
    3148.  0E:10E4  C0                  	db $C0		;[Wait] 1
    3149.  0E:10E5  60                  	db $60		;[Note] 97
    3150.  0E:10E6                      				;[Skip delay] 1
    3151.  0E:10E6  10                  	db $10		;[Note] 17
    3152.  0E:10E7                      				;[Skip delay] 1
    3153.  0E:10E7  60                  	db $60		;[Note] 97
    3154.  0E:10E8                      				;[Skip delay] 1
    3155.  0E:10E8  0E                  	db $0E		;[Note] 15
    3156.  0E:10E9  C3                  	db $C3		;[Wait] 4
    3157.  0E:10EA  0E                  	db $0E		;[Note] 15
    3158.  0E:10EB  C0                  	db $C0		;[Wait] 1
    3159.  0E:10EC  60                  	db $60		;[Note] 97
    3160.  0E:10ED                      				;[Skip delay] 1
    3161.  0E:10ED  0E                  	db $0E		;[Note] 15
    3162.  0E:10EE                      				;[Skip delay] 1
    3163.  0E:10EE  60                  	db $60		;[Note] 97
    3164.  0E:10EF                      				;[Skip delay] 1
    3165.  0E:10EF  0D                  	db $0D		;[Note] 14
    3166.  0E:10F0  C3                  	db $C3		;[Wait] 4
    3167.  0E:10F1  0D                  	db $0D		;[Note] 14
    3168.  0E:10F2  C0                  	db $C0		;[Wait] 1
    3169.  0E:10F3  60                  	db $60		;[Note] 97
    3170.  0E:10F4                      				;[Skip delay] 1
    3171.  0E:10F4  0D                  	db $0D		;[Note] 14
    3172.  0E:10F5                      				;[Skip delay] 1
    3173.  0E:10F5  60                  	db $60		;[Note] 97
    3174.  0E:10F6                      				;[Skip delay] 1
    3175.  0E:10F6  BF                  	db $BF		;[End-Of-Track]
    3176.  0E:10F7                      .track_87:
    3177.  0E:10F7  2A                  	db $2A		;[Note] 43
    3178.  0E:10F8  FF                  	db $FF		;[Wait] 64
    3179.  0E:10F9  BF                  	db $BF		;[End-Of-Track]
    3180.  0E:10FA                      .track_88:
    3181.  0E:10FA  C2                  	db $C2		;[Wait] 3
    3182.  0E:10FB  2A                  	db $2A		;[Note] 43
    3183.  0E:10FC  FC                  	db $FC		;[Wait] 61
    3184.  0E:10FD  BF                  	db $BF		;[End-Of-Track]
    3185.  0E:10FE                      .track_89:
    3186.  0E:10FE  2A                  	db $2A		;[Note] 43
    3187.  0E:10FF  70                  	db $70		;[Instrument] 1
    3188.  0E:1100  F6                  	db $F6		;[Wait] 55
    3189.  0E:1101  60                  	db $60		;[Note] 97
    3190.  0E:1102  C0                  	db $C0		;[Wait] 1
    3191.  0E:1103  2A                  	db $2A		;[Note] 43
    3192.  0E:1104  C1                  	db $C1		;[Wait] 2
    3193.  0E:1105  2B                  	db $2B		;[Note] 44
    3194.  0E:1106                      				;[Skip delay] 2
    3195.  0E:1106  2D                  	db $2D		;[Note] 46
    3196.  0E:1107                      				;[Skip delay] 2
    3197.  0E:1107  2A                  	db $2A		;[Note] 43
    3198.  0E:1108                      				;[Skip delay] 2
    3199.  0E:1108  BF                  	db $BF		;[End-Of-Track]
    3200.  0E:1109                      .track_90:
    3201.  0E:1109  1E                  	db $1E		;[Note] 31
    3202.  0E:110A  FD                  	db $FD		;[Wait] 62
    3203.  0E:110B  60                  	db $60		;[Note] 97
    3204.  0E:110C  C0                  	db $C0		;[Wait] 1
    3205.  0E:110D                      				;[Skip delay] 1
    3206.  0E:110D  BF                  	db $BF		;[End-Of-Track]
    3207.  0E:110E                      .track_91:
    3208.  0E:110E  2A                  	db $2A		;[Note] 43
    3209.  0E:110F  F6                  	db $F6		;[Wait] 55
    3210.  0E:1110  60                  	db $60		;[Note] 97
    3211.  0E:1111  C0                  	db $C0		;[Wait] 1
    3212.  0E:1112  2A                  	db $2A		;[Note] 43
    3213.  0E:1113  C1                  	db $C1		;[Wait] 2
    3214.  0E:1114  2B                  	db $2B		;[Note] 44
    3215.  0E:1115                      				;[Skip delay] 2
    3216.  0E:1115  2D                  	db $2D		;[Note] 46
    3217.  0E:1116                      				;[Skip delay] 2
    3218.  0E:1116  2A                  	db $2A		;[Note] 43
    3219.  0E:1117                      				;[Skip delay] 2
    3220.  0E:1117  BF                  	db $BF		;[End-Of-Track]
    3221.  0E:1118                      .track_92:
    3222.  0E:1118  C2                  	db $C2		;[Wait] 3
    3223.  0E:1119  2A                  	db $2A		;[Note] 43
    3224.  0E:111A  F6                  	db $F6		;[Wait] 55
    3225.  0E:111B  60                  	db $60		;[Note] 97
    3226.  0E:111C  C0                  	db $C0		;[Wait] 1
    3227.  0E:111D  2A                  	db $2A		;[Note] 43
    3228.  0E:111E  C1                  	db $C1		;[Wait] 2
    3229.  0E:111F  2B                  	db $2B		;[Note] 44
    3230.  0E:1120                      				;[Skip delay] 2
    3231.  0E:1120  2D                  	db $2D		;[Note] 46
    3232.  0E:1121  C0                  	db $C0		;[Wait] 1
    3233.  0E:1122  BF                  	db $BF		;[End-Of-Track]
    3234.  0E:1123                      .track_93:
    3235.  0E:1123  34                  	db $34		;[Note] 53
    3236.  0E:1124  6F                  	db $6F		;[Volume] 15
    3237.  0E:1125  84                  	db $84		;[Instrument] 21
    3238.  0E:1126  C5                  	db $C5		;[Wait] 6
    3239.  0E:1127  2F                  	db $2F		;[Note] 48
    3240.  0E:1128  83                  	db $83		;[Instrument] 20
    3241.  0E:1129  C1                  	db $C1		;[Wait] 2
    3242.  0E:112A  23                  	db $23		;[Note] 36
    3243.  0E:112B  81                  	db $81		;[Instrument] 18
    3244.  0E:112C  C2                  	db $C2		;[Wait] 3
    3245.  0E:112D  23                  	db $23		;[Note] 36
    3246.  0E:112E  67                  	db $67		;[Volume] 7
    3247.  0E:112F  C0                  	db $C0		;[Wait] 1
    3248.  0E:1130  2F                  	db $2F		;[Note] 48
    3249.  0E:1131  6F                  	db $6F		;[Volume] 15
    3250.  0E:1132  83                  	db $83		;[Instrument] 20
    3251.  0E:1133  C3                  	db $C3		;[Wait] 4
    3252.  0E:1134  2F                  	db $2F		;[Note] 48
    3253.  0E:1135                      				;[Skip delay] 4
    3254.  0E:1135  2F                  	db $2F		;[Note] 48
    3255.  0E:1136                      				;[Skip delay] 4
    3256.  0E:1136  23                  	db $23		;[Note] 36
    3257.  0E:1137  81                  	db $81		;[Instrument] 18
    3258.  0E:1138  C2                  	db $C2		;[Wait] 3
    3259.  0E:1139  23                  	db $23		;[Note] 36
    3260.  0E:113A  67                  	db $67		;[Volume] 7
    3261.  0E:113B  C4                  	db $C4		;[Wait] 5
    3262.  0E:113C  34                  	db $34		;[Note] 53
    3263.  0E:113D  6F                  	db $6F		;[Volume] 15
    3264.  0E:113E  83                  	db $83		;[Instrument] 20
    3265.  0E:113F  C5                  	db $C5		;[Wait] 6
    3266.  0E:1140  2F                  	db $2F		;[Note] 48
    3267.  0E:1141  C1                  	db $C1		;[Wait] 2
    3268.  0E:1142  23                  	db $23		;[Note] 36
    3269.  0E:1143  81                  	db $81		;[Instrument] 18
    3270.  0E:1144  C2                  	db $C2		;[Wait] 3
    3271.  0E:1145  23                  	db $23		;[Note] 36
    3272.  0E:1146  67                  	db $67		;[Volume] 7
    3273.  0E:1147  C0                  	db $C0		;[Wait] 1
    3274.  0E:1148  2F                  	db $2F		;[Note] 48
    3275.  0E:1149  6F                  	db $6F		;[Volume] 15
    3276.  0E:114A  83                  	db $83		;[Instrument] 20
    3277.  0E:114B  C3                  	db $C3		;[Wait] 4
    3278.  0E:114C  2F                  	db $2F		;[Note] 48
    3279.  0E:114D                      				;[Skip delay] 4
    3280.  0E:114D  2F                  	db $2F		;[Note] 48
    3281.  0E:114E                      				;[Skip delay] 4
    3282.  0E:114E  23                  	db $23		;[Note] 36
    3283.  0E:114F  81                  	db $81		;[Instrument] 18
    3284.  0E:1150  C2                  	db $C2		;[Wait] 3
    3285.  0E:1151  23                  	db $23		;[Note] 36
    3286.  0E:1152  67                  	db $67		;[Volume] 7
    3287.  0E:1153  C4                  	db $C4		;[Wait] 5
    3288.  0E:1154  BF                  	db $BF		;[End-Of-Track]
    3289.  0E:1155                      .track_94:
    3290.  0E:1155  17                  	db $17		;[Note] 24
    3291.  0E:1156  7F                  	db $7F		;[Instrument] 16
    3292.  0E:1157  C5                  	db $C5		;[Wait] 6
    3293.  0E:1158  17                  	db $17		;[Note] 24
    3294.  0E:1159  C1                  	db $C1		;[Wait] 2
    3295.  0E:115A  23                  	db $23		;[Note] 36
    3296.  0E:115B  7D                  	db $7D		;[Instrument] 14
    3297.  0E:115C  C3                  	db $C3		;[Wait] 4
    3298.  0E:115D  17                  	db $17		;[Note] 24
    3299.  0E:115E  7F                  	db $7F		;[Instrument] 16
    3300.  0E:115F                      				;[Skip delay] 4
    3301.  0E:115F  23                  	db $23		;[Note] 36
    3302.  0E:1160                      				;[Skip delay] 4
    3303.  0E:1160  21                  	db $21		;[Note] 34
    3304.  0E:1161                      				;[Skip delay] 4
    3305.  0E:1161  1E                  	db $1E		;[Note] 31
    3306.  0E:1162  7D                  	db $7D		;[Instrument] 14
    3307.  0E:1163                      				;[Skip delay] 4
    3308.  0E:1163  23                  	db $23		;[Note] 36
    3309.  0E:1164                      				;[Skip delay] 4
    3310.  0E:1164  15                  	db $15		;[Note] 22
    3311.  0E:1165  7F                  	db $7F		;[Instrument] 16
    3312.  0E:1166  C5                  	db $C5		;[Wait] 6
    3313.  0E:1167  15                  	db $15		;[Note] 22
    3314.  0E:1168  C1                  	db $C1		;[Wait] 2
    3315.  0E:1169  21                  	db $21		;[Note] 34
    3316.  0E:116A  7D                  	db $7D		;[Instrument] 14
    3317.  0E:116B  C3                  	db $C3		;[Wait] 4
    3318.  0E:116C  15                  	db $15		;[Note] 22
    3319.  0E:116D  7F                  	db $7F		;[Instrument] 16
    3320.  0E:116E                      				;[Skip delay] 4
    3321.  0E:116E  21                  	db $21		;[Note] 34
    3322.  0E:116F                      				;[Skip delay] 4
    3323.  0E:116F  1F                  	db $1F		;[Note] 32
    3324.  0E:1170                      				;[Skip delay] 4
    3325.  0E:1170  1E                  	db $1E		;[Note] 31
    3326.  0E:1171  7D                  	db $7D		;[Instrument] 14
    3327.  0E:1172                      				;[Skip delay] 4
    3328.  0E:1172  21                  	db $21		;[Note] 34
    3329.  0E:1173                      				;[Skip delay] 4
    3330.  0E:1173  BF                  	db $BF		;[End-Of-Track]
    3331.  0E:1174                      .track_95:
    3332.  0E:1174  2F                  	db $2F		;[Note] 48
    3333.  0E:1175  CF                  	db $CF		;[Wait] 16
    3334.  0E:1176  2F                  	db $2F		;[Note] 48
    3335.  0E:1177  C7                  	db $C7		;[Wait] 8
    3336.  0E:1178  32                  	db $32		;[Note] 51
    3337.  0E:1179                      				;[Skip delay] 8
    3338.  0E:1179  31                  	db $31		;[Note] 50
    3339.  0E:117A  CF                  	db $CF		;[Wait] 16
    3340.  0E:117B  2D                  	db $2D		;[Note] 46
    3341.  0E:117C                      				;[Skip delay] 16
    3342.  0E:117C  BF                  	db $BF		;[End-Of-Track]
    3343.  0E:117D                      .track_96:
    3344.  0E:117D  3B                  	db $3B		;[Note] 60
    3345.  0E:117E  6D                  	db $6D		;[Volume] 13
    3346.  0E:117F  71                  	db $71		;[Instrument] 2
    3347.  0E:1180  C2                  	db $C2		;[Wait] 3
    3348.  0E:1181  36                  	db $36		;[Note] 55
    3349.  0E:1182                      				;[Skip delay] 3
    3350.  0E:1182  32                  	db $32		;[Note] 51
    3351.  0E:1183                      				;[Skip delay] 3
    3352.  0E:1183  3B                  	db $3B		;[Note] 60
    3353.  0E:1184                      				;[Skip delay] 3
    3354.  0E:1184  36                  	db $36		;[Note] 55
    3355.  0E:1185                      				;[Skip delay] 3
    3356.  0E:1185  32                  	db $32		;[Note] 51
    3357.  0E:1186                      				;[Skip delay] 3
    3358.  0E:1186  3B                  	db $3B		;[Note] 60
    3359.  0E:1187                      				;[Skip delay] 3
    3360.  0E:1187  36                  	db $36		;[Note] 55
    3361.  0E:1188                      				;[Skip delay] 3
    3362.  0E:1188  32                  	db $32		;[Note] 51
    3363.  0E:1189                      				;[Skip delay] 3
    3364.  0E:1189  3B                  	db $3B		;[Note] 60
    3365.  0E:118A                      				;[Skip delay] 3
    3366.  0E:118A  36                  	db $36		;[Note] 55
    3367.  0E:118B  C1                  	db $C1		;[Wait] 2
    3368.  0E:118C  39                  	db $39		;[Note] 58
    3369.  0E:118D  C2                  	db $C2		;[Wait] 3
    3370.  0E:118E  34                  	db $34		;[Note] 53
    3371.  0E:118F                      				;[Skip delay] 3
    3372.  0E:118F  31                  	db $31		;[Note] 50
    3373.  0E:1190                      				;[Skip delay] 3
    3374.  0E:1190  39                  	db $39		;[Note] 58
    3375.  0E:1191                      				;[Skip delay] 3
    3376.  0E:1191  34                  	db $34		;[Note] 53
    3377.  0E:1192                      				;[Skip delay] 3
    3378.  0E:1192  31                  	db $31		;[Note] 50
    3379.  0E:1193                      				;[Skip delay] 3
    3380.  0E:1193  39                  	db $39		;[Note] 58
    3381.  0E:1194                      				;[Skip delay] 3
    3382.  0E:1194  34                  	db $34		;[Note] 53
    3383.  0E:1195                      				;[Skip delay] 3
    3384.  0E:1195  31                  	db $31		;[Note] 50
    3385.  0E:1196                      				;[Skip delay] 3
    3386.  0E:1196  39                  	db $39		;[Note] 58
    3387.  0E:1197                      				;[Skip delay] 3
    3388.  0E:1197  34                  	db $34		;[Note] 53
    3389.  0E:1198  C0                  	db $C0		;[Wait] 1
    3390.  0E:1199                      				;[Skip delay] 1
    3391.  0E:1199  BF                  	db $BF		;[End-Of-Track]
    3392.  0E:119A                      .track_97:
    3393.  0E:119A  3B                  	db $3B		;[Note] 60
    3394.  0E:119B  6B                  	db $6B		;[Volume] 11
    3395.  0E:119C  73                  	db $73		;[Instrument] 4
    3396.  0E:119D  CF                  	db $CF		;[Wait] 16
    3397.  0E:119E  36                  	db $36		;[Note] 55
    3398.  0E:119F  C7                  	db $C7		;[Wait] 8
    3399.  0E:11A0  3E                  	db $3E		;[Note] 63
    3400.  0E:11A1                      				;[Skip delay] 8
    3401.  0E:11A1  3D                  	db $3D		;[Note] 62
    3402.  0E:11A2  CF                  	db $CF		;[Wait] 16
    3403.  0E:11A3  39                  	db $39		;[Note] 58
    3404.  0E:11A4                      				;[Skip delay] 16
    3405.  0E:11A4  BF                  	db $BF		;[End-Of-Track]
    3406.  0E:11A5                      .track_98:
    3407.  0E:11A5  C0                  	db $C0		;[Wait] 1
    3408.  0E:11A6  2A                  	db $2A		;[Note] 43
    3409.  0E:11A7  C1                  	db $C1		;[Wait] 2
    3410.  0E:11A8  2F                  	db $2F		;[Note] 48
    3411.  0E:11A9  CF                  	db $CF		;[Wait] 16
    3412.  0E:11AA  2F                  	db $2F		;[Note] 48
    3413.  0E:11AB  C7                  	db $C7		;[Wait] 8
    3414.  0E:11AC  32                  	db $32		;[Note] 51
    3415.  0E:11AD                      				;[Skip delay] 8
    3416.  0E:11AD  31                  	db $31		;[Note] 50
    3417.  0E:11AE  CF                  	db $CF		;[Wait] 16
    3418.  0E:11AF  2D                  	db $2D		;[Note] 46
    3419.  0E:11B0  CC                  	db $CC		;[Wait] 13
    3420.  0E:11B1  BF                  	db $BF		;[End-Of-Track]
    3421.  0E:11B2                      .track_99:
    3422.  0E:11B2  34                  	db $34		;[Note] 53
    3423.  0E:11B3  6F                  	db $6F		;[Volume] 15
    3424.  0E:11B4  83                  	db $83		;[Instrument] 20
    3425.  0E:11B5  C5                  	db $C5		;[Wait] 6
    3426.  0E:11B6  2F                  	db $2F		;[Note] 48
    3427.  0E:11B7  C1                  	db $C1		;[Wait] 2
    3428.  0E:11B8  23                  	db $23		;[Note] 36
    3429.  0E:11B9  81                  	db $81		;[Instrument] 18
    3430.  0E:11BA  C2                  	db $C2		;[Wait] 3
    3431.  0E:11BB  23                  	db $23		;[Note] 36
    3432.  0E:11BC  67                  	db $67		;[Volume] 7
    3433.  0E:11BD  C0                  	db $C0		;[Wait] 1
    3434.  0E:11BE  2F                  	db $2F		;[Note] 48
    3435.  0E:11BF  6F                  	db $6F		;[Volume] 15
    3436.  0E:11C0  83                  	db $83		;[Instrument] 20
    3437.  0E:11C1  C3                  	db $C3		;[Wait] 4
    3438.  0E:11C2  2F                  	db $2F		;[Note] 48
    3439.  0E:11C3                      				;[Skip delay] 4
    3440.  0E:11C3  2F                  	db $2F		;[Note] 48
    3441.  0E:11C4                      				;[Skip delay] 4
    3442.  0E:11C4  23                  	db $23		;[Note] 36
    3443.  0E:11C5  81                  	db $81		;[Instrument] 18
    3444.  0E:11C6  C2                  	db $C2		;[Wait] 3
    3445.  0E:11C7  23                  	db $23		;[Note] 36
    3446.  0E:11C8  67                  	db $67		;[Volume] 7
    3447.  0E:11C9  C4                  	db $C4		;[Wait] 5
    3448.  0E:11CA  34                  	db $34		;[Note] 53
    3449.  0E:11CB  6F                  	db $6F		;[Volume] 15
    3450.  0E:11CC  83                  	db $83		;[Instrument] 20
    3451.  0E:11CD  C5                  	db $C5		;[Wait] 6
    3452.  0E:11CE  2F                  	db $2F		;[Note] 48
    3453.  0E:11CF  C1                  	db $C1		;[Wait] 2
    3454.  0E:11D0  23                  	db $23		;[Note] 36
    3455.  0E:11D1  81                  	db $81		;[Instrument] 18
    3456.  0E:11D2  C2                  	db $C2		;[Wait] 3
    3457.  0E:11D3  23                  	db $23		;[Note] 36
    3458.  0E:11D4  67                  	db $67		;[Volume] 7
    3459.  0E:11D5  C0                  	db $C0		;[Wait] 1
    3460.  0E:11D6  2F                  	db $2F		;[Note] 48
    3461.  0E:11D7  6F                  	db $6F		;[Volume] 15
    3462.  0E:11D8  83                  	db $83		;[Instrument] 20
    3463.  0E:11D9  C3                  	db $C3		;[Wait] 4
    3464.  0E:11DA  2F                  	db $2F		;[Note] 48
    3465.  0E:11DB                      				;[Skip delay] 4
    3466.  0E:11DB  2F                  	db $2F		;[Note] 48
    3467.  0E:11DC                      				;[Skip delay] 4
    3468.  0E:11DC  26                  	db $26		;[Note] 39
    3469.  0E:11DD  82                  	db $82		;[Instrument] 19
    3470.  0E:11DE  C2                  	db $C2		;[Wait] 3
    3471.  0E:11DF  26                  	db $26		;[Note] 39
    3472.  0E:11E0  67                  	db $67		;[Volume] 7
    3473.  0E:11E1  C0                  	db $C0		;[Wait] 1
    3474.  0E:11E2  1E                  	db $1E		;[Note] 31
    3475.  0E:11E3  6F                  	db $6F		;[Volume] 15
    3476.  0E:11E4  C2                  	db $C2		;[Wait] 3
    3477.  0E:11E5  1E                  	db $1E		;[Note] 31
    3478.  0E:11E6  67                  	db $67		;[Volume] 7
    3479.  0E:11E7  C0                  	db $C0		;[Wait] 1
    3480.  0E:11E8  BF                  	db $BF		;[End-Of-Track]
    3481.  0E:11E9                      .track_100:
    3482.  0E:11E9  13                  	db $13		;[Note] 20
    3483.  0E:11EA  7F                  	db $7F		;[Instrument] 16
    3484.  0E:11EB  C5                  	db $C5		;[Wait] 6
    3485.  0E:11EC  13                  	db $13		;[Note] 20
    3486.  0E:11ED  C1                  	db $C1		;[Wait] 2
    3487.  0E:11EE  1F                  	db $1F		;[Note] 32
    3488.  0E:11EF  7D                  	db $7D		;[Instrument] 14
    3489.  0E:11F0  C3                  	db $C3		;[Wait] 4
    3490.  0E:11F1  13                  	db $13		;[Note] 20
    3491.  0E:11F2  7F                  	db $7F		;[Instrument] 16
    3492.  0E:11F3                      				;[Skip delay] 4
    3493.  0E:11F3  1F                  	db $1F		;[Note] 32
    3494.  0E:11F4                      				;[Skip delay] 4
    3495.  0E:11F4  1E                  	db $1E		;[Note] 31
    3496.  0E:11F5                      				;[Skip delay] 4
    3497.  0E:11F5  1C                  	db $1C		;[Note] 29
    3498.  0E:11F6  7D                  	db $7D		;[Instrument] 14
    3499.  0E:11F7                      				;[Skip delay] 4
    3500.  0E:11F7  1F                  	db $1F		;[Note] 32
    3501.  0E:11F8                      				;[Skip delay] 4
    3502.  0E:11F8  15                  	db $15		;[Note] 22
    3503.  0E:11F9  7F                  	db $7F		;[Instrument] 16
    3504.  0E:11FA  C5                  	db $C5		;[Wait] 6
    3505.  0E:11FB  15                  	db $15		;[Note] 22
    3506.  0E:11FC  C1                  	db $C1		;[Wait] 2
    3507.  0E:11FD  21                  	db $21		;[Note] 34
    3508.  0E:11FE  7D                  	db $7D		;[Instrument] 14
    3509.  0E:11FF  C3                  	db $C3		;[Wait] 4
    3510.  0E:1200  15                  	db $15		;[Note] 22
    3511.  0E:1201  7F                  	db $7F		;[Instrument] 16
    3512.  0E:1202                      				;[Skip delay] 4
    3513.  0E:1202  21                  	db $21		;[Note] 34
    3514.  0E:1203                      				;[Skip delay] 4
    3515.  0E:1203  23                  	db $23		;[Note] 36
    3516.  0E:1204                      				;[Skip delay] 4
    3517.  0E:1204  25                  	db $25		;[Note] 38
    3518.  0E:1205  7D                  	db $7D		;[Instrument] 14
    3519.  0E:1206                      				;[Skip delay] 4
    3520.  0E:1206  21                  	db $21		;[Note] 34
    3521.  0E:1207                      				;[Skip delay] 4
    3522.  0E:1207  BF                  	db $BF		;[End-Of-Track]
    3523.  0E:1208                      .track_101:
    3524.  0E:1208  2B                  	db $2B		;[Note] 44
    3525.  0E:1209  70                  	db $70		;[Instrument] 1
    3526.  0E:120A  CF                  	db $CF		;[Wait] 16
    3527.  0E:120B  2B                  	db $2B		;[Note] 44
    3528.  0E:120C  C5                  	db $C5		;[Wait] 6
    3529.  0E:120D  2F                  	db $2F		;[Note] 48
    3530.  0E:120E                      				;[Skip delay] 6
    3531.  0E:120E  32                  	db $32		;[Note] 51
    3532.  0E:120F  C3                  	db $C3		;[Wait] 4
    3533.  0E:1210  31                  	db $31		;[Note] 50
    3534.  0E:1211  C5                  	db $C5		;[Wait] 6
    3535.  0E:1212  32                  	db $32		;[Note] 51
    3536.  0E:1213                      				;[Skip delay] 6
    3537.  0E:1213  31                  	db $31		;[Note] 50
    3538.  0E:1214  C3                  	db $C3		;[Wait] 4
    3539.  0E:1215  2D                  	db $2D		;[Note] 46
    3540.  0E:1216  C7                  	db $C7		;[Wait] 8
    3541.  0E:1217  2D                  	db $2D		;[Note] 46
    3542.  0E:1218  85                  	db $85		;[Instrument] 22
    3543.  0E:1219                      				;[Skip delay] 8
    3544.  0E:1219  BF                  	db $BF		;[End-Of-Track]
    3545.  0E:121A                      .track_102:
    3546.  0E:121A  37                  	db $37		;[Note] 56
    3547.  0E:121B  C2                  	db $C2		;[Wait] 3
    3548.  0E:121C  32                  	db $32		;[Note] 51
    3549.  0E:121D                      				;[Skip delay] 3
    3550.  0E:121D  2F                  	db $2F		;[Note] 48
    3551.  0E:121E                      				;[Skip delay] 3
    3552.  0E:121E  37                  	db $37		;[Note] 56
    3553.  0E:121F                      				;[Skip delay] 3
    3554.  0E:121F  32                  	db $32		;[Note] 51
    3555.  0E:1220                      				;[Skip delay] 3
    3556.  0E:1220  2F                  	db $2F		;[Note] 48
    3557.  0E:1221                      				;[Skip delay] 3
    3558.  0E:1221  37                  	db $37		;[Note] 56
    3559.  0E:1222                      				;[Skip delay] 3
    3560.  0E:1222  32                  	db $32		;[Note] 51
    3561.  0E:1223                      				;[Skip delay] 3
    3562.  0E:1223  2F                  	db $2F		;[Note] 48
    3563.  0E:1224                      				;[Skip delay] 3
    3564.  0E:1224  37                  	db $37		;[Note] 56
    3565.  0E:1225                      				;[Skip delay] 3
    3566.  0E:1225  32                  	db $32		;[Note] 51
    3567.  0E:1226  C1                  	db $C1		;[Wait] 2
    3568.  0E:1227  39                  	db $39		;[Note] 58
    3569.  0E:1228  C2                  	db $C2		;[Wait] 3
    3570.  0E:1229  34                  	db $34		;[Note] 53
    3571.  0E:122A                      				;[Skip delay] 3
    3572.  0E:122A  31                  	db $31		;[Note] 50
    3573.  0E:122B                      				;[Skip delay] 3
    3574.  0E:122B  39                  	db $39		;[Note] 58
    3575.  0E:122C                      				;[Skip delay] 3
    3576.  0E:122C  34                  	db $34		;[Note] 53
    3577.  0E:122D                      				;[Skip delay] 3
    3578.  0E:122D  31                  	db $31		;[Note] 50
    3579.  0E:122E                      				;[Skip delay] 3
    3580.  0E:122E  39                  	db $39		;[Note] 58
    3581.  0E:122F                      				;[Skip delay] 3
    3582.  0E:122F  34                  	db $34		;[Note] 53
    3583.  0E:1230                      				;[Skip delay] 3
    3584.  0E:1230  31                  	db $31		;[Note] 50
    3585.  0E:1231                      				;[Skip delay] 3
    3586.  0E:1231  39                  	db $39		;[Note] 58
    3587.  0E:1232                      				;[Skip delay] 3
    3588.  0E:1232  34                  	db $34		;[Note] 53
    3589.  0E:1233  C0                  	db $C0		;[Wait] 1
    3590.  0E:1234                      				;[Skip delay] 1
    3591.  0E:1234  BF                  	db $BF		;[End-Of-Track]
    3592.  0E:1235                      .track_103:
    3593.  0E:1235  37                  	db $37		;[Note] 56
    3594.  0E:1236  CF                  	db $CF		;[Wait] 16
    3595.  0E:1237  34                  	db $34		;[Note] 53
    3596.  0E:1238  C7                  	db $C7		;[Wait] 8
    3597.  0E:1239  37                  	db $37		;[Note] 56
    3598.  0E:123A                      				;[Skip delay] 8
    3599.  0E:123A  39                  	db $39		;[Note] 58
    3600.  0E:123B  CF                  	db $CF		;[Wait] 16
    3601.  0E:123C  34                  	db $34		;[Note] 53
    3602.  0E:123D  C7                  	db $C7		;[Wait] 8
    3603.  0E:123E  39                  	db $39		;[Note] 58
    3604.  0E:123F                      				;[Skip delay] 8
    3605.  0E:123F  BF                  	db $BF		;[End-Of-Track]
    3606.  0E:1240                      .track_104:
    3607.  0E:1240  2B                  	db $2B		;[Note] 44
    3608.  0E:1241  CF                  	db $CF		;[Wait] 16
    3609.  0E:1242  2B                  	db $2B		;[Note] 44
    3610.  0E:1243  C5                  	db $C5		;[Wait] 6
    3611.  0E:1244  2F                  	db $2F		;[Note] 48
    3612.  0E:1245                      				;[Skip delay] 6
    3613.  0E:1245  32                  	db $32		;[Note] 51
    3614.  0E:1246  C3                  	db $C3		;[Wait] 4
    3615.  0E:1247  31                  	db $31		;[Note] 50
    3616.  0E:1248  C5                  	db $C5		;[Wait] 6
    3617.  0E:1249  32                  	db $32		;[Note] 51
    3618.  0E:124A                      				;[Skip delay] 6
    3619.  0E:124A  31                  	db $31		;[Note] 50
    3620.  0E:124B  C3                  	db $C3		;[Wait] 4
    3621.  0E:124C  2D                  	db $2D		;[Note] 46
    3622.  0E:124D  C7                  	db $C7		;[Wait] 8
    3623.  0E:124E  2A                  	db $2A		;[Note] 43
    3624.  0E:124F                      				;[Skip delay] 8
    3625.  0E:124F  BF                  	db $BF		;[End-Of-Track]
    3626.  0E:1250                      .track_105:
    3627.  0E:1250  C2                  	db $C2		;[Wait] 3
    3628.  0E:1251  2B                  	db $2B		;[Note] 44
    3629.  0E:1252  CF                  	db $CF		;[Wait] 16
    3630.  0E:1253  2B                  	db $2B		;[Note] 44
    3631.  0E:1254  C5                  	db $C5		;[Wait] 6
    3632.  0E:1255  2F                  	db $2F		;[Note] 48
    3633.  0E:1256                      				;[Skip delay] 6
    3634.  0E:1256  32                  	db $32		;[Note] 51
    3635.  0E:1257  C3                  	db $C3		;[Wait] 4
    3636.  0E:1258  31                  	db $31		;[Note] 50
    3637.  0E:1259  C5                  	db $C5		;[Wait] 6
    3638.  0E:125A  32                  	db $32		;[Note] 51
    3639.  0E:125B                      				;[Skip delay] 6
    3640.  0E:125B  31                  	db $31		;[Note] 50
    3641.  0E:125C  C3                  	db $C3		;[Wait] 4
    3642.  0E:125D  2D                  	db $2D		;[Note] 46
    3643.  0E:125E  C7                  	db $C7		;[Wait] 8
    3644.  0E:125F  2A                  	db $2A		;[Note] 43
    3645.  0E:1260  C4                  	db $C4		;[Wait] 5
    3646.  0E:1261  BF                  	db $BF		;[End-Of-Track]
    3647.  0E:1262                      .track_106:
    3648.  0E:1262  34                  	db $34		;[Note] 53
    3649.  0E:1263  6F                  	db $6F		;[Volume] 15
    3650.  0E:1264  84                  	db $84		;[Instrument] 21
    3651.  0E:1265  C5                  	db $C5		;[Wait] 6
    3652.  0E:1266  2F                  	db $2F		;[Note] 48
    3653.  0E:1267  83                  	db $83		;[Instrument] 20
    3654.  0E:1268  C1                  	db $C1		;[Wait] 2
    3655.  0E:1269  23                  	db $23		;[Note] 36
    3656.  0E:126A  81                  	db $81		;[Instrument] 18
    3657.  0E:126B  C2                  	db $C2		;[Wait] 3
    3658.  0E:126C  23                  	db $23		;[Note] 36
    3659.  0E:126D  67                  	db $67		;[Volume] 7
    3660.  0E:126E  C0                  	db $C0		;[Wait] 1
    3661.  0E:126F  2F                  	db $2F		;[Note] 48
    3662.  0E:1270  6F                  	db $6F		;[Volume] 15
    3663.  0E:1271  83                  	db $83		;[Instrument] 20
    3664.  0E:1272  C3                  	db $C3		;[Wait] 4
    3665.  0E:1273  2F                  	db $2F		;[Note] 48
    3666.  0E:1274                      				;[Skip delay] 4
    3667.  0E:1274  2F                  	db $2F		;[Note] 48
    3668.  0E:1275                      				;[Skip delay] 4
    3669.  0E:1275  23                  	db $23		;[Note] 36
    3670.  0E:1276  81                  	db $81		;[Instrument] 18
    3671.  0E:1277  C2                  	db $C2		;[Wait] 3
    3672.  0E:1278  23                  	db $23		;[Note] 36
    3673.  0E:1279  67                  	db $67		;[Volume] 7
    3674.  0E:127A  C4                  	db $C4		;[Wait] 5
    3675.  0E:127B  34                  	db $34		;[Note] 53
    3676.  0E:127C  6F                  	db $6F		;[Volume] 15
    3677.  0E:127D  83                  	db $83		;[Instrument] 20
    3678.  0E:127E  C5                  	db $C5		;[Wait] 6
    3679.  0E:127F  2F                  	db $2F		;[Note] 48
    3680.  0E:1280  C1                  	db $C1		;[Wait] 2
    3681.  0E:1281  23                  	db $23		;[Note] 36
    3682.  0E:1282  81                  	db $81		;[Instrument] 18
    3683.  0E:1283  C2                  	db $C2		;[Wait] 3
    3684.  0E:1284  23                  	db $23		;[Note] 36
    3685.  0E:1285  67                  	db $67		;[Volume] 7
    3686.  0E:1286  C0                  	db $C0		;[Wait] 1
    3687.  0E:1287  2F                  	db $2F		;[Note] 48
    3688.  0E:1288  6F                  	db $6F		;[Volume] 15
    3689.  0E:1289  83                  	db $83		;[Instrument] 20
    3690.  0E:128A  C3                  	db $C3		;[Wait] 4
    3691.  0E:128B  2F                  	db $2F		;[Note] 48
    3692.  0E:128C                      				;[Skip delay] 4
    3693.  0E:128C  2F                  	db $2F		;[Note] 48
    3694.  0E:128D                      				;[Skip delay] 4
    3695.  0E:128D  2A                  	db $2A		;[Note] 43
    3696.  0E:128E  82                  	db $82		;[Instrument] 19
    3697.  0E:128F  C1                  	db $C1		;[Wait] 2
    3698.  0E:1290  2A                  	db $2A		;[Note] 43
    3699.  0E:1291                      				;[Skip delay] 2
    3700.  0E:1291  22                  	db $22		;[Note] 35
    3701.  0E:1292                      				;[Skip delay] 2
    3702.  0E:1292  1E                  	db $1E		;[Note] 31
    3703.  0E:1293                      				;[Skip delay] 2
    3704.  0E:1293  BF                  	db $BF		;[End-Of-Track]
    3705.  0E:1294                      .track_107:
    3706.  0E:1294  17                  	db $17		;[Note] 24
    3707.  0E:1295  7F                  	db $7F		;[Instrument] 16
    3708.  0E:1296  C5                  	db $C5		;[Wait] 6
    3709.  0E:1297  17                  	db $17		;[Note] 24
    3710.  0E:1298  C1                  	db $C1		;[Wait] 2
    3711.  0E:1299  23                  	db $23		;[Note] 36
    3712.  0E:129A  7D                  	db $7D		;[Instrument] 14
    3713.  0E:129B  C3                  	db $C3		;[Wait] 4
    3714.  0E:129C  17                  	db $17		;[Note] 24
    3715.  0E:129D  7F                  	db $7F		;[Instrument] 16
    3716.  0E:129E                      				;[Skip delay] 4
    3717.  0E:129E  23                  	db $23		;[Note] 36
    3718.  0E:129F                      				;[Skip delay] 4
    3719.  0E:129F  21                  	db $21		;[Note] 34
    3720.  0E:12A0                      				;[Skip delay] 4
    3721.  0E:12A0  1E                  	db $1E		;[Note] 31
    3722.  0E:12A1  7D                  	db $7D		;[Instrument] 14
    3723.  0E:12A2                      				;[Skip delay] 4
    3724.  0E:12A2  23                  	db $23		;[Note] 36
    3725.  0E:12A3                      				;[Skip delay] 4
    3726.  0E:12A3  15                  	db $15		;[Note] 22
    3727.  0E:12A4  7F                  	db $7F		;[Instrument] 16
    3728.  0E:12A5  C5                  	db $C5		;[Wait] 6
    3729.  0E:12A6  15                  	db $15		;[Note] 22
    3730.  0E:12A7  C1                  	db $C1		;[Wait] 2
    3731.  0E:12A8  21                  	db $21		;[Note] 34
    3732.  0E:12A9  7D                  	db $7D		;[Instrument] 14
    3733.  0E:12AA  C3                  	db $C3		;[Wait] 4
    3734.  0E:12AB  15                  	db $15		;[Note] 22
    3735.  0E:12AC  7F                  	db $7F		;[Instrument] 16
    3736.  0E:12AD                      				;[Skip delay] 4
    3737.  0E:12AD  21                  	db $21		;[Note] 34
    3738.  0E:12AE                      				;[Skip delay] 4
    3739.  0E:12AE  23                  	db $23		;[Note] 36
    3740.  0E:12AF                      				;[Skip delay] 4
    3741.  0E:12AF  25                  	db $25		;[Note] 38
    3742.  0E:12B0  7D                  	db $7D		;[Instrument] 14
    3743.  0E:12B1                      				;[Skip delay] 4
    3744.  0E:12B1  21                  	db $21		;[Note] 34
    3745.  0E:12B2                      				;[Skip delay] 4
    3746.  0E:12B2  BF                  	db $BF		;[End-Of-Track]
    3747.  0E:12B3                      .track_108:
    3748.  0E:12B3  2F                  	db $2F		;[Note] 48
    3749.  0E:12B4  70                  	db $70		;[Instrument] 1
    3750.  0E:12B5  CB                  	db $CB		;[Wait] 12
    3751.  0E:12B6  2A                  	db $2A		;[Note] 43
    3752.  0E:12B7  C1                  	db $C1		;[Wait] 2
    3753.  0E:12B8  2D                  	db $2D		;[Note] 46
    3754.  0E:12B9                      				;[Skip delay] 2
    3755.  0E:12B9  2F                  	db $2F		;[Note] 48
    3756.  0E:12BA  C7                  	db $C7		;[Wait] 8
    3757.  0E:12BB  36                  	db $36		;[Note] 55
    3758.  0E:12BC                      				;[Skip delay] 8
    3759.  0E:12BC  34                  	db $34		;[Note] 53
    3760.  0E:12BD  CB                  	db $CB		;[Wait] 12
    3761.  0E:12BE  32                  	db $32		;[Note] 51
    3762.  0E:12BF  C1                  	db $C1		;[Wait] 2
    3763.  0E:12C0  34                  	db $34		;[Note] 53
    3764.  0E:12C1                      				;[Skip delay] 2
    3765.  0E:12C1  31                  	db $31		;[Note] 50
    3766.  0E:12C2  C7                  	db $C7		;[Wait] 8
    3767.  0E:12C3  2D                  	db $2D		;[Note] 46
    3768.  0E:12C4  85                  	db $85		;[Instrument] 22
    3769.  0E:12C5                      				;[Skip delay] 8
    3770.  0E:12C5  BF                  	db $BF		;[End-Of-Track]
    3771.  0E:12C6                      .track_109:
    3772.  0E:12C6  3B                  	db $3B		;[Note] 60
    3773.  0E:12C7  C2                  	db $C2		;[Wait] 3
    3774.  0E:12C8  36                  	db $36		;[Note] 55
    3775.  0E:12C9                      				;[Skip delay] 3
    3776.  0E:12C9  32                  	db $32		;[Note] 51
    3777.  0E:12CA                      				;[Skip delay] 3
    3778.  0E:12CA  3B                  	db $3B		;[Note] 60
    3779.  0E:12CB                      				;[Skip delay] 3
    3780.  0E:12CB  36                  	db $36		;[Note] 55
    3781.  0E:12CC                      				;[Skip delay] 3
    3782.  0E:12CC  32                  	db $32		;[Note] 51
    3783.  0E:12CD                      				;[Skip delay] 3
    3784.  0E:12CD  3B                  	db $3B		;[Note] 60
    3785.  0E:12CE                      				;[Skip delay] 3
    3786.  0E:12CE  36                  	db $36		;[Note] 55
    3787.  0E:12CF                      				;[Skip delay] 3
    3788.  0E:12CF  32                  	db $32		;[Note] 51
    3789.  0E:12D0                      				;[Skip delay] 3
    3790.  0E:12D0  3B                  	db $3B		;[Note] 60
    3791.  0E:12D1                      				;[Skip delay] 3
    3792.  0E:12D1  36                  	db $36		;[Note] 55
    3793.  0E:12D2  C1                  	db $C1		;[Wait] 2
    3794.  0E:12D3  39                  	db $39		;[Note] 58
    3795.  0E:12D4  C2                  	db $C2		;[Wait] 3
    3796.  0E:12D5  34                  	db $34		;[Note] 53
    3797.  0E:12D6                      				;[Skip delay] 3
    3798.  0E:12D6  31                  	db $31		;[Note] 50
    3799.  0E:12D7                      				;[Skip delay] 3
    3800.  0E:12D7  39                  	db $39		;[Note] 58
    3801.  0E:12D8                      				;[Skip delay] 3
    3802.  0E:12D8  34                  	db $34		;[Note] 53
    3803.  0E:12D9                      				;[Skip delay] 3
    3804.  0E:12D9  31                  	db $31		;[Note] 50
    3805.  0E:12DA                      				;[Skip delay] 3
    3806.  0E:12DA  39                  	db $39		;[Note] 58
    3807.  0E:12DB                      				;[Skip delay] 3
    3808.  0E:12DB  34                  	db $34		;[Note] 53
    3809.  0E:12DC                      				;[Skip delay] 3
    3810.  0E:12DC  31                  	db $31		;[Note] 50
    3811.  0E:12DD                      				;[Skip delay] 3
    3812.  0E:12DD  39                  	db $39		;[Note] 58
    3813.  0E:12DE                      				;[Skip delay] 3
    3814.  0E:12DE  34                  	db $34		;[Note] 53
    3815.  0E:12DF  C0                  	db $C0		;[Wait] 1
    3816.  0E:12E0                      				;[Skip delay] 1
    3817.  0E:12E0  BF                  	db $BF		;[End-Of-Track]
    3818.  0E:12E1                      .track_110:
    3819.  0E:12E1  3B                  	db $3B		;[Note] 60
    3820.  0E:12E2  CF                  	db $CF		;[Wait] 16
    3821.  0E:12E3  36                  	db $36		;[Note] 55
    3822.  0E:12E4  C7                  	db $C7		;[Wait] 8
    3823.  0E:12E5  42                  	db $42		;[Note] 67
    3824.  0E:12E6                      				;[Skip delay] 8
    3825.  0E:12E6  40                  	db $40		;[Note] 65
    3826.  0E:12E7  CF                  	db $CF		;[Wait] 16
    3827.  0E:12E8  3D                  	db $3D		;[Note] 62
    3828.  0E:12E9                      				;[Skip delay] 16
    3829.  0E:12E9  BF                  	db $BF		;[End-Of-Track]
    3830.  0E:12EA                      .track_111:
    3831.  0E:12EA  0B                  	db $0B		;[Note] 12
    3832.  0E:12EB  C5                  	db $C5		;[Wait] 6
    3833.  0E:12EC  0B                  	db $0B		;[Note] 12
    3834.  0E:12ED  C1                  	db $C1		;[Wait] 2
    3835.  0E:12EE  17                  	db $17		;[Note] 24
    3836.  0E:12EF  C3                  	db $C3		;[Wait] 4
    3837.  0E:12F0  0B                  	db $0B		;[Note] 12
    3838.  0E:12F1                      				;[Skip delay] 4
    3839.  0E:12F1  17                  	db $17		;[Note] 24
    3840.  0E:12F2                      				;[Skip delay] 4
    3841.  0E:12F2  15                  	db $15		;[Note] 22
    3842.  0E:12F3                      				;[Skip delay] 4
    3843.  0E:12F3  12                  	db $12		;[Note] 19
    3844.  0E:12F4                      				;[Skip delay] 4
    3845.  0E:12F4  17                  	db $17		;[Note] 24
    3846.  0E:12F5                      				;[Skip delay] 4
    3847.  0E:12F5  09                  	db $09		;[Note] 10
    3848.  0E:12F6  C5                  	db $C5		;[Wait] 6
    3849.  0E:12F7  09                  	db $09		;[Note] 10
    3850.  0E:12F8  C1                  	db $C1		;[Wait] 2
    3851.  0E:12F9  15                  	db $15		;[Note] 22
    3852.  0E:12FA  C3                  	db $C3		;[Wait] 4
    3853.  0E:12FB  09                  	db $09		;[Note] 10
    3854.  0E:12FC                      				;[Skip delay] 4
    3855.  0E:12FC  15                  	db $15		;[Note] 22
    3856.  0E:12FD                      				;[Skip delay] 4
    3857.  0E:12FD  17                  	db $17		;[Note] 24
    3858.  0E:12FE                      				;[Skip delay] 4
    3859.  0E:12FE  19                  	db $19		;[Note] 26
    3860.  0E:12FF                      				;[Skip delay] 4
    3861.  0E:12FF  15                  	db $15		;[Note] 22
    3862.  0E:1300                      				;[Skip delay] 4
    3863.  0E:1300  BF                  	db $BF		;[End-Of-Track]
    3864.  0E:1301                      .track_112:
    3865.  0E:1301  2F                  	db $2F		;[Note] 48
    3866.  0E:1302  CB                  	db $CB		;[Wait] 12
    3867.  0E:1303  2A                  	db $2A		;[Note] 43
    3868.  0E:1304  C1                  	db $C1		;[Wait] 2
    3869.  0E:1305  2D                  	db $2D		;[Note] 46
    3870.  0E:1306                      				;[Skip delay] 2
    3871.  0E:1306  2F                  	db $2F		;[Note] 48
    3872.  0E:1307  C7                  	db $C7		;[Wait] 8
    3873.  0E:1308  36                  	db $36		;[Note] 55
    3874.  0E:1309                      				;[Skip delay] 8
    3875.  0E:1309  34                  	db $34		;[Note] 53
    3876.  0E:130A  CB                  	db $CB		;[Wait] 12
    3877.  0E:130B  32                  	db $32		;[Note] 51
    3878.  0E:130C  C1                  	db $C1		;[Wait] 2
    3879.  0E:130D  34                  	db $34		;[Note] 53
    3880.  0E:130E                      				;[Skip delay] 2
    3881.  0E:130E  31                  	db $31		;[Note] 50
    3882.  0E:130F  CF                  	db $CF		;[Wait] 16
    3883.  0E:1310  BF                  	db $BF		;[End-Of-Track]
    3884.  0E:1311                      .track_113:
    3885.  0E:1311  C2                  	db $C2		;[Wait] 3
    3886.  0E:1312  2F                  	db $2F		;[Note] 48
    3887.  0E:1313  CB                  	db $CB		;[Wait] 12
    3888.  0E:1314  2A                  	db $2A		;[Note] 43
    3889.  0E:1315  C1                  	db $C1		;[Wait] 2
    3890.  0E:1316  2D                  	db $2D		;[Note] 46
    3891.  0E:1317                      				;[Skip delay] 2
    3892.  0E:1317  2F                  	db $2F		;[Note] 48
    3893.  0E:1318  C7                  	db $C7		;[Wait] 8
    3894.  0E:1319  36                  	db $36		;[Note] 55
    3895.  0E:131A                      				;[Skip delay] 8
    3896.  0E:131A  34                  	db $34		;[Note] 53
    3897.  0E:131B  CB                  	db $CB		;[Wait] 12
    3898.  0E:131C  32                  	db $32		;[Note] 51
    3899.  0E:131D  C1                  	db $C1		;[Wait] 2
    3900.  0E:131E  34                  	db $34		;[Note] 53
    3901.  0E:131F                      				;[Skip delay] 2
    3902.  0E:131F  31                  	db $31		;[Note] 50
    3903.  0E:1320  C0                  	db $C0		;[Wait] 1
    3904.  0E:1321  36                  	db $36		;[Note] 55
    3905.  0E:1322  6C                  	db $6C		;[Volume] 12
    3906.  0E:1323  9E 00               	db $9E, $00	; short arp
    3907.  0E:1325  C3                  	db $C3		;[Wait] 4
    3908.  0E:1326  34                  	db $34		;[Note] 53
    3909.  0E:1327                      				;[Skip delay] 4
    3910.  0E:1327  32                  	db $32		;[Note] 51
    3911.  0E:1328                      				;[Skip delay] 4
    3912.  0E:1328  BF                  	db $BF		;[End-Of-Track]
    3913.  0E:1329                      .track_114:
    3914.  0E:1329  2F                  	db $2F		;[Note] 48
    3915.  0E:132A  6F                  	db $6F		;[Volume] 15
    3916.  0E:132B  83                  	db $83		;[Instrument] 20
    3917.  0E:132C  C5                  	db $C5		;[Wait] 6
    3918.  0E:132D  2F                  	db $2F		;[Note] 48
    3919.  0E:132E                      				;[Skip delay] 6
    3920.  0E:132E  23                  	db $23		;[Note] 36
    3921.  0E:132F  81                  	db $81		;[Instrument] 18
    3922.  0E:1330  C2                  	db $C2		;[Wait] 3
    3923.  0E:1331  23                  	db $23		;[Note] 36
    3924.  0E:1332  67                  	db $67		;[Volume] 7
    3925.  0E:1333  C0                  	db $C0		;[Wait] 1
    3926.  0E:1334  2F                  	db $2F		;[Note] 48
    3927.  0E:1335  6F                  	db $6F		;[Volume] 15
    3928.  0E:1336  83                  	db $83		;[Instrument] 20
    3929.  0E:1337  C5                  	db $C5		;[Wait] 6
    3930.  0E:1338  2F                  	db $2F		;[Note] 48
    3931.  0E:1339                      				;[Skip delay] 6
    3932.  0E:1339  23                  	db $23		;[Note] 36
    3933.  0E:133A  81                  	db $81		;[Instrument] 18
    3934.  0E:133B  C2                  	db $C2		;[Wait] 3
    3935.  0E:133C  23                  	db $23		;[Note] 36
    3936.  0E:133D  67                  	db $67		;[Volume] 7
    3937.  0E:133E  C0                  	db $C0		;[Wait] 1
    3938.  0E:133F  2F                  	db $2F		;[Note] 48
    3939.  0E:1340  6F                  	db $6F		;[Volume] 15
    3940.  0E:1341  83                  	db $83		;[Instrument] 20
    3941.  0E:1342  C5                  	db $C5		;[Wait] 6
    3942.  0E:1343  2F                  	db $2F		;[Note] 48
    3943.  0E:1344  C1                  	db $C1		;[Wait] 2
    3944.  0E:1345  23                  	db $23		;[Note] 36
    3945.  0E:1346  81                  	db $81		;[Instrument] 18
    3946.  0E:1347  C2                  	db $C2		;[Wait] 3
    3947.  0E:1348  23                  	db $23		;[Note] 36
    3948.  0E:1349  67                  	db $67		;[Volume] 7
    3949.  0E:134A  C4                  	db $C4		;[Wait] 5
    3950.  0E:134B  2F                  	db $2F		;[Note] 48
    3951.  0E:134C  6F                  	db $6F		;[Volume] 15
    3952.  0E:134D  83                  	db $83		;[Instrument] 20
    3953.  0E:134E  C5                  	db $C5		;[Wait] 6
    3954.  0E:134F  2F                  	db $2F		;[Note] 48
    3955.  0E:1350  C1                  	db $C1		;[Wait] 2
    3956.  0E:1351  23                  	db $23		;[Note] 36
    3957.  0E:1352  81                  	db $81		;[Instrument] 18
    3958.  0E:1353  C2                  	db $C2		;[Wait] 3
    3959.  0E:1354  23                  	db $23		;[Note] 36
    3960.  0E:1355  67                  	db $67		;[Volume] 7
    3961.  0E:1356  C4                  	db $C4		;[Wait] 5
    3962.  0E:1357  BF                  	db $BF		;[End-Of-Track]
    3963.  0E:1358                      .track_115:
    3964.  0E:1358  13                  	db $13		;[Note] 20
    3965.  0E:1359  7F                  	db $7F		;[Instrument] 16
    3966.  0E:135A  C5                  	db $C5		;[Wait] 6
    3967.  0E:135B  13                  	db $13		;[Note] 20
    3968.  0E:135C                      				;[Skip delay] 6
    3969.  0E:135C  13                  	db $13		;[Note] 20
    3970.  0E:135D  7D                  	db $7D		;[Instrument] 14
    3971.  0E:135E  C3                  	db $C3		;[Wait] 4
    3972.  0E:135F  15                  	db $15		;[Note] 22
    3973.  0E:1360  7F                  	db $7F		;[Instrument] 16
    3974.  0E:1361  C5                  	db $C5		;[Wait] 6
    3975.  0E:1362  12                  	db $12		;[Note] 19
    3976.  0E:1363                      				;[Skip delay] 6
    3977.  0E:1363  15                  	db $15		;[Note] 22
    3978.  0E:1364  7D                  	db $7D		;[Instrument] 14
    3979.  0E:1365  C3                  	db $C3		;[Wait] 4
    3980.  0E:1366  17                  	db $17		;[Note] 24
    3981.  0E:1367  7F                  	db $7F		;[Instrument] 16
    3982.  0E:1368  C5                  	db $C5		;[Wait] 6
    3983.  0E:1369  17                  	db $17		;[Note] 24
    3984.  0E:136A  C1                  	db $C1		;[Wait] 2
    3985.  0E:136B  23                  	db $23		;[Note] 36
    3986.  0E:136C  7D                  	db $7D		;[Instrument] 14
    3987.  0E:136D  C3                  	db $C3		;[Wait] 4
    3988.  0E:136E  17                  	db $17		;[Note] 24
    3989.  0E:136F  7F                  	db $7F		;[Instrument] 16
    3990.  0E:1370                      				;[Skip delay] 4
    3991.  0E:1370  17                  	db $17		;[Note] 24
    3992.  0E:1371  C5                  	db $C5		;[Wait] 6
    3993.  0E:1372  17                  	db $17		;[Note] 24
    3994.  0E:1373  C1                  	db $C1		;[Wait] 2
    3995.  0E:1374  23                  	db $23		;[Note] 36
    3996.  0E:1375  7D                  	db $7D		;[Instrument] 14
    3997.  0E:1376  C3                  	db $C3		;[Wait] 4
    3998.  0E:1377  17                  	db $17		;[Note] 24
    3999.  0E:1378  7F                  	db $7F		;[Instrument] 16
    4000.  0E:1379                      				;[Skip delay] 4
    4001.  0E:1379  BF                  	db $BF		;[End-Of-Track]
    4002.  0E:137A                      .track_116:
    4003.  0E:137A  2B                  	db $2B		;[Note] 44
    4004.  0E:137B  70                  	db $70		;[Instrument] 1
    4005.  0E:137C  C5                  	db $C5		;[Wait] 6
    4006.  0E:137D  36                  	db $36		;[Note] 55
    4007.  0E:137E                      				;[Skip delay] 6
    4008.  0E:137E  34                  	db $34		;[Note] 53
    4009.  0E:137F  C3                  	db $C3		;[Wait] 4
    4010.  0E:1380  32                  	db $32		;[Note] 51
    4011.  0E:1381  C5                  	db $C5		;[Wait] 6
    4012.  0E:1382  31                  	db $31		;[Note] 50
    4013.  0E:1383                      				;[Skip delay] 6
    4014.  0E:1383  2D                  	db $2D		;[Note] 46
    4015.  0E:1384  85                  	db $85		;[Instrument] 22
    4016.  0E:1385  C3                  	db $C3		;[Wait] 4
    4017.  0E:1386  2F                  	db $2F		;[Note] 48
    4018.  0E:1387  70                  	db $70		;[Instrument] 1
    4019.  0E:1388  DF                  	db $DF		;[Wait] 32
    4020.  0E:1389  BF                  	db $BF		;[End-Of-Track]
    4021.  0E:138A                      .track_117:
    4022.  0E:138A  37                  	db $37		;[Note] 56
    4023.  0E:138B  C2                  	db $C2		;[Wait] 3
    4024.  0E:138C  3B                  	db $3B		;[Note] 60
    4025.  0E:138D                      				;[Skip delay] 3
    4026.  0E:138D  3E                  	db $3E		;[Note] 63
    4027.  0E:138E                      				;[Skip delay] 3
    4028.  0E:138E  3D                  	db $3D		;[Note] 62
    4029.  0E:138F                      				;[Skip delay] 3
    4030.  0E:138F  3E                  	db $3E		;[Note] 63
    4031.  0E:1390                      				;[Skip delay] 3
    4032.  0E:1390  40                  	db $40		;[Note] 65
    4033.  0E:1391                      				;[Skip delay] 3
    4034.  0E:1391  42                  	db $42		;[Note] 67
    4035.  0E:1392                      				;[Skip delay] 3
    4036.  0E:1392  40                  	db $40		;[Note] 65
    4037.  0E:1393                      				;[Skip delay] 3
    4038.  0E:1393  3E                  	db $3E		;[Note] 63
    4039.  0E:1394                      				;[Skip delay] 3
    4040.  0E:1394  40                  	db $40		;[Note] 65
    4041.  0E:1395                      				;[Skip delay] 3
    4042.  0E:1395  3E                  	db $3E		;[Note] 63
    4043.  0E:1396  C1                  	db $C1		;[Wait] 2
    4044.  0E:1397  3B                  	db $3B		;[Note] 60
    4045.  0E:1398  C2                  	db $C2		;[Wait] 3
    4046.  0E:1399  36                  	db $36		;[Note] 55
    4047.  0E:139A                      				;[Skip delay] 3
    4048.  0E:139A  32                  	db $32		;[Note] 51
    4049.  0E:139B                      				;[Skip delay] 3
    4050.  0E:139B  2F                  	db $2F		;[Note] 48
    4051.  0E:139C                      				;[Skip delay] 3
    4052.  0E:139C  32                  	db $32		;[Note] 51
    4053.  0E:139D                      				;[Skip delay] 3
    4054.  0E:139D  36                  	db $36		;[Note] 55
    4055.  0E:139E                      				;[Skip delay] 3
    4056.  0E:139E  3B                  	db $3B		;[Note] 60
    4057.  0E:139F                      				;[Skip delay] 3
    4058.  0E:139F  36                  	db $36		;[Note] 55
    4059.  0E:13A0                      				;[Skip delay] 3
    4060.  0E:13A0  32                  	db $32		;[Note] 51
    4061.  0E:13A1                      				;[Skip delay] 3
    4062.  0E:13A1  2F                  	db $2F		;[Note] 48
    4063.  0E:13A2                      				;[Skip delay] 3
    4064.  0E:13A2  32                  	db $32		;[Note] 51
    4065.  0E:13A3  C0                  	db $C0		;[Wait] 1
    4066.  0E:13A4                      				;[Skip delay] 1
    4067.  0E:13A4  BF                  	db $BF		;[End-Of-Track]
    4068.  0E:13A5                      .track_118:
    4069.  0E:13A5  37                  	db $37		;[Note] 56
    4070.  0E:13A6  C5                  	db $C5		;[Wait] 6
    4071.  0E:13A7  42                  	db $42		;[Note] 67
    4072.  0E:13A8                      				;[Skip delay] 6
    4073.  0E:13A8  40                  	db $40		;[Note] 65
    4074.  0E:13A9  C3                  	db $C3		;[Wait] 4
    4075.  0E:13AA  3E                  	db $3E		;[Note] 63
    4076.  0E:13AB  C5                  	db $C5		;[Wait] 6
    4077.  0E:13AC  3D                  	db $3D		;[Note] 62
    4078.  0E:13AD                      				;[Skip delay] 6
    4079.  0E:13AD  40                  	db $40		;[Note] 65
    4080.  0E:13AE  C3                  	db $C3		;[Wait] 4
    4081.  0E:13AF  3B                  	db $3B		;[Note] 60
    4082.  0E:13B0  DF                  	db $DF		;[Wait] 32
    4083.  0E:13B1  BF                  	db $BF		;[End-Of-Track]
    4084.  0E:13B2                      .track_119:
    4085.  0E:13B2  07                  	db $07		;[Note] 8
    4086.  0E:13B3  C5                  	db $C5		;[Wait] 6
    4087.  0E:13B4  07                  	db $07		;[Note] 8
    4088.  0E:13B5                      				;[Skip delay] 6
    4089.  0E:13B5  07                  	db $07		;[Note] 8
    4090.  0E:13B6  C3                  	db $C3		;[Wait] 4
    4091.  0E:13B7  09                  	db $09		;[Note] 10
    4092.  0E:13B8  C5                  	db $C5		;[Wait] 6
    4093.  0E:13B9  06                  	db $06		;[Note] 7
    4094.  0E:13BA                      				;[Skip delay] 6
    4095.  0E:13BA  09                  	db $09		;[Note] 10
    4096.  0E:13BB  C3                  	db $C3		;[Wait] 4
    4097.  0E:13BC  0B                  	db $0B		;[Note] 12
    4098.  0E:13BD  C5                  	db $C5		;[Wait] 6
    4099.  0E:13BE  0B                  	db $0B		;[Note] 12
    4100.  0E:13BF  C1                  	db $C1		;[Wait] 2
    4101.  0E:13C0  17                  	db $17		;[Note] 24
    4102.  0E:13C1  C3                  	db $C3		;[Wait] 4
    4103.  0E:13C2  0B                  	db $0B		;[Note] 12
    4104.  0E:13C3                      				;[Skip delay] 4
    4105.  0E:13C3  0B                  	db $0B		;[Note] 12
    4106.  0E:13C4  C5                  	db $C5		;[Wait] 6
    4107.  0E:13C5  0B                  	db $0B		;[Note] 12
    4108.  0E:13C6  C1                  	db $C1		;[Wait] 2
    4109.  0E:13C7  17                  	db $17		;[Note] 24
    4110.  0E:13C8  C3                  	db $C3		;[Wait] 4
    4111.  0E:13C9  0B                  	db $0B		;[Note] 12
    4112.  0E:13CA                      				;[Skip delay] 4
    4113.  0E:13CA  BF                  	db $BF		;[End-Of-Track]
    4114.  0E:13CB                      .track_120:
    4115.  0E:13CB  2B                  	db $2B		;[Note] 44
    4116.  0E:13CC  C5                  	db $C5		;[Wait] 6
    4117.  0E:13CD  36                  	db $36		;[Note] 55
    4118.  0E:13CE                      				;[Skip delay] 6
    4119.  0E:13CE  34                  	db $34		;[Note] 53
    4120.  0E:13CF  C3                  	db $C3		;[Wait] 4
    4121.  0E:13D0  32                  	db $32		;[Note] 51
    4122.  0E:13D1  C5                  	db $C5		;[Wait] 6
    4123.  0E:13D2  31                  	db $31		;[Note] 50
    4124.  0E:13D3                      				;[Skip delay] 6
    4125.  0E:13D3  34                  	db $34		;[Note] 53
    4126.  0E:13D4  C3                  	db $C3		;[Wait] 4
    4127.  0E:13D5  2F                  	db $2F		;[Note] 48
    4128.  0E:13D6  DF                  	db $DF		;[Wait] 32
    4129.  0E:13D7  BF                  	db $BF		;[End-Of-Track]
    4130.  0E:13D8                      .track_121:
    4131.  0E:13D8  26                  	db $26		;[Note] 39
    4132.  0E:13D9  6F                  	db $6F		;[Volume] 15
    4133.  0E:13DA  9E 00               	db $9E, $00	; short arp
    4134.  0E:13DC  C5                  	db $C5		;[Wait] 6
    4135.  0E:13DD  32                  	db $32		;[Note] 51
    4136.  0E:13DE                      				;[Skip delay] 6
    4137.  0E:13DE  31                  	db $31		;[Note] 50
    4138.  0E:13DF  C3                  	db $C3		;[Wait] 4
    4139.  0E:13E0  2F                  	db $2F		;[Note] 48
    4140.  0E:13E1  C5                  	db $C5		;[Wait] 6
    4141.  0E:13E2  2D                  	db $2D		;[Note] 46
    4142.  0E:13E3                      				;[Skip delay] 6
    4143.  0E:13E3  31                  	db $31		;[Note] 50
    4144.  0E:13E4  C3                  	db $C3		;[Wait] 4
    4145.  0E:13E5  2A                  	db $2A		;[Note] 43
    4146.  0E:13E6  DF                  	db $DF		;[Wait] 32
    4147.  0E:13E7  BF                  	db $BF		;[End-Of-Track]
    4148.  0E:13E8                      .track_122:
    4149.  0E:13E8  2F                  	db $2F		;[Note] 48
    4150.  0E:13E9  6F                  	db $6F		;[Volume] 15
    4151.  0E:13EA  83                  	db $83		;[Instrument] 20
    4152.  0E:13EB  C5                  	db $C5		;[Wait] 6
    4153.  0E:13EC  2F                  	db $2F		;[Note] 48
    4154.  0E:13ED  C1                  	db $C1		;[Wait] 2
    4155.  0E:13EE  23                  	db $23		;[Note] 36
    4156.  0E:13EF  81                  	db $81		;[Instrument] 18
    4157.  0E:13F0  C2                  	db $C2		;[Wait] 3
    4158.  0E:13F1  23                  	db $23		;[Note] 36
    4159.  0E:13F2  67                  	db $67		;[Volume] 7
    4160.  0E:13F3  C0                  	db $C0		;[Wait] 1
    4161.  0E:13F4  2F                  	db $2F		;[Note] 48
    4162.  0E:13F5  6F                  	db $6F		;[Volume] 15
    4163.  0E:13F6  83                  	db $83		;[Instrument] 20
    4164.  0E:13F7  C3                  	db $C3		;[Wait] 4
    4165.  0E:13F8  2A                  	db $2A		;[Note] 43
    4166.  0E:13F9  82                  	db $82		;[Instrument] 19
    4167.  0E:13FA  C1                  	db $C1		;[Wait] 2
    4168.  0E:13FB  2A                  	db $2A		;[Note] 43
    4169.  0E:13FC                      				;[Skip delay] 2
    4170.  0E:13FC  22                  	db $22		;[Note] 35
    4171.  0E:13FD  C2                  	db $C2		;[Wait] 3
    4172.  0E:13FE  22                  	db $22		;[Note] 35
    4173.  0E:13FF  67                  	db $67		;[Volume] 7
    4174.  0E:1400  C0                  	db $C0		;[Wait] 1
    4175.  0E:1401  26                  	db $26		;[Note] 39
    4176.  0E:1402  6F                  	db $6F		;[Volume] 15
    4177.  0E:1403  C2                  	db $C2		;[Wait] 3
    4178.  0E:1404  26                  	db $26		;[Note] 39
    4179.  0E:1405  67                  	db $67		;[Volume] 7
    4180.  0E:1406  C0                  	db $C0		;[Wait] 1
    4181.  0E:1407  1E                  	db $1E		;[Note] 31
    4182.  0E:1408  6F                  	db $6F		;[Volume] 15
    4183.  0E:1409  C2                  	db $C2		;[Wait] 3
    4184.  0E:140A  1E                  	db $1E		;[Note] 31
    4185.  0E:140B  67                  	db $67		;[Volume] 7
    4186.  0E:140C  C0                  	db $C0		;[Wait] 1
    4187.  0E:140D  BF                  	db $BF		;[End-Of-Track]
    4188.  0E:140E                      .track_123:
    4189.  0E:140E  17                  	db $17		;[Note] 24
    4190.  0E:140F  7F                  	db $7F		;[Instrument] 16
    4191.  0E:1410  C5                  	db $C5		;[Wait] 6
    4192.  0E:1411  17                  	db $17		;[Note] 24
    4193.  0E:1412  C1                  	db $C1		;[Wait] 2
    4194.  0E:1413  23                  	db $23		;[Note] 36
    4195.  0E:1414  7D                  	db $7D		;[Instrument] 14
    4196.  0E:1415  C3                  	db $C3		;[Wait] 4
    4197.  0E:1416  17                  	db $17		;[Note] 24
    4198.  0E:1417  7F                  	db $7F		;[Instrument] 16
    4199.  0E:1418                      				;[Skip delay] 4
    4200.  0E:1418  23                  	db $23		;[Note] 36
    4201.  0E:1419  7D                  	db $7D		;[Instrument] 14
    4202.  0E:141A                      				;[Skip delay] 4
    4203.  0E:141A  21                  	db $21		;[Note] 34
    4204.  0E:141B                      				;[Skip delay] 4
    4205.  0E:141B  1E                  	db $1E		;[Note] 31
    4206.  0E:141C                      				;[Skip delay] 4
    4207.  0E:141C  23                  	db $23		;[Note] 36
    4208.  0E:141D                      				;[Skip delay] 4
    4209.  0E:141D  BF                  	db $BF		;[End-Of-Track]
    4210.  0E:141E                      .track_124:
    4211.  0E:141E  CF                  	db $CF		;[Wait] 16
    4212.  0E:141F  2F                  	db $2F		;[Note] 48
    4213.  0E:1420  83                  	db $83		;[Instrument] 20
    4214.  0E:1421  C3                  	db $C3		;[Wait] 4
    4215.  0E:1422  2F                  	db $2F		;[Note] 48
    4216.  0E:1423  CB                  	db $CB		;[Wait] 12
    4217.  0E:1424  BF                  	db $BF		;[End-Of-Track]
    4218.  0E:1425                      .track_125:
    4219.  0E:1425  3B                  	db $3B		;[Note] 60
    4220.  0E:1426  C2                  	db $C2		;[Wait] 3
    4221.  0E:1427  36                  	db $36		;[Note] 55
    4222.  0E:1428                      				;[Skip delay] 3
    4223.  0E:1428  32                  	db $32		;[Note] 51
    4224.  0E:1429                      				;[Skip delay] 3
    4225.  0E:1429  2F                  	db $2F		;[Note] 48
    4226.  0E:142A                      				;[Skip delay] 3
    4227.  0E:142A  32                  	db $32		;[Note] 51
    4228.  0E:142B                      				;[Skip delay] 3
    4229.  0E:142B  36                  	db $36		;[Note] 55
    4230.  0E:142C                      				;[Skip delay] 3
    4231.  0E:142C  3B                  	db $3B		;[Note] 60
    4232.  0E:142D                      				;[Skip delay] 3
    4233.  0E:142D  36                  	db $36		;[Note] 55
    4234.  0E:142E                      				;[Skip delay] 3
    4235.  0E:142E  32                  	db $32		;[Note] 51
    4236.  0E:142F                      				;[Skip delay] 3
    4237.  0E:142F  2F                  	db $2F		;[Note] 48
    4238.  0E:1430                      				;[Skip delay] 3
    4239.  0E:1430  32                  	db $32		;[Note] 51
    4240.  0E:1431  C0                  	db $C0		;[Wait] 1
    4241.  0E:1432                      				;[Skip delay] 1
    4242.  0E:1432  BF                  	db $BF		;[End-Of-Track]
    4243.  0E:1433                      .track_126:
    4244.  0E:1433  DD                  	db $DD		;[Wait] 30
    4245.  0E:1434  60                  	db $60		;[Note] 97
    4246.  0E:1435  C1                  	db $C1		;[Wait] 2
    4247.  0E:1436  BF                  	db $BF		;[End-Of-Track]
    4248.  0E:1437                      .track_127:
    4249.  0E:1437  0B                  	db $0B		;[Note] 12
    4250.  0E:1438  C5                  	db $C5		;[Wait] 6
    4251.  0E:1439  0B                  	db $0B		;[Note] 12
    4252.  0E:143A  C1                  	db $C1		;[Wait] 2
    4253.  0E:143B  17                  	db $17		;[Note] 24
    4254.  0E:143C  C3                  	db $C3		;[Wait] 4
    4255.  0E:143D  0B                  	db $0B		;[Note] 12
    4256.  0E:143E                      				;[Skip delay] 4
    4257.  0E:143E  17                  	db $17		;[Note] 24
    4258.  0E:143F                      				;[Skip delay] 4
    4259.  0E:143F  15                  	db $15		;[Note] 22
    4260.  0E:1440                      				;[Skip delay] 4
    4261.  0E:1440  12                  	db $12		;[Note] 19
    4262.  0E:1441                      				;[Skip delay] 4
    4263.  0E:1441  17                  	db $17		;[Note] 24
    4264.  0E:1442                      				;[Skip delay] 4
    4265.  0E:1442  BF                  	db $BF		;[End-Of-Track]
    4266.  0E:1443                      .track_128:
    4267.  0E:1443  DF                  	db $DF		;[Wait] 32
    4268.  0E:1444  BF                  	db $BF		;[End-Of-Track]
    4269.  0E:1445                      .track_129:
    4270.  0E:1445  60                  	db $60		;[Note] 97
    4271.  0E:1446  CF                  	db $CF		;[Wait] 16
    4272.  0E:1447  23                  	db $23		;[Note] 36
    4273.  0E:1448  6D                  	db $6D		;[Volume] 13
    4274.  0E:1449  74                  	db $74		;[Instrument] 5
    4275.  0E:144A                      				;[Skip delay] 16
    4276.  0E:144A  24                  	db $24		;[Note] 37
    4277.  0E:144B  D7                  	db $D7		;[Wait] 24
    4278.  0E:144C  21                  	db $21		;[Note] 34
    4279.  0E:144D  C6                  	db $C6		;[Wait] 7
    4280.  0E:144E  C0                  	db $C0		;[Wait] 1
    4281.  0E:144F  BF                  	db $BF		;[End-Of-Track]
    4282.  0E:1450                      .track_130:
    4283.  0E:1450  BF                  	db $BF		;[End-Of-Track]
    4284.  0E:1451                      ; [ Song sub-track data ]
     426   0E:1451                      	include	"..\TTplayer\code\ttreplayDAT.asm"
       1.  0E:1451                      
       2.  0E:1451  00 (128)            	ds 8*16, 0
       3.  0E:14D1                      _VOLUME_TABLE
       4.  0E:14D1  (0100)              	incbin ".\voltable_combined.bin"	
       5.  0E:15D1                      
       6.  0E:15D1                      ;Konami values found in	Nemesis 2 replayer.
       7.  0E:15D1  (0E:0D40)           C_PER		equ	$6a*32	
       8.  0E:15D1  (0E:0C80)           C1_PER	equ	$64*32
       9.  0E:15D1  (0E:0BC0)           D_PER		equ	$5e*32
      10.  0E:15D1  (0E:0B20)           D1_PER	equ	$59*32
      11.  0E:15D1  (0E:0A80)           E_PER		equ	$54*32
      12.  0E:15D1  (0E:09E0)           F_PER		equ	$4f*32
      13.  0E:15D1  (0E:0940)           F1_PER	equ	$4a*32
      14.  0E:15D1  (0E:08C0)           G_PER		equ	$46*32
      15.  0E:15D1  (0E:0840)           G1_PER	equ	$42*32
      16.  0E:15D1  (0E:07E0)           A_PER		equ	$3f*32
      17.  0E:15D1  (0E:0760)           A1_PER	equ	$3b*32
      18.  0E:15D1  (0E:0700)           B_PER		equ	$38*32
      19.  0E:15D1                      
      20.  0E:15D1                      TRACK_ToneTable:	
      21.  0E:15D1                      	dw C_PER/1	,C1_PER/1  ,D_PER/1  ,D1_PER/1  ,E_PER/1	,F_PER/1  ,F1_PER/1  ,G_PER/1	 ,G1_PER/1	,A_PER/1  ,A1_PER/1  ,B_PER/1
      21.  0E:15D1  40 0D 80 0C C0 0B 20 0B 80 0A E0 09 40 09 C0 08 
      21.  0E:15E1  40 08 E0 07 60 07 00 07 
      22.  0E:15E9                      	dw C_PER/2	,C1_PER/2  ,D_PER/2  ,D1_PER/2  ,E_PER/2	,F_PER/2  ,F1_PER/2  ,G_PER/2	 ,G1_PER/2	,A_PER/2  ,A1_PER/2  ,B_PER/2
      22.  0E:15E9  A0 06 40 06 E0 05 90 05 40 05 F0 04 A0 04 60 04 
      22.  0E:15F9  20 04 F0 03 B0 03 80 03 
      23.  0E:1601                      	dw C_PER/4	,C1_PER/4  ,D_PER/4  ,D1_PER/4  ,E_PER/4	,F_PER/4  ,F1_PER/4  ,G_PER/4	 ,G1_PER/4	,A_PER/4  ,A1_PER/4  ,B_PER/4
      23.  0E:1601  50 03 20 03 F0 02 C8 02 A0 02 78 02 50 02 30 02 
      23.  0E:1611  10 02 F8 01 D8 01 C0 01 
      24.  0E:1619                      	dw C_PER/8	,C1_PER/8  ,D_PER/8  ,D1_PER/8  ,E_PER/8	,F_PER/8  ,F1_PER/8  ,G_PER/8	 ,G1_PER/8	,A_PER/8  ,A1_PER/8  ,B_PER/8
      24.  0E:1619  A8 01 90 01 78 01 64 01 50 01 3C 01 28 01 18 01 
      24.  0E:1629  08 01 FC 00 EC 00 E0 00 
      25.  0E:1631                      	dw C_PER/16	,C1_PER/16 ,D_PER/16 ,D1_PER/16 ,E_PER/16	,F_PER/16 ,F1_PER/16 ,G_PER/16 ,G1_PER/16	,A_PER/16 ,A1_PER/16 ,B_PER/16
      25.  0E:1631  D4 00 C8 00 BC 00 B2 00 A8 00 9E 00 94 00 8C 00 
      25.  0E:1641  84 00 7E 00 76 00 70 00 
      26.  0E:1649                      	dw C_PER/32	,C1_PER/32 ,D_PER/32 ,D1_PER/32 ,E_PER/32	,F_PER/32 ,F1_PER/32 ,G_PER/32 ,G1_PER/32	,A_PER/32 ,A1_PER/32 ,B_PER/32
      26.  0E:1649  6A 00 64 00 5E 00 59 00 54 00 4F 00 4A 00 46 00 
      26.  0E:1659  42 00 3F 00 3B 00 38 00 
      27.  0E:1661                      	dw C_PER/64	,C1_PER/64 ,D_PER/64 ,D1_PER/64 ,E_PER/64	,F_PER/64 ,F1_PER/64 ,G_PER/64 ,G1_PER/64	,A_PER/64 ,A1_PER/64 ,B_PER/64
      27.  0E:1661  35 00 32 00 2F 00 2C 00 2A 00 27 00 25 00 23 00 
      27.  0E:1671  21 00 1F 00 1D 00 1C 00 
      28.  0E:1679                      	dw C_PER/128,C1_PER/128,D_PER/128,D1_PER/128,E_PER/128,F_PER/128,F1_PER/128,G_PER/128,G1_PER/128,A_PER/128,A1_PER/128,B_PER/128
      28.  0E:1679  1A 00 19 00 17 00 16 00 15 00 13 00 12 00 11 00 
      28.  0E:1689  10 00 0F 00 0E 00 0E 00 
      29.  0E:1691                      
      30.  0E:1691                      
      31.  0E:1691                      TRACK_Vibrato_sine:
      32.  0E:1691                      	db	 0*2,	2*2, 4*2, 7*2,11*2,16*2,22*2,28*2,35*2,43*2,51*2,59*2,68*2,77*2,87*2,96*2
      32.  0E:1691  00 04 08 0E 16 20 2C 38 46 56 66 76 88 9A AE C0 
      33.  0E:16A1                      	db	96*2,86*2,77*2,68*2,59*2,51*2,43*2,35*2,28*2,22*2,16*2,11*2, 7*2,	4*2, 2*2, 0*2
      33.  0E:16A1  C0 AC 9A 88 76 66 56 46 38 2C 20 16 0E 08 04 00 
      34.  0E:16B1                      
      35.  0E:16B1                      TRACK_Vibrato_triangle:
      36.  0E:16B1                      	db	 0, 6,12,18,24,30,36,42,48,54,60,66,72,78,84,90
      36.  0E:16B1  00 06 0C 12 18 1E 24 2A 30 36 3C 42 48 4E 54 5A 
      37.  0E:16C1                      	db	96,90,84,78,72,66,60,54,48,42,36,30,24,18,12, 6
      37.  0E:16C1  60 5A 54 4E 48 42 3C 36 30 2A 24 1E 18 12 0C 06 
      38.  0E:16D1                      
      39.  0E:16D1                      TRACK_Vibrato_pulse:
      40.  0E:16D1                      	db	255,255,255,255,255,255,255,255,255,255,255,255,255,255,255,255
      40.  0E:16D1  FF FF FF FF FF FF FF FF FF FF FF FF FF FF FF FF 
      41.  0E:16E1                      	db      0,  0,  0,  0,  0,  0,  0,  0,  0,  0,  0,  0,  0,  0,  0,  0	
      41.  0E:16E1  00 00 00 00 00 00 00 00 00 00 00 00 00 00 00 00 
      42.  0E:16F1                      	
     427   0E:16F1                      end_demo_song:	
     428   0E:16F1                      	page 0,1
     429   01:6000                      	include	"..\TTplayer\code\ttreplay.asm"
       1.  01:6000                      ;=================================
       2.  01:6000                      ; TriloTracker re-player v0.3
       3.  01:6000                      ;
       4.  01:6000                      ; 
       5.  01:6000                      ; Also expects the code to run as a cartridge with SCC mapper
       6.  01:6000                      ;================================
       7.  01:6000                      	
       8.  01:6000                      ;===============================
       9.  01:6000                      ; todo:
      10.  01:6000                      ; - add external SCC support through conditional code.
      11.  01:6000                      ; - add replayer speed up through conditional code.
      12.  01:6000                      ; - optimize replayer code
      13.  01:6000                      ; - instructions for external usage of the RAM variables (setting PSG/SCC base volumes etc)
      14.  01:6000                      
      15.  01:6000                      	
      16.  01:6000                      ;define EXTERNAL_SCC 
      17.  01:6000                      define INTERNAL_SCC	
      18.  01:6000                      	
      19.  01:6000                      	
      20.  01:6000                      ;===========================================================
      21.  01:6000                      ; ---	replay_init
      22.  01:6000                      ; Initialize replayer data
      23.  01:6000                      ; 
      24.  01:6000                      ; Input: none
      25.  01:6000                      ;===========================================================
      26.  01:6000                      replay_init:
      27.  01:6000  3E 08               	ld	a,8
      28.  01:6002  CD 3E 60            	call	replay_set_SCC_balance
      29.  01:6005  3E 08               	ld	a,8
      30.  01:6007  CD 45 60            	call	replay_set_PSG_balance
      31.  01:600A                      
      32.  01:600A  AF                  	xor	a
      33.  01:600B  32 0F C0            	ld	(replay_mode),a	
      34.  01:600E                      	
      35.  01:600E  C9                  	ret
      36.  01:600F                      
      37.  01:600F                      ;===========================================================
      38.  01:600F                      ; ---	replay_pause
      39.  01:600F                      ; Stop/Restart music playback
      40.  01:600F                      ; 
      41.  01:600F                      ; Input: none
      42.  01:600F                      ;===========================================================
      43.  01:600F                      replay_pause:
      44.  01:600F  3A 0F C0            	ld	a,(replay_mode)
      45.  01:6012  A7                  	and	a
      46.  01:6013  CA 24 60            	jp	z,_replay_pause_r
      47.  01:6016                      	;-- stop decding and processing music data
      48.  01:6016  AF                  	xor	a
      49.  01:6017  32 0F C0            	ld	(replay_mode),a
      50.  01:601A                      	;-- set mixers to silence.
      51.  01:601A  3E 3F               	ld 	a,0x3F
      52.  01:601C  32 A6 C1            	ld	(AY_regMIXER),a 
      53.  01:601F  AF                  	xor	a
      54.  01:6020  32 3C C2            	ld	(SCC_regMIXER),a
      55.  01:6023  C9                  	ret
      56.  01:6024                      _replay_pause_r:	
      57.  01:6024                      	;-- enable music decoding and processing
      58.  01:6024  3E 01               	ld	a,1
      59.  01:6026  32 0F C0            	ld	(replay_mode),a
      60.  01:6029  C9                  	ret
      61.  01:602A                      
      62.  01:602A                      	
      63.  01:602A                      ;===========================================================
      64.  01:602A                      ; ---	replay_fade_out
      65.  01:602A                      ; Fade out the music. 
      66.  01:602A                      ; Once the sound is silence the replayer is paused.
      67.  01:602A                      ;
      68.  01:602A                      ; in: [A] fade speed (1 - 255)
      69.  01:602A                      ;===========================================================	
      70.  01:602A                      replay_fade_out:
      71.  01:602A  32 10 C0            	ld	(replay_fade),a
      72.  01:602D  32 11 C0            	ld	(replay_fade_timer),a
      73.  01:6030  AF                  	xor	a
      74.  01:6031  32 12 C0            	ld	(replay_fade_vol),a
      75.  01:6034  C9                  	ret
      76.  01:6035                      
      77.  01:6035                      
      78.  01:6035                      ;===========================================================
      79.  01:6035                      ; ---	replay_transpose
      80.  01:6035                      ; Transposes the whole song. 
      81.  01:6035                      ; TT effect command 'E8y - Global transpose' will undo 
      82.  01:6035                      ; this effect.
      83.  01:6035                      ;
      84.  01:6035                      ; in: [DE] number of halve tones (pos or neg) to transpose. 
      85.  01:6035                      ;===========================================================
      86.  01:6035                      replay_transpose:
      87.  01:6035  21 D1 15            	ld	hl,TRACK_ToneTable;(replay_Tonetable)
      88.  01:6038  19                  	add	hl,de	
      89.  01:6039  19                  	add	hl,de
      90.  01:603A  22 18 C0            	ld	(replay_Tonetable),hl	
      91.  01:603D  C9                  	ret
      92.  01:603E                      	
      93.  01:603E                      ;===========================================================
      94.  01:603E                      ; ---	replay_set_SCC_balance
      95.  01:603E                      ; Set the main volume for the SCC chip. This enables for
      96.  01:603E                      ; setting the balance between SCC en PSG as some MSX models 
      97.  01:603E                      ; default balance differs. 
      98.  01:603E                      ;
      99.  01:603E                      ; in: [A] master volume (0-7) 0=halve volume, 7=full volume. 
     100.  01:603E                      ;===========================================================	
     101.  01:603E                      replay_set_SCC_balance:
     102.  01:603E  CD 4C 60            	call	_getnewbalancebase
     103.  01:6041  22 04 C0            	ld	(replay_mainSCCvol),hl	
     104.  01:6044  C9                  	ret
     105.  01:6045                      	
     106.  01:6045                      ;===========================================================
     107.  01:6045                      ; ---	replay_set_PSG_balance
     108.  01:6045                      ; Set the main volume for the PSG chip. This enables for
     109.  01:6045                      ; setting the balance between SCC en PSG as some MSX models 
     110.  01:6045                      ; default balance differs. 
     111.  01:6045                      ;
     112.  01:6045                      ; in: [A] master volume (0-7) 0=halve volume, 7=full volume. 
     113.  01:6045                      ;===========================================================	
     114.  01:6045                      replay_set_PSG_balance:
     115.  01:6045  CD 4C 60            	call	_getnewbalancebase
     116.  01:6048  22 02 C0            	ld	(replay_mainPSGvol),hl	
     117.  01:604B  C9                  	ret
     118.  01:604C                      	
     119.  01:604C                      _getnewbalancebase:
     120.  01:604C  07                  	rlca
     121.  01:604D  07                  	rlca
     122.  01:604E  07                  	rlca
     123.  01:604F  07                  	rlca
     124.  01:6050  21 51 14            	ld	hl,_VOLUME_TABLE-128
     125.  01:6053  E6 F0               	and	$f0
     126.  01:6055  85                  	add	a,l
     127.  01:6056  6F                  	ld	l,a
     128.  01:6057  D0                  	ret 	nc
     129.  01:6058  24                  	inc	h
     130.  01:6059  C9                  	ret
     131.  01:605A                      	
     132.  01:605A                      	
     133.  01:605A                      	
     134.  01:605A                      	
     135.  01:605A                      	
     136.  01:605A                      	
     137.  01:605A                      ;===========================================================
     138.  01:605A                      ; ---	replay_loadsong
     139.  01:605A                      ; Initialize a song for playback
     140.  01:605A                      ; 
     141.  01:605A                      ; Input [HL] points to start song
     142.  01:605A                      ;===========================================================
     143.  01:605A                      replay_loadsong:
     144.  01:605A                      	;--- Get the start speed.
     145.  01:605A  7E                  	ld	a,(hl)	
     146.  01:605B  23                  	inc	hl
     147.  01:605C  32 0C C0            	ld	(replay_speed),a
     148.  01:605F                      
     149.  01:605F                      	;--- Set waveform start
     150.  01:605F  5E                  	ld	e,(hl)
     151.  01:6060  23                  	inc	hl
     152.  01:6061  56                  	ld 	d,(hl)
     153.  01:6062  23                  	inc	hl
     154.  01:6063  7B                  	ld	a,e				; check for external waveforms
     155.  01:6064  B2                  	or	d
     156.  01:6065  CA 6C 60            	jp	z,.nwu			; is address is $0000 then do not update
     157.  01:6068  ED 53 06 C0         	ld	(replay_wavebase),de
     158.  01:606C                      .nwu:	
     159.  01:606C                      	;--- Set the instrument start
     160.  01:606C  5E                  	ld	e,(hl)
     161.  01:606D  23                  	inc	hl
     162.  01:606E  56                  	ld 	d,(hl)
     163.  01:606F  23                  	inc	hl
     164.  01:6070  7B                  	ld	a,e				; check for external instruments
     165.  01:6071  B2                  	or	d
     166.  01:6072  CA 79 60            	jp	z,.niu			; is address is $0000 then do not update
     167.  01:6075  ED 53 08 C0         	ld	(replay_insbase),de
     168.  01:6079                      .niu:
     169.  01:6079                      	;--- Set track pointers to start
     170.  01:6079  11 8F C1            	ld	de,TRACK_pointer1
     171.  01:607C  01 10 00            	ld	bc,16
     172.  01:607F  ED B0               	ldir
     173.  01:6081  22 0A C0            	ld	(replay_orderpointer),hl		; store pointer for next set
     174.  01:6084                      								; of track pointers
     175.  01:6084                      	;--- Initialize replayer variables.
     176.  01:6084  AF                  	xor	a
     177.  01:6085  32 0D C0            	ld	(replay_speed_subtimer),a
     178.  01:6088  32 1A C0            	ld	(replay_morph_active),a
     179.  01:608B  32 5E C0            	ld	(replay_morph_waveform),a
     180.  01:608E                      	
     181.  01:608E                      	;--- Erase channel data	in RAM
     182.  01:608E  01 2F 01            	ld	bc,TRACK_REC_SIZE*8-1
     183.  01:6091  21 5F C0            	ld	hl,TRACK_Chan1
     184.  01:6094  11 60 C0            	ld	de,TRACK_Chan1+1
     185.  01:6097  77                  	ld	(hl),a
     186.  01:6098  ED B0               	ldir
     187.  01:609A                      	
     188.  01:609A                      	;--- Silence the chips
     189.  01:609A  32 3C C2            	ld	(SCC_regMIXER),a
     190.  01:609D  32 A7 C1            	ld	(AY_regVOLA),a
     191.  01:60A0  32 A8 C1            	ld	(AY_regVOLB),a	
     192.  01:60A3  32 A9 C1            	ld	(AY_regVOLC),a
     193.  01:60A6  32 A5 C1            	ld	(AY_regNOISE),a
     194.  01:60A9  3E 3F               	ld	a,0x3f
     195.  01:60AB  32 A6 C1            	ld	(AY_regMIXER),a
     196.  01:60AE                      
     197.  01:60AE                      	;--- Set vibrato table
     198.  01:60AE  21 91 16            	ld	hl,TRACK_Vibrato_sine
     199.  01:60B1  22 16 C0            	ld	(replay_vib_table),hl
     200.  01:60B4                      	
     201.  01:60B4                      	;--- Set the tone table base
     202.  01:60B4  21 D1 15            	ld	hl,TRACK_ToneTable
     203.  01:60B7  22 18 C0            	ld	(replay_Tonetable),hl
     204.  01:60BA                      
     205.  01:60BA  3E 01               	ld	a,1
     206.  01:60BC  32 0E C0            	ld	(replay_speed_timer),a
     207.  01:60BF  32 1B C0            	ld	(replay_morph_timer),a
     208.  01:60C2  32 1C C0            	ld	(replay_morph_speed),a
     209.  01:60C5  32 81 C0            	ld	(TRACK_Chan1+17+TRACK_Delay),a	
     210.  01:60C8  32 A7 C0            	ld	(TRACK_Chan2+17+TRACK_Delay),a		
     211.  01:60CB  32 CD C0            	ld	(TRACK_Chan3+17+TRACK_Delay),a	
     212.  01:60CE  32 F3 C0            	ld	(TRACK_Chan4+17+TRACK_Delay),a	
     213.  01:60D1  32 19 C1            	ld	(TRACK_Chan5+17+TRACK_Delay),a		
     214.  01:60D4  32 3F C1            	ld	(TRACK_Chan6+17+TRACK_Delay),a		
     215.  01:60D7  32 65 C1            	ld	(TRACK_Chan7+17+TRACK_Delay),a		
     216.  01:60DA  32 8B C1            	ld	(TRACK_Chan8+17+TRACK_Delay),a	
     217.  01:60DD                      	
     218.  01:60DD  3E FF               	ld	a,255
     219.  01:60DF  32 5F C0            	ld	(TRACK_Chan1+17+TRACK_Instrument),a	
     220.  01:60E2  32 85 C0            	ld	(TRACK_Chan2+17+TRACK_Instrument),a		
     221.  01:60E5  32 AB C0            	ld	(TRACK_Chan3+17+TRACK_Instrument),a	
     222.  01:60E8  32 D1 C0            	ld	(TRACK_Chan4+17+TRACK_Instrument),a	
     223.  01:60EB  32 F7 C0            	ld	(TRACK_Chan5+17+TRACK_Instrument),a		
     224.  01:60EE  32 1D C1            	ld	(TRACK_Chan6+17+TRACK_Instrument),a		
     225.  01:60F1  32 43 C1            	ld	(TRACK_Chan7+17+TRACK_Instrument),a		
     226.  01:60F4  32 69 C1            	ld	(TRACK_Chan8+17+TRACK_Instrument),a	
     227.  01:60F7                      
     228.  01:60F7                      IFDEF	EXTERNAL_SCC	
     229.  01:60F7                    ~ 	;--- Init the SCC	(waveforms too)
     230.  01:60F7                    ~ 	ld	a,(SCC_slot)
     231.  01:60F7                    ~ 	ld	h,0x80
     232.  01:60F7                    ~ 	call enaslt
     233.  01:60F7                    ~ ENDIF
     234.  01:60F7                      	
     235.  01:60F7  3E FF               	ld	a,255
     236.  01:60F9  32 D2 C0            	ld	(TRACK_Chan4+17+TRACK_Waveform),a
     237.  01:60FC  32 F8 C0            	ld	(TRACK_Chan5+17+TRACK_Waveform),a
     238.  01:60FF  32 1E C1            	ld	(TRACK_Chan6+17+TRACK_Waveform),a	
     239.  01:6102  32 44 C1            	ld	(TRACK_Chan7+17+TRACK_Waveform),a	
     240.  01:6105  3E 80               	ld	a,128
     241.  01:6107  32 DB C0            	ld	(TRACK_Chan4+17+TRACK_Flags),a
     242.  01:610A  32 01 C1            	ld	(TRACK_Chan5+17+TRACK_Flags),a
     243.  01:610D  32 27 C1            	ld	(TRACK_Chan6+17+TRACK_Flags),a	
     244.  01:6110  32 4D C1            	ld	(TRACK_Chan7+17+TRACK_Flags),a	
     245.  01:6113                      	
     246.  01:6113  CD 57 6B            	call scc_reg_update
     247.  01:6116                      	
     248.  01:6116                      IFDEF	EXTERNAL_SCC	
     249.  01:6116                    ~ 	ld	a,(mapper_slot)				
     250.  01:6116                    ~ 	ld	h,0x80
     251.  01:6116                    ~ 	call enaslt
     252.  01:6116                    ~ ENDIF	
     253.  01:6116                      
     254.  01:6116  CD CE 6A            	call	replay_route
     255.  01:6119                      	
     256.  01:6119                      	; end	is here
     257.  01:6119  3E 01               	ld	a,1
     258.  01:611B  32 0F C0            	ld	(replay_mode),a	
     259.  01:611E  C9                  	ret
     260.  01:611F                      
     261.  01:611F                      
     262.  01:611F                      
     263.  01:611F                      _replay_check_patternend:
     264.  01:611F  3A 81 C0            	ld 	a,(TRACK_Chan1+17+TRACK_Delay)
     265.  01:6122  3D                  	dec	a
     266.  01:6123  C2 85 62            	jp	nz,replay_decodedata_NO
     267.  01:6126                      	
     268.  01:6126  2A 8F C1            	ld	hl,(TRACK_pointer1)
     269.  01:6129  7E                  	ld	a,(hl)
     270.  01:612A                      	
     271.  01:612A                      	;--- check for end of pattern
     272.  01:612A  FE BF               	cp	191	
     273.  01:612C  C2 85 62            	jp	nz,replay_decodedata_NO
     274.  01:612F                      
     275.  01:612F                      	;--- Set track pointers to start
     276.  01:612F  2A 0A C0            	ld	hl,(replay_orderpointer)
     277.  01:6132  AF                  	xor	a
     278.  01:6133  BE                  	cp	(hl)
     279.  01:6134  C2 43 61            	jp	nz,.no_restart
     280.  01:6137  23                  	inc	hl
     281.  01:6138  BE                  	cp	(hl)
     282.  01:6139  2B                  	dec	hl
     283.  01:613A  C2 43 61            	jp	nz,.no_restart
     284.  01:613D                      	;--- next is restart order
     285.  01:613D  23                  	inc	hl
     286.  01:613E  23                  	inc	hl
     287.  01:613F  7E                  	ld	a,(hl)
     288.  01:6140  23                  	inc	hl
     289.  01:6141  66                  	ld	h,(hl)
     290.  01:6142  6F                  	ld	l,a
     291.  01:6143                      .no_restart:	
     292.  01:6143  11 8F C1            	ld	de,TRACK_pointer1
     293.  01:6146  01 10 00            	ld	bc,16
     294.  01:6149  ED B0               	ldir
     295.  01:614B  22 0A C0            	ld	(replay_orderpointer),hl		; store pointer for next set
     296.  01:614E                      								; of strack pointers
     297.  01:614E  C3 85 62            	jp	replay_decodedata_NO
     298.  01:6151                      
     299.  01:6151                      
     300.  01:6151                      ;===========================================================
     301.  01:6151                      ; ---	replay_play
     302.  01:6151                      ; Decode music data and process instruments and effects. 
     303.  01:6151                      ; Music chip registers will be prepared for replay_route 
     304.  01:6151                      ;
     305.  01:6151                      ; Input none
     306.  01:6151                      ;===========================================================	
     307.  01:6151                      replay_play:
     308.  01:6151  3A 0F C0            	ld	a,(replay_mode)
     309.  01:6154  A7                  	and	a
     310.  01:6155  C8                  	ret	z		; replay mode = 0	; halted
     311.  01:6156                      				
     312.  01:6156                      				; replay mode = 1	; active
     313.  01:6156                      	;--- The speed timer
     314.  01:6156  21 0E C0            	ld	hl,replay_speed_timer
     315.  01:6159  35                  	dec	(hl)
     316.  01:615A                      
     317.  01:615A  C2 1F 61            	jp	nz,_replay_check_patternend	
     318.  01:615D                      	
     319.  01:615D                      	;--- Re-init Timer == 0
     320.  01:615D  AF                  	xor	a
     321.  01:615E  ED 4B 0C C0         	ld	bc,(replay_speed)		; [b]	subtimer [c] speed
     322.  01:6162  CB 39               	srl	c				; bit	0 is halve speedstep
     323.  01:6164  8F                  	adc	a,a
     324.  01:6165  A8                  	xor	b				; alternate	speed	to have halve speed.
     325.  01:6166  32 0D C0            	ld	(replay_speed_subtimer),a
     326.  01:6169  81                  	add	c
     327.  01:616A  32 0E C0            	ld	(replay_speed_timer),a
     328.  01:616D                      ;===========================================================
     329.  01:616D                      ; ---	replay_decodedata
     330.  01:616D                      ; Process the patterndata 
     331.  01:616D                      ;===========================================================
     332.  01:616D                      replay_decodedata:
     333.  01:616D                      	;--- process the channels (tracks)
     334.  01:616D  21 81 C0            	ld 	hl,TRACK_Chan1+17+TRACK_Delay
     335.  01:6170  35                  	dec	(hl)
     336.  01:6171  C2 90 61            	jp	nz,.decode2
     337.  01:6174                      
     338.  01:6174  3A 69 C0            	ld	a,(TRACK_Chan1+17+TRACK_Flags)
     339.  01:6177  E6 F3               	and	11110011b		; reset B_TRGENV and B_TRGCMD
     340.  01:6179  57                  	ld	d,a
     341.  01:617A  3A 67 C0            	ld	a,(TRACK_Chan1+17+TRACK_Note)	
     342.  01:617D  DD 21 70 C0         	ld	ix,TRACK_Chan1+17
     343.  01:6181  ED 4B 8F C1         	ld	bc,(TRACK_pointer1)
     344.  01:6185  CD AC 63            	call	replay_decode_chan
     345.  01:6188  ED 43 8F C1         	ld	(TRACK_pointer1),bc
     346.  01:618C  7A                  	ld	a,d
     347.  01:618D  32 69 C0            	ld	(TRACK_Chan1+17+TRACK_Flags),a	
     348.  01:6190                      
     349.  01:6190                      .decode2:	
     350.  01:6190  21 A7 C0            	ld 	hl,TRACK_Chan2+17+TRACK_Delay
     351.  01:6193  35                  	dec	(hl)
     352.  01:6194  C2 B3 61            	jp	nz,.decode3
     353.  01:6197                      
     354.  01:6197  3A 8F C0            	ld	a,(TRACK_Chan2+17+TRACK_Flags)
     355.  01:619A  E6 F3               	and	11110011b		; reset B_TRGENV and B_TRGCMD
     356.  01:619C  57                  	ld	d,a
     357.  01:619D  3A 8D C0            	ld	a,(TRACK_Chan2+17+TRACK_Note)	
     358.  01:61A0  DD 21 96 C0         	ld	ix,TRACK_Chan2+17
     359.  01:61A4  ED 4B 91 C1         	ld	bc,(TRACK_pointer2)
     360.  01:61A8  CD AC 63            	call	replay_decode_chan
     361.  01:61AB  ED 43 91 C1         	ld	(TRACK_pointer2),bc
     362.  01:61AF  7A                  	ld	a,d				;'
     363.  01:61B0  32 8F C0            	ld	(TRACK_Chan2+17+TRACK_Flags),a	
     364.  01:61B3                      
     365.  01:61B3                      .decode3:
     366.  01:61B3  21 CD C0            	ld 	hl,TRACK_Chan3+17+TRACK_Delay
     367.  01:61B6  35                  	dec	(hl)
     368.  01:61B7  C2 D6 61            	jp	nz,.decode4
     369.  01:61BA                      
     370.  01:61BA  3A B5 C0            	ld	a,(TRACK_Chan3+17+TRACK_Flags)
     371.  01:61BD  E6 F3               	and	11110011b		; reset B_TRGENV and B_TRGCMD
     372.  01:61BF  57                  	ld	d,a		;'
     373.  01:61C0  3A B3 C0            	ld	a,(TRACK_Chan3+17+TRACK_Note)	
     374.  01:61C3  DD 21 BC C0         	ld	ix,TRACK_Chan3+17
     375.  01:61C7  ED 4B 93 C1         	ld	bc,(TRACK_pointer3)
     376.  01:61CB  CD AC 63            	call	replay_decode_chan
     377.  01:61CE  ED 43 93 C1         	ld	(TRACK_pointer3),bc
     378.  01:61D2  7A                  	ld	a,d				;'
     379.  01:61D3  32 B5 C0            	ld	(TRACK_Chan3+17+TRACK_Flags),a	
     380.  01:61D6                      
     381.  01:61D6                      .decode4:
     382.  01:61D6  21 F3 C0            	ld 	hl,TRACK_Chan4+17+TRACK_Delay
     383.  01:61D9  35                  	dec	(hl)
     384.  01:61DA  C2 F9 61            	jp	nz,.decode5
     385.  01:61DD                      
     386.  01:61DD  3A DB C0            	ld	a,(TRACK_Chan4+17+TRACK_Flags)
     387.  01:61E0  E6 F3               	and	11110011b		; reset B_TRGENV and B_TRGCMD
     388.  01:61E2  57                  	ld 	d,a		;'
     389.  01:61E3  3A D9 C0            	ld	a,(TRACK_Chan4+17+TRACK_Note)	
     390.  01:61E6  DD 21 E2 C0         	ld	ix,TRACK_Chan4+17
     391.  01:61EA  ED 4B 95 C1         	ld	bc,(TRACK_pointer4)
     392.  01:61EE  CD AC 63            	call	replay_decode_chan
     393.  01:61F1  ED 43 95 C1         	ld	(TRACK_pointer4),bc
     394.  01:61F5  7A                  	ld	a,d			;'
     395.  01:61F6  32 DB C0            	ld	(TRACK_Chan4+17+TRACK_Flags),a	
     396.  01:61F9                      
     397.  01:61F9                      
     398.  01:61F9                      .decode5:
     399.  01:61F9  21 19 C1            	ld 	hl,TRACK_Chan5+17+TRACK_Delay
     400.  01:61FC  35                  	dec	(hl)
     401.  01:61FD  C2 1C 62            	jp	nz,.decode6
     402.  01:6200                      
     403.  01:6200  3A 01 C1            	ld	a,(TRACK_Chan5+17+TRACK_Flags)
     404.  01:6203  E6 F3               	and	11110011b		; reset B_TRGENV and B_TRGCMD
     405.  01:6205  57                  	ld	d,a		;'
     406.  01:6206  3A FF C0            	ld	a,(TRACK_Chan5+17+TRACK_Note)	
     407.  01:6209  DD 21 08 C1         	ld	ix,TRACK_Chan5+17
     408.  01:620D  ED 4B 97 C1         	ld	bc,(TRACK_pointer5)
     409.  01:6211  CD AC 63            	call	replay_decode_chan
     410.  01:6214  ED 43 97 C1         	ld	(TRACK_pointer5),bc
     411.  01:6218  7A                  	ld	a,d			;'
     412.  01:6219  32 01 C1            	ld	(TRACK_Chan5+17+TRACK_Flags),a	
     413.  01:621C                      
     414.  01:621C                      
     415.  01:621C                      .decode6:
     416.  01:621C  21 3F C1            	ld 	hl,TRACK_Chan6+17+TRACK_Delay
     417.  01:621F  35                  	dec	(hl)
     418.  01:6220  C2 3F 62            	jp	nz,.decode7
     419.  01:6223                      
     420.  01:6223  3A 27 C1            	ld	a,(TRACK_Chan6+17+TRACK_Flags)
     421.  01:6226  E6 F3               	and	11110011b		; reset B_TRGENV and B_TRGCMD
     422.  01:6228  57                  	ld	d,a		;'
     423.  01:6229  3A 25 C1            	ld	a,(TRACK_Chan6+17+TRACK_Note)	
     424.  01:622C  DD 21 2E C1         	ld	ix,TRACK_Chan6+17
     425.  01:6230  ED 4B 99 C1         	ld	bc,(TRACK_pointer6)
     426.  01:6234  CD AC 63            	call	replay_decode_chan
     427.  01:6237  ED 43 99 C1         	ld	(TRACK_pointer6),bc
     428.  01:623B  7A                  	ld	a,d				;'
     429.  01:623C  32 27 C1            	ld	(TRACK_Chan6+17+TRACK_Flags),a	
     430.  01:623F                      
     431.  01:623F                      
     432.  01:623F                      .decode7:
     433.  01:623F  21 65 C1            	ld 	hl,TRACK_Chan7+17+TRACK_Delay
     434.  01:6242  35                  	dec	(hl)
     435.  01:6243  C2 62 62            	jp	nz,.decode8
     436.  01:6246                      
     437.  01:6246  3A 4D C1            	ld	a,(TRACK_Chan7+17+TRACK_Flags)
     438.  01:6249  E6 F3               	and	11110011b		; reset B_TRGENV and B_TRGCMD
     439.  01:624B  57                  	ld	d,a		;'
     440.  01:624C  3A 4B C1            	ld	a,(TRACK_Chan7+17+TRACK_Note)	
     441.  01:624F  DD 21 54 C1         	ld	ix,TRACK_Chan7+17
     442.  01:6253  ED 4B 9B C1         	ld	bc,(TRACK_pointer7)
     443.  01:6257  CD AC 63            	call	replay_decode_chan
     444.  01:625A  ED 43 9B C1         	ld	(TRACK_pointer7),bc
     445.  01:625E  7A                  	ld	a,d				;'
     446.  01:625F  32 4D C1            	ld	(TRACK_Chan7+17+TRACK_Flags),a	
     447.  01:6262                      
     448.  01:6262                      
     449.  01:6262                      .decode8:
     450.  01:6262  21 8B C1            	ld 	hl,TRACK_Chan8+17+TRACK_Delay
     451.  01:6265  35                  	dec	(hl)
     452.  01:6266  C2 85 62            	jp	nz,.decode_end
     453.  01:6269                      
     454.  01:6269  3A 73 C1            	ld	a,(TRACK_Chan8+17+TRACK_Flags)
     455.  01:626C  E6 F3               	and	11110011b		; reset B_TRGENV and B_TRGCMD
     456.  01:626E  57                  	ld	d,a		;'
     457.  01:626F  3A 71 C1            	ld	a,(TRACK_Chan8+17+TRACK_Note)	
     458.  01:6272  DD 21 7A C1         	ld	ix,TRACK_Chan8+17
     459.  01:6276  ED 4B 9D C1         	ld	bc,(TRACK_pointer8)
     460.  01:627A  CD AC 63            	call	replay_decode_chan
     461.  01:627D  ED 43 9D C1         	ld	(TRACK_pointer8),bc
     462.  01:6281  7A                  	ld	a,d				;'
     463.  01:6282  32 73 C1            	ld	(TRACK_Chan8+17+TRACK_Flags),a
     464.  01:6285                      		
     465.  01:6285                      .decode_end:
     466.  01:6285                      	; continue to process data
     467.  01:6285                      ;===========================================================
     468.  01:6285                      ; ---	replay_decodedata_NO
     469.  01:6285                      ; Process changes.
     470.  01:6285                      ; 
     471.  01:6285                      ; 
     472.  01:6285                      ;===========================================================
     473.  01:6285                      replay_decodedata_NO:
     474.  01:6285                      	;---- morph routine here
     475.  01:6285  3A 1A C0            	ld	a,(replay_morph_active)
     476.  01:6288  A7                  	and	a
     477.  01:6289  C4 9B 6B            	call	nz,replay_process_morph
     478.  01:628C                      
     479.  01:628C                      	;--- Initialize PSG Mixer and volume
     480.  01:628C  AF                  	xor	a
     481.  01:628D  32 3C C2            	ld	(SCC_regMIXER),a
     482.  01:6290                      
     483.  01:6290                      	;--- PSG balance
     484.  01:6290  2A 02 C0            	ld	hl,(replay_mainPSGvol)
     485.  01:6293  22 14 C0            	ld	(replay_mainvol),hl
     486.  01:6296                      
     487.  01:6296                      	;--- Process track 1
     488.  01:6296  DD 21 70 C0         	ld	ix,TRACK_Chan1+17
     489.  01:629A  3A 69 C0            	ld	a,(TRACK_Chan1+17+TRACK_Flags)
     490.  01:629D  57                  	ld	d,a
     491.  01:629E  CD E7 66            	call	replay_process_chan_AY
     492.  01:62A1  22 9F C1            	ld	(AY_regToneA),hl
     493.  01:62A4  7A                  	ld	a,d
     494.  01:62A5  32 69 C0            	ld	(TRACK_Chan1+17+TRACK_Flags),a	
     495.  01:62A8  3A 3B C2            	ld	a,(SCC_regVOLE)
     496.  01:62AB  32 A7 C1            	ld	(AY_regVOLA),a	
     497.  01:62AE                      
     498.  01:62AE                      	;--- Process track 2
     499.  01:62AE  DD 21 96 C0         	ld	ix,TRACK_Chan2+17
     500.  01:62B2  3A 8F C0            	ld	a,(TRACK_Chan2+17+TRACK_Flags)
     501.  01:62B5  57                  	ld	d,a
     502.  01:62B6  CD E7 66            	call	replay_process_chan_AY
     503.  01:62B9  22 A1 C1            	ld	(AY_regToneB),hl
     504.  01:62BC  7A                  	ld	a,d
     505.  01:62BD  32 8F C0            	ld	(TRACK_Chan2+17+TRACK_Flags),a	
     506.  01:62C0  3A 3B C2            	ld	a,(SCC_regVOLE)
     507.  01:62C3  32 A8 C1            	ld	(AY_regVOLB),a	
     508.  01:62C6                      
     509.  01:62C6                      	;--- Process track 3	
     510.  01:62C6  DD 21 BC C0         	ld	ix,TRACK_Chan3+17
     511.  01:62CA  3A B5 C0            	ld	a,(TRACK_Chan3+17+TRACK_Flags)
     512.  01:62CD  57                  	ld	d,a
     513.  01:62CE  CD E7 66            	call	replay_process_chan_AY
     514.  01:62D1  22 A3 C1            	ld	(AY_regToneC),hl
     515.  01:62D4  7A                  	ld	a,d
     516.  01:62D5  32 B5 C0            	ld	(TRACK_Chan3+17+TRACK_Flags),a	
     517.  01:62D8  3A 3B C2            	ld	a,(SCC_regVOLE)
     518.  01:62DB  32 A9 C1            	ld	(AY_regVOLC),a	
     519.  01:62DE                      
     520.  01:62DE                      	;-- Convert mixer to AY
     521.  01:62DE  3A 3C C2            	ld	a,(SCC_regMIXER)		
     522.  01:62E1  CB 3F               	srl	a
     523.  01:62E3  CB 3F               	srl	a
     524.  01:62E5  EE 3F               	xor	0x3f
     525.  01:62E7  32 A6 C1            	ld	(AY_regMIXER),a
     526.  01:62EA                      
     527.  01:62EA                      
     528.  01:62EA                      	;--- set SCC balance
     529.  01:62EA  2A 04 C0            	ld	hl,(replay_mainSCCvol)
     530.  01:62ED  22 14 C0            	ld	(replay_mainvol),hl
     531.  01:62F0                      
     532.  01:62F0                      	
     533.  01:62F0  FD 26 00            	ld	iyh,0			; iyh stores the SCC chan#
     534.  01:62F3                      					; used for waveform updates
     535.  01:62F3                      	;--- Process track 4
     536.  01:62F3  DD 21 E2 C0         	ld	ix,TRACK_Chan4+17
     537.  01:62F7  3A DB C0            	ld	a,(TRACK_Chan4+17+TRACK_Flags)
     538.  01:62FA  57                  	ld	d,a
     539.  01:62FB  CD E7 66            	call	replay_process_chan_AY
     540.  01:62FE  22 2D C2            	ld	(SCC_regToneA),hl
     541.  01:6301  7A                  	ld	a,d
     542.  01:6302  32 DB C0            	ld	(TRACK_Chan4+17+TRACK_Flags),a	
     543.  01:6305  3A 3B C2            	ld	a,(SCC_regVOLE)
     544.  01:6308  32 37 C2            	ld	(SCC_regVOLA),a	
     545.  01:630B                      
     546.  01:630B                      	;--- Process track 5
     547.  01:630B  FD 24               	inc	iyh
     548.  01:630D                      	
     549.  01:630D  DD 21 08 C1         	ld	ix,TRACK_Chan5+17
     550.  01:6311  3A 01 C1            	ld	a,(TRACK_Chan5+17+TRACK_Flags)
     551.  01:6314  57                  	ld	d,a
     552.  01:6315  CD E7 66            	call	replay_process_chan_AY
     553.  01:6318  22 2F C2            	ld	(SCC_regToneB),hl
     554.  01:631B  7A                  	ld	a,d
     555.  01:631C  32 01 C1            	ld	(TRACK_Chan5+17+TRACK_Flags),a	
     556.  01:631F  3A 3B C2            	ld	a,(SCC_regVOLE)
     557.  01:6322  32 38 C2            	ld	(SCC_regVOLB),a	
     558.  01:6325                      
     559.  01:6325                      	;--- Process track 6
     560.  01:6325  FD 24               	inc	iyh
     561.  01:6327                      		
     562.  01:6327  DD 21 2E C1         	ld	ix,TRACK_Chan6+17
     563.  01:632B  3A 27 C1            	ld	a,(TRACK_Chan6+17+TRACK_Flags)
     564.  01:632E  57                  	ld	d,a
     565.  01:632F  CD E7 66            	call	replay_process_chan_AY
     566.  01:6332  22 31 C2            	ld	(SCC_regToneC),hl
     567.  01:6335  7A                  	ld	a,d
     568.  01:6336  32 27 C1            	ld	(TRACK_Chan6+17+TRACK_Flags),a	
     569.  01:6339  3A 3B C2            	ld	a,(SCC_regVOLE)
     570.  01:633C  32 39 C2            	ld	(SCC_regVOLC),a	
     571.  01:633F                      
     572.  01:633F                      	;--- Process track 7
     573.  01:633F  FD 24               	inc	iyh
     574.  01:6341                      		
     575.  01:6341  DD 21 54 C1         	ld	ix,TRACK_Chan7+17
     576.  01:6345  3A 4D C1            	ld	a,(TRACK_Chan7+17+TRACK_Flags)
     577.  01:6348  57                  	ld	d,a
     578.  01:6349  CD E7 66            	call	replay_process_chan_AY
     579.  01:634C  22 33 C2            	ld	(SCC_regToneD),hl
     580.  01:634F  7A                  	ld	a,d
     581.  01:6350  32 4D C1            	ld	(TRACK_Chan7+17+TRACK_Flags),a	
     582.  01:6353  3A 3B C2            	ld	a,(SCC_regVOLE)
     583.  01:6356  32 3A C2            	ld	(SCC_regVOLD),a		
     584.  01:6359                      
     585.  01:6359                      	;--- Process track 8
     586.  01:6359                      ;	inc	iyh			; no waveform for SCC channel 5
     587.  01:6359                      		
     588.  01:6359  DD 21 7A C1         	ld	ix,TRACK_Chan8+17
     589.  01:635D  3A 73 C1            	ld	a,(TRACK_Chan8+17+TRACK_Flags)
     590.  01:6360  57                  	ld	d,a
     591.  01:6361  CD E7 66            	call	replay_process_chan_AY
     592.  01:6364  22 35 C2            	ld	(SCC_regToneE),hl
     593.  01:6367  7A                  	ld	a,d
     594.  01:6368  32 73 C1            	ld	(TRACK_Chan8+17+TRACK_Flags),a	
     595.  01:636B                      
     596.  01:636B                      	;-- Fade out processing
     597.  01:636B  3A 10 C0            	ld	a,(replay_fade)
     598.  01:636E  A7                  	and	a
     599.  01:636F  C8                  	ret	z	; if replay fade = 0 then no fade active
     600.  01:6370                      	
     601.  01:6370                      	; decrease fade timer
     602.  01:6370  3A 11 C0            	ld	a,(replay_fade_timer)
     603.  01:6373  3D                  	dec	a
     604.  01:6374  C2 8D 63            	jp	nz,.no_new_step
     605.  01:6377                      
     606.  01:6377  3A 12 C0            	ld	a,(replay_fade_vol)
     607.  01:637A  3C                  	inc	a
     608.  01:637B  FE 10               	cp	16
     609.  01:637D  DA 87 63            	jp	c,.cont_fadeing
     610.  01:6380  AF                  	xor	a
     611.  01:6381  32 10 C0            	ld	(replay_fade),a
     612.  01:6384  C3 0F 60            	jp	replay_pause
     613.  01:6387                      .cont_fadeing:	
     614.  01:6387  32 12 C0            	ld	(replay_fade_vol),a
     615.  01:638A  3A 10 C0            	ld	a,(replay_fade)
     616.  01:638D                      .no_new_step:
     617.  01:638D  32 11 C0            	ld	(replay_fade_timer),a
     618.  01:6390                      
     619.  01:6390  3A 12 C0            	ld	a,(replay_fade_vol)
     620.  01:6393  4F                  	ld	c,a
     621.  01:6394  06 03               	ld	b,3
     622.  01:6396  21 A7 C1            	ld	hl,AY_regVOLA
     623.  01:6399  CD A1 63            	call	.calc_vol
     624.  01:639C  06 05               	ld	b,5
     625.  01:639E  21 37 C2            	ld	hl,SCC_regVOLA
     626.  01:63A1                      
     627.  01:63A1                      .calc_vol:	
     628.  01:63A1  7E                  	ld	a,(hl)
     629.  01:63A2  91                  	sub	c
     630.  01:63A3  D2 A7 63            	jp	nc,.no_carry
     631.  01:63A6  AF                  	xor	a
     632.  01:63A7                      .no_carry:	
     633.  01:63A7  77                  	ld	(hl),a
     634.  01:63A8  23                  	inc	hl
     635.  01:63A9  10 F6               	djnz	.calc_vol
     636.  01:63AB  C9                  	ret
     637.  01:63AC                      
     638.  01:63AC                      
     639.  01:63AC                      	
     640.  01:63AC                      replay_decode_chan:
     641.  01:63AC                      	;--- initialize data
     642.  01:63AC                      ;	ld	a,(ix+TRACK_Note)
     643.  01:63AC  32 13 C0            	ld	(replay_previous_note),a
     644.  01:63AF                      
     645.  01:63AF                      	;--- Check if retrig has ended
     646.  01:63AF  DD 35 13            	dec	(ix+TRACK_Retrig)
     647.  01:63B2  C2 B9 63            	jp	nz,.skip_retrig_reset
     648.  01:63B5  DD CB F9 9E         	res 	B_TRGCMD,(ix+TRACK_Flags)
     649.  01:63B9                      
     650.  01:63B9                      .skip_retrig_reset:
     651.  01:63B9                      	;=============
     652.  01:63B9                      	; Note 
     653.  01:63B9                      	;=============
     654.  01:63B9  0A                  	ld	a,(bc)
     655.  01:63BA  FE 60               	cp	96
     656.  01:63BC                      
     657.  01:63BC  DA FD 63            	jp	c,_replay_decode_note
     658.  01:63BF  CA 09 64            	jp	z,_replay_decode_rest
     659.  01:63C2  FE 70               _rdn2:cp	112;128
     660.  01:63C4  DA 50 64            	jp	c,_replay_decode_vol
     661.  01:63C7  FE 8F               _rdv2:cp	143
     662.  01:63C9  DA 12 64            	jp	c,_replay_decode_ins
     663.  01:63CC                      _rdi2:
     664.  01:63CC  FE BF               	cp	191
     665.  01:63CE  D2 65 64            	jp	nc,_replay_decode_delay
     666.  01:63D1  DA 72 64            	jp	c,_replay_decode_cmd
     667.  01:63D4                      
     668.  01:63D4                      _rdn:
     669.  01:63D4  FE 61               	cp	97
     670.  01:63D6  DA F6 63            	jp	c,_rd_delay
     671.  01:63D9  C3 C2 63            	jp	_rdn2
     672.  01:63DC                      
     673.  01:63DC                      _rdi:
     674.  01:63DC  FE 8F               	cp	143
     675.  01:63DE  DA F6 63            	jp	c,_rd_delay
     676.  01:63E1  C3 CC 63            	jp	_rdi2
     677.  01:63E4                      
     678.  01:63E4                      _rdv:
     679.  01:63E4  FE 70               	cp	112
     680.  01:63E6  DA F6 63            	jp	c,_rd_delay
     681.  01:63E9  C3 C7 63            	jp	_rdv2
     682.  01:63EC                      _rdc:
     683.  01:63EC  03                  	inc	bc
     684.  01:63ED  0A                  	ld	a,(bc)
     685.  01:63EE  FE BF               	cp	191
     686.  01:63F0  DA F6 63            	jp	c,_rd_delay
     687.  01:63F3  C3 65 64            	jp	_replay_decode_delay
     688.  01:63F6                      
     689.  01:63F6                      	;--- re-init previous delay
     690.  01:63F6                      _rd_delay:
     691.  01:63F6  DD 7E 12            	ld	a,(ix+TRACK_prevDelay)
     692.  01:63F9  DD 77 11            	ld	(ix+TRACK_Delay),a
     693.  01:63FC                      
     694.  01:63FC  C9                  	ret
     695.  01:63FD                      
     696.  01:63FD                      
     697.  01:63FD                      
     698.  01:63FD                      _replay_decode_note:
     699.  01:63FD  DD 77 F7            	ld	(ix+TRACK_Note),a
     700.  01:6400  CB C2               	set 	B_TRGNOT,d
     701.  01:6402  CB A2               	res	B_ACTMOR,d
     702.  01:6404                      
     703.  01:6404  03                  	inc	bc
     704.  01:6405  0A                  	ld	a,(bc)
     705.  01:6406  C3 D4 63            	jp	_rdn
     706.  01:6409                      	
     707.  01:6409                      _replay_decode_rest:
     708.  01:6409  CB 8A               	res	B_ACTNOT,d				; set	note bit to	0
     709.  01:640B  CB A2               	res	B_ACTMOR,d				; reset morph slave mode
     710.  01:640D                      
     711.  01:640D  03                  	inc	bc
     712.  01:640E  0A                  	ld	a,(bc)
     713.  01:640F  C3 D4 63            	jp	_rdn
     714.  01:6412                      
     715.  01:6412                      _replay_decode_ins:
     716.  01:6412  CB A2               	res	B_ACTMOR,d				; reset morph slave mode
     717.  01:6414  D6 70               	sub	112;97
     718.  01:6416  DD BE EF            	cp	(ix+TRACK_Instrument)
     719.  01:6419  CA 4B 64            	jp	z,.skip_ins
     720.  01:641C                      	
     721.  01:641C  DD 77 EF            	ld	(ix+TRACK_Instrument),a
     722.  01:641F                      
     723.  01:641F                      	;--- set instrument pointer
     724.  01:641F  87                  	add	a
     725.  01:6420  2A 08 C0            	ld	hl,(replay_insbase)
     726.  01:6423  85                  	add	a,l
     727.  01:6424  6F                  	ld	l,a
     728.  01:6425  D2 29 64            	jp	nc,.skip
     729.  01:6428  24                  	inc	h
     730.  01:6429                      .skip:
     731.  01:6429  7E                  	ld	a,(hl)
     732.  01:642A  23                  	inc	hl
     733.  01:642B  66                  	ld	h,(hl)
     734.  01:642C  6F                  	ld	l,a
     735.  01:642D                      
     736.  01:642D                      	;-- get waveform
     737.  01:642D  7E                  	ld	a,(hl)
     738.  01:642E  23                  	inc	hl
     739.  01:642F                      	
     740.  01:642F  5E                  	ld	e,(hl)
     741.  01:6430  23                  	inc	hl
     742.  01:6431                      
     743.  01:6431                      	;---- Store the restart offset
     744.  01:6431  DD 73 F6            	ld	(ix+TRACK_MacroRestart),e
     745.  01:6434                      	;--- Store the macro start
     746.  01:6434  DD 75 F2            	ld	(ix+TRACK_MacroPointer),l
     747.  01:6437  DD 74 F3            	ld	(ix+TRACK_MacroPointer+1),h	
     748.  01:643A                      	;--- Store the macro re-start
     749.  01:643A  DD 75 F4            	ld	(ix+TRACK_MacroStart),l
     750.  01:643D  DD 74 F5            	ld	(ix+TRACK_MacroStart+1),h		
     751.  01:6440                      	;--- Set the waveform  (if needed)
     752.  01:6440  DD BE F0            	cp	(ix+TRACK_Waveform)
     753.  01:6443  CA 4B 64            	jp	z,.skip_ins
     754.  01:6446                      	
     755.  01:6446                      	;--- this is a new waveform
     756.  01:6446  DD 77 F0            	ld	(ix+TRACK_Waveform),a
     757.  01:6449  CB F2               	set	B_TRGWAV,d
     758.  01:644B                      	
     759.  01:644B                      .skip_ins:	
     760.  01:644B  03                  	inc	bc
     761.  01:644C  0A                  	ld	a,(bc)
     762.  01:644D  C3 DC 63            	jp	_rdi
     763.  01:6450                      
     764.  01:6450                      _replay_decode_vol:
     765.  01:6450  D6 60               	sub	96;127
     766.  01:6452  87                  	add	a
     767.  01:6453  87                  	add	a
     768.  01:6454  87                  	add	a
     769.  01:6455  87                  	add	a
     770.  01:6456                      	
     771.  01:6456                      	;--- Set new base	volume (high byte) but keep relative offset (low byte)
     772.  01:6456  5F                  	ld	e,a
     773.  01:6457  DD 7E F8            	ld	a,(ix+TRACK_Volume)
     774.  01:645A  E6 0F               	and	0xf
     775.  01:645C  B3                  	or	e
     776.  01:645D  DD 77 F8            	ld	(ix+TRACK_Volume),a
     777.  01:6460                      
     778.  01:6460  03                  	inc	bc
     779.  01:6461  0A                  	ld	a,(bc)
     780.  01:6462  C3 E4 63            	jp	_rdv
     781.  01:6465                      
     782.  01:6465                      
     783.  01:6465                      _replay_decode_delay:
     784.  01:6465  D6 BF               	sub	191
     785.  01:6467  CA F6 63            	jp	z,_rd_delay		; EOT found
     786.  01:646A  DD 77 11            	ld	(ix+TRACK_Delay),a
     787.  01:646D  DD 77 12            	ld	(ix+TRACK_prevDelay),a
     788.  01:6470                      
     789.  01:6470  03                  	inc	bc
     790.  01:6471  C9                  	ret
     791.  01:6472                      
     792.  01:6472                      
     793.  01:6472                      _replay_decode_cmd:
     794.  01:6472                      
     795.  01:6472  D6 8E               	sub	142
     796.  01:6474  DD 77 F1            	ld	(ix+TRACK_Command),a
     797.  01:6477  21 88 64            	ld	hl,DECODE_CMDLIST
     798.  01:647A  87                  	add	a,a
     799.  01:647B  85                  	add	a,l
     800.  01:647C  6F                  	ld	l,a
     801.  01:647D  D2 81 64            	jp	nc,.skip
     802.  01:6480  24                  	inc	h
     803.  01:6481                      .skip:
     804.  01:6481  7E                  	ld	a,(hl)
     805.  01:6482  23                  	inc	hl
     806.  01:6483  66                  	ld	h,(hl)
     807.  01:6484  6F                  	ld	l,a
     808.  01:6485                      	
     809.  01:6485  03                  	inc	bc
     810.  01:6486  0A                  	ld	a,(bc)
     811.  01:6487  E9                  	jp	(hl)
     812.  01:6488                      
     813.  01:6488                      DECODE_CMDLIST:
     814.  01:6488                      	; These effects are only processed 1 once in decoding
     815.  01:6488  77 65               	dw	_CHIPcmdA_env_mul			;0
     816.  01:648A  8C 65               	dw	_CHIPcmdB_wave_res		;1
     817.  01:648C  9E 65               	dw	_CHIPcmdF_wave_set		;2
     818.  01:648E  A8 65               	dw	_CHIPcmd10_morph_slave		;3
     819.  01:6490  AE 65               	dw	_CHIPcmd11_morph_start		;4
     820.  01:6492  D7 65               	dw	_CHIPcmd12_morph_cont		;5
     821.  01:6494  06 66               	dw	_CHIPcmd16_vib_ctrl		;6
     822.  01:6496  2C 66               	dw	_CHIPcmd17_track_detune		;7
     823.  01:6498  4B 66               	dw	_CHIPcmd18_transpose		;8
     824.  01:649A  98 66               	dw	_CHIPcmd1A_trigger		;9
     825.  01:649C  9E 66               	dw	_CHIPcmd1B_speed			;a
     826.  01:649E  B1 66               	dw	_CHIPcmd1C_notelink		;b
     827.  01:64A0                      ;	dw	_CHIPcmd1C_call			;b	
     828.  01:64A0  B7 66               	dw	_CHIPcmd1D_ret			;c
     829.  01:64A2                      	
     830.  01:64A2                      	; These effects are also processed in the processing
     831.  01:64A2  94 65               	dw	_CHIPcmdC_wave_duty		;d
     832.  01:64A4  94 65               	dw	_CHIPcmdD_wave_cut		;e
     833.  01:64A6  94 65               	dw	_CHIPcmdE_wave_compr		;f
     834.  01:64A8  EE 65               	dw	_CHIPcmd13_short_arp		;10
     835.  01:64AA  FA 65               	dw	_CHIPcmd14_fine_up		;11
     836.  01:64AC  FA 65               	dw	_CHIPcmd15_fine_down		;12
     837.  01:64AE  7A 66               	dw	_CHIPcmd19_note_delay		;13
     838.  01:64B0  71 66               	dw	_CHIPcmdXX_note_cut		;14
     839.  01:64B2                      
     840.  01:64B2                      	; These effects can be retriggered
     841.  01:64B2  DA 64               	dw	_CHIPcmd0_arpeggio		;15
     842.  01:64B4  E6 64               	dw	_CHIPcmd1_port_up			;16
     843.  01:64B6  EE 64               	dw	_CHIPcmd2_port_down		;17
     844.  01:64B8  FC 64               	dw	_CHIPcmd3_port_tone		;18
     845.  01:64BA  46 65               	dw	_CHIPcmd4_vibrato			;19
     846.  01:64BC  60 65               	dw	_CHIPcmd5_vibrato_port_tone	;1a
     847.  01:64BE  60 65               	dw	_CHIPcmd6_vibrato_vol		;1b
     848.  01:64C0  60 65               	dw	_CHIPcmd7_vol_slide		;1c
     849.  01:64C2  6C 65               	dw	_CHIPcmd8_macro_offset		;1d
     850.  01:64C4  6F 65               	dw	_CHIPcmd9_env_shape		;1e
     851.  01:64C6                      
     852.  01:64C6  BB 66               	dw	_CHIPcmd0_RE_arpeggio		;1f
     853.  01:64C8  BF 66               	dw	_CHIPcmd1_RE_port_up		;20
     854.  01:64CA  BF 66               	dw	_CHIPcmd2_RE_port_down		;21
     855.  01:64CC  F6 64               	dw	_CHIPcmd3_RE_port_tone		;22
     856.  01:64CE  BF 66               	dw	_CHIPcmd4_RE_vibrato		;23
     857.  01:64D0  C7 66               	dw	_CHIPcmd5_RE_vibrato_port_tone ;24
     858.  01:64D2  C7 66               	dw	_CHIPcmd6_RE_vibrato_vol	;25
     859.  01:64D4  C7 66               	dw	_CHIPcmd7_RE_vol_slide		;26
     860.  01:64D6  D3 66               	dw	_CHIPcmd8_RE_macro_offset	;27
     861.  01:64D8  DF 66               	dw	_CHIPcmd9_RE_env_shape		;28
     862.  01:64DA                      
     863.  01:64DA                      
     864.  01:64DA                      
     865.  01:64DA                      _CHIPcmd0_arpeggio:
     866.  01:64DA                      	; in:	[A] contains the paramvalue
     867.  01:64DA                      	; 
     868.  01:64DA                      	; ! do not change	[BC] this is the data pointer
     869.  01:64DA                      	;--------------------------------------------------
     870.  01:64DA                      	; Cycles between note, note+x	halftones, note+y
     871.  01:64DA                      	; halftones. 
     872.  01:64DA                      	; Ex:	(MOD/XM: C-4 01 .. 037)	This will play 
     873.  01:64DA                      	; C-4, C-4+3 semitones andC-4+7 semitones. 
     874.  01:64DA  DD 77 05            	ld	(ix+TRACK_cmd_0),a
     875.  01:64DD  CB DA               	set	B_TRGCMD,d
     876.  01:64DF  DD 36 0F 00         	ld	(ix+TRACK_Timer),0
     877.  01:64E3                      
     878.  01:64E3  C3 EC 63            	jp	_rdc
     879.  01:64E6                      	
     880.  01:64E6                      _CHIPcmd1_port_up:
     881.  01:64E6                      	; in:	[A] contains the paramvalue
     882.  01:64E6                      	; 
     883.  01:64E6                      	; ! do not change	[BC] this is the data pointer
     884.  01:64E6                      	;--------------------------------------------------
     885.  01:64E6                      	; This will	slide	up the pitch of the current note
     886.  01:64E6                      	; being played by	the given speed. 
     887.  01:64E6  DD 77 06            	ld	(ix+TRACK_cmd_1),a
     888.  01:64E9  CB DA               	set	B_TRGCMD,d
     889.  01:64EB                      
     890.  01:64EB  C3 EC 63            	jp	_rdc
     891.  01:64EE                      	
     892.  01:64EE                      	
     893.  01:64EE                      	 
     894.  01:64EE                      _CHIPcmd2_port_down:
     895.  01:64EE                      	; in:	[A] contains the paramvalue
     896.  01:64EE                      	; 
     897.  01:64EE                      	; ! do not change	[BC] this is the data pointer
     898.  01:64EE                      	;--------------------------------------------------
     899.  01:64EE                      	; This will	slide	down the pitch of	the current	note
     900.  01:64EE                      	; being played by	the given speed.	
     901.  01:64EE  DD 77 07            	ld	(ix+TRACK_cmd_2),a
     902.  01:64F1  CB DA               	set	B_TRGCMD,d
     903.  01:64F3                      
     904.  01:64F3  C3 EC 63            	jp	_rdc
     905.  01:64F6                      	
     906.  01:64F6                      
     907.  01:64F6                      _CHIPcmd3_RE_port_tone:
     908.  01:64F6  DD 77 13            	ld	(ix+TRACK_Retrig),a
     909.  01:64F9  C3 03 65            	jp	_CHIPcmd3_port_tone_cont	
     910.  01:64FC                      _CHIPcmd3_port_tone:
     911.  01:64FC                      	; in:	[A] contains the paramvalue
     912.  01:64FC                      	; 
     913.  01:64FC                      	; ! do not change	[BC] this is the data pointer
     914.  01:64FC                      	;--------------------------------------------------
     915.  01:64FC                      	; This command is	used together with a note, and 
     916.  01:64FC                      	; will bend	the current	pitch	at the given speed
     917.  01:64FC                      	; towards the specified	note.	Example:
     918.  01:64FC                      	;	C-4 1....
     919.  01:64FC                      	;	F-4 ..305 (bend the note up towards	F-4)
     920.  01:64FC                      	;	... ..300 (continue to slide up, until F-4
     921.  01:64FC                      	;						  is reached
     922.  01:64FC                      
     923.  01:64FC                      
     924.  01:64FC  DD 77 08            	ld	(ix+TRACK_cmd_3),a
     925.  01:64FF  DD 36 0F 02         	ld	(ix+TRACK_Timer),2
     926.  01:6503                      _CHIPcmd3_port_tone_cont:
     927.  01:6503  CB DA               	set	B_TRGCMD,d
     928.  01:6505  CB CA               	set	B_ACTNOT,d
     929.  01:6507                      	;--- Check if we have a	note on the	same event
     930.  01:6507  CB 42               	bit	B_TRGNOT,d
     931.  01:6509  CA EC 63            	jp	z,_rdc
     932.  01:650C                      
     933.  01:650C                      	;-- get the	previous note freq
     934.  01:650C  3A 13 C0            	ld	a,(replay_previous_note)
     935.  01:650F  87                  	add	a
     936.  01:6510                      
     937.  01:6510  D9                  	exx
     938.  01:6511  2A 18 C0            	ld	hl,(replay_Tonetable)	;TRACK_ToneTable
     939.  01:6514  85                  	add	a,l
     940.  01:6515  6F                  	ld	l,a
     941.  01:6516  D2 1A 65            	jp	nc,.skip
     942.  01:6519  24                  	inc	h
     943.  01:651A                      .skip:
     944.  01:651A  5E                  	ld	e,(hl)
     945.  01:651B  23                  	inc	hl
     946.  01:651C  56                  	ld	d,(hl)
     947.  01:651D                      
     948.  01:651D                      	; add	the toneadd
     949.  01:651D  DD 6E 00            	ld	l,(ix+TRACK_cmd_ToneSlideAdd)
     950.  01:6520  DD 66 01            	ld	h,(ix+TRACK_cmd_ToneSlideAdd+1)
     951.  01:6523                      
     952.  01:6523  19                  	add	hl,de	
     953.  01:6524  EB                  	ex	de,hl				; store current freq in	[de]
     954.  01:6525                      
     955.  01:6525                      	;--- get the current note freq
     956.  01:6525  DD 7E F7            	ld	a,(ix+TRACK_Note)
     957.  01:6528  87                  	add	a
     958.  01:6529  2A 18 C0            	ld	hl,(replay_Tonetable)	;TRACK_ToneTable
     959.  01:652C  85                  	add	a,l
     960.  01:652D  6F                  	ld	l,a
     961.  01:652E  D2 32 65            	jp	nc,.skip2
     962.  01:6531  24                  	inc	h
     963.  01:6532                      .skip2:
     964.  01:6532  7E                  	ld	a,(hl)
     965.  01:6533  23                  	inc	hl
     966.  01:6534  66                  	ld	h,(hl)
     967.  01:6535  6F                  	ld	l,a				; destination freq in [hl]
     968.  01:6536                      	
     969.  01:6536                      	;--- Calculate the delta
     970.  01:6536  AF                  	xor	a
     971.  01:6537  EB                  	ex	de,hl
     972.  01:6538  ED 52               	sbc	hl,de				; results in pos/neg delta
     973.  01:653A                      	
     974.  01:653A  DD 75 00            	ld	(ix+TRACK_cmd_ToneSlideAdd),l
     975.  01:653D  DD 74 01            	ld	(ix+TRACK_cmd_ToneSlideAdd+1),h	
     976.  01:6540  D9                  	exx
     977.  01:6541                      	
     978.  01:6541  CB 82               	res	B_TRGNOT,d
     979.  01:6543                      
     980.  01:6543  C3 EC 63            	jp	_rdc	
     981.  01:6546                      
     982.  01:6546                      	
     983.  01:6546                      _CHIPcmd4_vibrato:
     984.  01:6546                      	; in:	[A] contains the paramvalue
     985.  01:6546                      	; 
     986.  01:6546                      	; ! do not change	[BC] this is the data pointer
     987.  01:6546                      	;--------------------------------------------------
     988.  01:6546                      	; Vibrato with speed x and depth y.	This command 
     989.  01:6546                      	; will oscillate the frequency of the current note
     990.  01:6546                      	; with a sine wave. (You can change	the vibrato
     991.  01:6546                      	; waveform to a triangle wave, a square wave, or a
     992.  01:6546                      	; random table by	using	the E4x command).
     993.  01:6546                      	;--- Init values
     994.  01:6546  5F                  	ld	e,a
     995.  01:6547  E6 07               	and	$07
     996.  01:6549                      
     997.  01:6549  DD 77 09            	ld	(ix+TRACK_cmd_4_depth),a
     998.  01:654C  7B                  	ld	a,e
     999.  01:654D  1F                  	rra
    1000.  01:654E  1F                  	rra
    1001.  01:654F  1F                  	rra
    1002.  01:6550  1F                  	rra
    1003.  01:6551  E6 0F               	and	$0f
    1004.  01:6553  DD 77 0A            	ld	(ix+TRACK_cmd_4_step),a
    1005.  01:6556  ED 44               	neg	
    1006.  01:6558  DD 77 10            	ld	(ix+TRACK_Step),a
    1007.  01:655B                      	
    1008.  01:655B  CB DA               	set	B_TRGCMD,d
    1009.  01:655D  C3 EC 63            	jp	_rdc	
    1010.  01:6560                      
    1011.  01:6560                      
    1012.  01:6560                      _CHIPcmd5_vibrato_port_tone:
    1013.  01:6560                      	; in:	[A] contains the paramvalue
    1014.  01:6560                      	; 
    1015.  01:6560                      	; ! do not change	[BC] this is the data pointer
    1016.  01:6560                      	;--------------------------------------------------
    1017.  01:6560                      	; portTone	+ volumeslide
    1018.  01:6560                      	;--- Init values
    1019.  01:6560                      _CHIPcmd6_vibrato_vol:
    1020.  01:6560                      	; in:	[A] contains the paramvalue
    1021.  01:6560                      	; 
    1022.  01:6560                      	; ! do not change	[BC] this is the data pointer
    1023.  01:6560                      	;--------------------------------------------------
    1024.  01:6560                      _CHIPcmd7_vol_slide:
    1025.  01:6560                      	; in:	[A] contains the paramvalue
    1026.  01:6560                      	; 
    1027.  01:6560                      	; ! do not change	[BC] this is the data pointer
    1028.  01:6560                      	;--------------------------------------------------
    1029.  01:6560                      	; slide the	volume up or down	1 step.
    1030.  01:6560                      	; The	x or y param  set	the delay*2	(x=up,y=down)
    1031.  01:6560                      	; With A00 the previous	value	is used.
    1032.  01:6560                      	
    1033.  01:6560  DD 77 0C            	ld	(ix+TRACK_cmd_A),a
    1034.  01:6563  CB DA               	set	B_TRGCMD,d
    1035.  01:6565  DD 36 0F 01         	ld	(ix+TRACK_Timer),1
    1036.  01:6569                      
    1037.  01:6569  C3 EC 63            	jp	_rdc
    1038.  01:656C                      
    1039.  01:656C                      
    1040.  01:656C                      
    1041.  01:656C                      _CHIPcmd8_macro_offset:
    1042.  01:656C                      	; in:	[A] contains the paramvalue
    1043.  01:656C                      	; 
    1044.  01:656C                      	; ! do not change	[BC] this is the data pointer
    1045.  01:656C                      	;--------------------------------------------------
    1046.  01:656C                      	; This command, when used together with a	note,	
    1047.  01:656C                      	; will start playing the sample at the position	xx 
    1048.  01:656C                      	; (instead of position 0). If	xx is	00 (900), the 
    1049.  01:656C                      	; previous value will be used.
    1050.  01:656C                      
    1051.  01:656C                      	;--- Init values
    1052.  01:656C                      	; NOT SUPPORTED ANYMORE
    1053.  01:656C  C3 EC 63            	jp	_rdc
    1054.  01:656F                      
    1055.  01:656F                      
    1056.  01:656F                      
    1057.  01:656F                      
    1058.  01:656F                      _CHIPcmd9_env_shape:
    1059.  01:656F  CB D2               	set	B_TRGENV,d
    1060.  01:6571  32 AC C1            	ld	(AY_regEnvShape),a
    1061.  01:6574                      
    1062.  01:6574  C3 EC 63            	jp	_rdc
    1063.  01:6577                      
    1064.  01:6577                      
    1065.  01:6577                      	; in:	[A] contains the paramvalue
    1066.  01:6577                      	; 
    1067.  01:6577                      	; ! do not change	[BC] this is the data pointer
    1068.  01:6577                      	;--------------------------------------------------
    1069.  01:6577                      	; This command set the envelope frequency using a
    1070.  01:6577                      	; multiplier value (00-ff)
    1071.  01:6577                      _CHIPcmdA_env_mul:
    1072.  01:6577  57                  	ld	d,a
    1073.  01:6578  AF                  	xor	a
    1074.  01:6579  CB 3A               	srl	d
    1075.  01:657B  1F                  	rra	
    1076.  01:657C  CB 3A               	srl	d
    1077.  01:657E  1F                  	rra		
    1078.  01:657F  CB 3A               	srl	d
    1079.  01:6581  1F                  	rra	
    1080.  01:6582  32 AA C1            	ld	(AY_regEnvL),a
    1081.  01:6585  7A                  	ld	a,d
    1082.  01:6586  32 AB C1            	ld	(AY_regEnvH),a
    1083.  01:6589                      	
    1084.  01:6589  C3 EC 63            	jp	_rdc	
    1085.  01:658C                      
    1086.  01:658C                      
    1087.  01:658C                      
    1088.  01:658C                      _CHIPcmdB_wave_res:
    1089.  01:658C  CB F2               	set	B_TRGWAV,d
    1090.  01:658E  CB A2               	res	B_ACTMOR,d
    1091.  01:6590                      
    1092.  01:6590  0B                  	dec 	bc
    1093.  01:6591  C3 EC 63            	jp	_rdc
    1094.  01:6594                      
    1095.  01:6594                      
    1096.  01:6594                      _CHIPcmdC_wave_duty:
    1097.  01:6594                      _CHIPcmdD_wave_cut:
    1098.  01:6594                      _CHIPcmdE_wave_compr:
    1099.  01:6594  DD 77 0D            	ld	(ix+TRACK_cmd_B),a
    1100.  01:6597  CB DA               	set	B_TRGCMD,d
    1101.  01:6599  CB A2               	res	B_ACTMOR,d
    1102.  01:659B                      
    1103.  01:659B  C3 EC 63            	jp	_rdc	
    1104.  01:659E                      
    1105.  01:659E                      
    1106.  01:659E                      _CHIPcmdF_wave_set:
    1107.  01:659E  DD 77 F0            	ld	(ix+TRACK_Waveform),a
    1108.  01:65A1  CB F2               	set	B_TRGWAV,d
    1109.  01:65A3  CB A2               	res	B_ACTMOR,d
    1110.  01:65A5                      
    1111.  01:65A5  C3 EC 63            	jp	_rdc	
    1112.  01:65A8                      
    1113.  01:65A8                      
    1114.  01:65A8                      _CHIPcmd10_morph_slave:
    1115.  01:65A8  CB E2               	set	B_ACTMOR,d
    1116.  01:65AA                      	
    1117.  01:65AA  0B                  	dec 	bc
    1118.  01:65AB  C3 EC 63            	jp	_rdc	
    1119.  01:65AE                      	
    1120.  01:65AE                      _CHIPcmd11_morph_start:
    1121.  01:65AE  E6 0F               	and	0x0f
    1122.  01:65B0  32 1C C0            	ld	(replay_morph_speed),a
    1123.  01:65B3                      	
    1124.  01:65B3  D9                  	exx
    1125.  01:65B4                      	;--- load the waveformbuffer
    1126.  01:65B4  DD 7E F0            	ld	a,(ix+TRACK_Waveform)
    1127.  01:65B7  87                  	add	a,a
    1128.  01:65B8  87                  	add	a,a
    1129.  01:65B9  87                  	add	a,a	
    1130.  01:65BA                      
    1131.  01:65BA  6F                  	ld	l,a
    1132.  01:65BB  26 00               	ld	h,0
    1133.  01:65BD  29                  	add	hl,hl
    1134.  01:65BE  29                  	add	hl,hl
    1135.  01:65BF                      		
    1136.  01:65BF  ED 5B 06 C0         	ld	de,(replay_wavebase)
    1137.  01:65C3  19                  	add	hl,de
    1138.  01:65C4                      
    1139.  01:65C4  11 1E C0            	ld	de,replay_morph_buffer
    1140.  01:65C7  3E 20               	ld	a,32
    1141.  01:65C9                      .loop:
    1142.  01:65C9  08                  	ex	af,af'	;'
    1143.  01:65CA  7E                  	ld	a,(hl)
    1144.  01:65CB  12                  	ld	(de),a		; copy value to both wave and delta pos
    1145.  01:65CC  13                  	inc	de
    1146.  01:65CD  12                  	ld	(de),a
    1147.  01:65CE  23                  	inc	hl
    1148.  01:65CF  13                  	inc	de
    1149.  01:65D0  08                  	ex	af,af'	;'
    1150.  01:65D1  3D                  	dec	a
    1151.  01:65D2  C2 C9 65            	jp	nz,.loop
    1152.  01:65D5  D9                  	exx
    1153.  01:65D6                      	
    1154.  01:65D6  0A                  	ld	a,(bc)
    1155.  01:65D7                      
    1156.  01:65D7                      _CHIPcmd12_morph_cont:
    1157.  01:65D7                      	;---- init new morph
    1158.  01:65D7  E6 F0               	and	0xf0	
    1159.  01:65D9  32 5E C0            	ld	(replay_morph_waveform),a	; store dest form offset
    1160.  01:65DC                      	
    1161.  01:65DC  AF                  	xor	a
    1162.  01:65DD  32 1D C0            	ld	(replay_morph_counter),a
    1163.  01:65E0  3C                  	inc	a
    1164.  01:65E1  32 1B C0            	ld	(replay_morph_timer),a
    1165.  01:65E4                      
    1166.  01:65E4                      	;--- calculate the delta's	
    1167.  01:65E4  3E FF               	ld	a,255				; 255 triggers calc init
    1168.  01:65E6  32 1A C0            	ld	(replay_morph_active),a	
    1169.  01:65E9                      
    1170.  01:65E9  CB E2               	set	B_ACTMOR,d
    1171.  01:65EB  C3 EC 63            	jp	_rdc		
    1172.  01:65EE                      	
    1173.  01:65EE                      
    1174.  01:65EE                      _CHIPcmd13_short_arp:
    1175.  01:65EE  DD 77 0E            	ld	(ix+TRACK_cmd_E),a		; store the halve not to add
    1176.  01:65F1  DD 36 0F 00         	ld	(ix+TRACK_Timer),0
    1177.  01:65F5                      
    1178.  01:65F5  CB DA               	set	B_TRGCMD,d		; command active
    1179.  01:65F7  C3 EC 63            	jp	_rdc	
    1180.  01:65FA                      	
    1181.  01:65FA                      	
    1182.  01:65FA                      _CHIPcmd14_fine_up:
    1183.  01:65FA                      _CHIPcmd15_fine_down:
    1184.  01:65FA  DD 77 0E            	ld	(ix+TRACK_cmd_E),a
    1185.  01:65FD  DD 36 0F 02         	ld	(ix+TRACK_Timer),2
    1186.  01:6601  CB DA               	set	B_TRGCMD,d		; command active
    1187.  01:6603                      
    1188.  01:6603  C3 EC 63            	jp	_rdc	
    1189.  01:6606                      
    1190.  01:6606                      
    1191.  01:6606                      _CHIPcmd16_vib_ctrl:
    1192.  01:6606  21 91 16            	ld	hl,TRACK_Vibrato_sine
    1193.  01:6609  FE 01               	cp	1
    1194.  01:660B  DA 23 66            	jp	c,_cmd16_sine
    1195.  01:660E  CA 1A 66            	jp	z,_cmd16_tri
    1196.  01:6611                      _cmd16_pulse:
    1197.  01:6611  21 D1 16            	ld	hl,TRACK_Vibrato_pulse
    1198.  01:6614  22 16 C0            	ld	(replay_vib_table),hl
    1199.  01:6617  C3 EC 63            	jp	_rdc
    1200.  01:661A                      _cmd16_tri:
    1201.  01:661A  21 B1 16            	ld	hl,TRACK_Vibrato_triangle
    1202.  01:661D  22 16 C0            	ld	(replay_vib_table),hl
    1203.  01:6620  C3 EC 63            	jp	_rdc	
    1204.  01:6623                      
    1205.  01:6623                      _cmd16_sine:
    1206.  01:6623  21 91 16            	ld	hl,TRACK_Vibrato_sine
    1207.  01:6626  22 16 C0            	ld	(replay_vib_table),hl
    1208.  01:6629  C3 EC 63            	jp	_rdc
    1209.  01:662C                      
    1210.  01:662C                      
    1211.  01:662C                      
    1212.  01:662C                      _CHIPcmd17_track_detune:
    1213.  01:662C                      	; This command sets the	detune of the track.
    1214.  01:662C  5F                  	ld	e,a
    1215.  01:662D  E6 07               	and	0x07		; low	4 bits is value
    1216.  01:662F  CB 5B               	bit	3,e		; Center around 8
    1217.  01:6631  CA 41 66            	jp	z,.pos
    1218.  01:6634  3C                  	inc	a
    1219.  01:6635  ED 44               	neg			; make correct value
    1220.  01:6637  DD 77 04            	ld	(ix+TRACK_cmd_detune),a
    1221.  01:663A  DD 36 05 FF         	ld	(ix+TRACK_cmd_detune+1),0xff
    1222.  01:663E                      
    1223.  01:663E  C3 EC 63            	jp	_rdc	
    1224.  01:6641                      
    1225.  01:6641                      .pos:
    1226.  01:6641  DD 77 04            	ld	(ix+TRACK_cmd_detune),a
    1227.  01:6644  DD 36 05 00         	ld	(ix+TRACK_cmd_detune+1),0x00	
    1228.  01:6648                      
    1229.  01:6648  C3 EC 63            	jp	_rdc	
    1230.  01:664B                      
    1231.  01:664B                      
    1232.  01:664B                      ; This command sets the	detune of the track.	
    1233.  01:664B                      _CHIPcmd18_transpose:
    1234.  01:664B  5F                  	ld	e,a
    1235.  01:664C  87                  	add	a
    1236.  01:664D  21 D1 15            	ld	hl,TRACK_ToneTable		;(replay_Tonetable)
    1237.  01:6650  E6 0F               	and	15		; low	4 bits is value
    1238.  01:6652  CB 5B               	bit	3,e		; Center around 8
    1239.  01:6654  CA 65 66            	jp	z,.pos
    1240.  01:6657                      
    1241.  01:6657                      	;neg	
    1242.  01:6657  ED 44               	neg	
    1243.  01:6659  85                  	add	a,l
    1244.  01:665A  6F                  	ld	l,a
    1245.  01:665B  D2 5F 66            	jp	nc,.skip1
    1246.  01:665E  25                  	dec	h
    1247.  01:665F                      .skip1:
    1248.  01:665F  22 18 C0            	ld	(replay_Tonetable),hl
    1249.  01:6662  C3 EC 63            	jp	_rdc
    1250.  01:6665                      ; pos
    1251.  01:6665                      .pos:	
    1252.  01:6665  85                  	add	a,l
    1253.  01:6666  6F                  	ld	l,a
    1254.  01:6667  D2 6B 66            	jp	nc,.skip2
    1255.  01:666A  24                  	inc	h
    1256.  01:666B                      .skip2:
    1257.  01:666B  22 18 C0            	ld	(replay_Tonetable),hl
    1258.  01:666E  C3 EC 63            	jp	_rdc
    1259.  01:6671                      
    1260.  01:6671                      _CHIPcmdXX_note_cut:
    1261.  01:6671  CB DA               	set	B_TRGCMD,d
    1262.  01:6673  3C                  	inc	a
    1263.  01:6674  DD 77 0F            	ld	(ix+TRACK_Timer),a		; set	the timer to param y
    1264.  01:6677  C3 EC 63            	jp 	_rdc
    1265.  01:667A                      
    1266.  01:667A                      
    1267.  01:667A                      _CHIPcmd19_note_delay:
    1268.  01:667A  CB 42               	bit	B_TRGNOT,d		; is there a note	in this eventstep?
    1269.  01:667C  CA EC 63            	jp	z,_rdc
    1270.  01:667F                      
    1271.  01:667F  CB DA               	set	B_TRGCMD,d					; command active
    1272.  01:6681  3C                  	inc	a
    1273.  01:6682  DD 77 0F            	ld	(ix+TRACK_Timer),a			; set	the timer to param y
    1274.  01:6685  DD 7E F7            	ld	a,(ix+TRACK_Note)
    1275.  01:6688  DD 77 0E            	ld	(ix+TRACK_cmd_E),a			; store the	new note
    1276.  01:668B  3A 13 C0            	ld	a,(replay_previous_note)
    1277.  01:668E  DD 77 F7            	ld	(ix+TRACK_Note),a				; restore the old	note
    1278.  01:6691  DD CB F9 86         	res	B_TRGNOT,(ix+TRACK_Flags)		; reset any	triggernote
    1279.  01:6695                      
    1280.  01:6695  C3 EC 63            	jp	_rdc	
    1281.  01:6698                      
    1282.  01:6698                      
    1283.  01:6698                      
    1284.  01:6698                      _CHIPcmd1A_trigger:
    1285.  01:6698  32 01 C0            	ld	(replay_trigger),a
    1286.  01:669B  C3 EC 63            	jp	_rdc		
    1287.  01:669E                      
    1288.  01:669E                      
    1289.  01:669E                      _CHIPcmd1B_speed:
    1290.  01:669E  32 0C C0            	ld	(replay_speed),a
    1291.  01:66A1                      	;--- Reset Timer == 0
    1292.  01:66A1  CB 3F               	srl	a				; divide speed with 2
    1293.  01:66A3  5F                  	ld	e,a
    1294.  01:66A4  3E 00               	ld	a,0				
    1295.  01:66A6  8F                  	adc	a				; store carry of shift as subtimer
    1296.  01:66A7  32 0D C0            	ld	(replay_speed_subtimer),a
    1297.  01:66AA  83                  	add	a,e
    1298.  01:66AB  32 0E C0            	ld	(replay_speed_timer),a
    1299.  01:66AE                      
    1300.  01:66AE  C3 EC 63            	jp	_rdc	
    1301.  01:66B1                      	
    1302.  01:66B1                      _CHIPcmd1C_notelink:
    1303.  01:66B1  CB 82               	res	B_TRGNOT,d
    1304.  01:66B3  0B                  	dec 	bc
    1305.  01:66B4  C3 EC 63            	jp	_rdc	
    1306.  01:66B7                      _CHIPcmd1C_call:
    1307.  01:66B7                      _CHIPcmd1D_ret:
    1308.  01:66B7                      	;< not implemented yet>
    1309.  01:66B7  0B                  	dec 	bc
    1310.  01:66B8  C3 EC 63            	jp	_rdc	
    1311.  01:66BB                      
    1312.  01:66BB                      
    1313.  01:66BB                      
    1314.  01:66BB                      
    1315.  01:66BB                      _CHIPcmd0_RE_arpeggio:
    1316.  01:66BB  DD 36 0F 00         	ld	(ix+TRACK_Timer),0
    1317.  01:66BF                      	
    1318.  01:66BF                      _CHIPcmd1_RE_port_up:	
    1319.  01:66BF                      _CHIPcmd2_RE_port_down:
    1320.  01:66BF                      _CHIPcmd4_RE_vibrato:
    1321.  01:66BF  CB DA               	set	B_TRGCMD,d
    1322.  01:66C1  DD 77 13            	ld	(ix+TRACK_Retrig),a
    1323.  01:66C4  C3 EC 63            	jp	_rdc		
    1324.  01:66C7                      	
    1325.  01:66C7                      _CHIPcmd5_RE_vibrato_port_tone:
    1326.  01:66C7                      _CHIPcmd6_RE_vibrato_vol:
    1327.  01:66C7                      _CHIPcmd7_RE_vol_slide:
    1328.  01:66C7  CB DA               	set	B_TRGCMD,d
    1329.  01:66C9  DD 36 0F 01         	ld	(ix+TRACK_Timer),1
    1330.  01:66CD  DD 77 13            	ld	(ix+TRACK_Retrig),a
    1331.  01:66D0  C3 EC 63            	jp	_rdc
    1332.  01:66D3                      		
    1333.  01:66D3                      _CHIPcmd8_RE_macro_offset:	
    1334.  01:66D3  CB DA               	set	B_TRGCMD,d
    1335.  01:66D5  DD 36 0F 02         	ld	(ix+TRACK_Timer),2
    1336.  01:66D9  DD 77 13            	ld	(ix+TRACK_Retrig),a
    1337.  01:66DC  C3 EC 63            	jp	_rdc			
    1338.  01:66DF                      
    1339.  01:66DF                      _CHIPcmd9_RE_env_shape:
    1340.  01:66DF  CB D2               	set	B_TRGENV,d
    1341.  01:66E1  DD 77 13            	ld	(ix+TRACK_Retrig),a
    1342.  01:66E4  C3 EC 63            	jp	_rdc	
    1343.  01:66E7                      
    1344.  01:66E7                      
    1345.  01:66E7                      
    1346.  01:66E7                      ;===========================================================
    1347.  01:66E7                      ; ---replay_route
    1348.  01:66E7                      ; Output the data	to the CHIP	registers
    1349.  01:66E7                      ; 
    1350.  01:66E7                      ; in HL is the current tone freq
    1351.  01:66E7                      ; in D is TRACK_FLAGS  
    1352.  01:66E7                      ;===========================================================
    1353.  01:66E7                      replay_process_chan_AY:
    1354.  01:66E7                      
    1355.  01:66E7                      	;-- set the	mixer	right
    1356.  01:66E7  21 3C C2            	ld	hl,SCC_regMIXER   
    1357.  01:66EA  CB 3E               	srl	(hl)
    1358.  01:66EC                      
    1359.  01:66EC                      	;=====
    1360.  01:66EC                      	; COMMAND
    1361.  01:66EC                      	;=====
    1362.  01:66EC  CB 5A               	bit	B_TRGCMD,d	;(ix+TRACK_Flags)
    1363.  01:66EE  CA 03 67            	jp	z,_pcAY_noCommand
    1364.  01:66F1                      	
    1365.  01:66F1  21 2E 68            	ld	hl,_pcAY_cmdlist-26
    1366.  01:66F4  DD 7E F1            	ld	a,(ix+TRACK_Command)
    1367.  01:66F7  87                  	add	a
    1368.  01:66F8  85                  	add	a,l
    1369.  01:66F9  6F                  	ld	l,a
    1370.  01:66FA  D2 FE 66            	jp	nc,.skip
    1371.  01:66FD  24                  	inc	h
    1372.  01:66FE                      .skip:
    1373.  01:66FE  7E                  	ld	a,(hl)
    1374.  01:66FF  23                  	inc	hl
    1375.  01:6700  66                  	ld	h,(hl)
    1376.  01:6701  6F                  	ld	l,a	
    1377.  01:6702  E9                  	jp	(hl)
    1378.  01:6703                      	
    1379.  01:6703                      _pcAY_noCommand:	
    1380.  01:6703                      _pcAY_commandEND:
    1381.  01:6703                      
    1382.  01:6703                      	;=====
    1383.  01:6703                      	; NOTE
    1384.  01:6703                      	;=====
    1385.  01:6703                      	;--- Check if we need to trigger a new note
    1386.  01:6703  CB 42               	bit	B_TRGNOT,d	;(ix+TRACK_Flags)
    1387.  01:6705  CA 2C 67            	jp	z,_pcAY_noNoteTrigger
    1388.  01:6708                      	
    1389.  01:6708                      
    1390.  01:6708                      _pcAY_triggerNote:	
    1391.  01:6708                      	;--- get new Note
    1392.  01:6708  CB 82               	res	B_TRGNOT,d		;(ix+TRACK_Flags)		; reset trigger note flag
    1393.  01:670A  CB CA               	set	B_ACTNOT,d		;(ix+TRACK_Flags)		; set	note active	flag
    1394.  01:670C                      
    1395.  01:670C  DD 6E F4            	ld	l,(ix+TRACK_MacroStart)
    1396.  01:670F  DD 66 F5            	ld	h,(ix+TRACK_MacroStart+1)
    1397.  01:6712                      	;--- Store the macro start	
    1398.  01:6712  DD 75 F2            	ld	(ix+TRACK_MacroPointer),l
    1399.  01:6715  DD 74 F3            	ld	(ix+TRACK_MacroPointer+1),h	
    1400.  01:6718                      
    1401.  01:6718  21 00 00            	ld	hl,0
    1402.  01:671B  ED 73 00 C0         	ld	(_SP_Storage),sp
    1403.  01:671F  DD F9               	ld	sp,ix
    1404.  01:6721  F1                  	pop	af
    1405.  01:6722  F1                  	pop	af
    1406.  01:6723  E5                  	push	hl
    1407.  01:6724  E5                  	push	hl		
    1408.  01:6725  E5                  	push	hl
    1409.  01:6726  E5                  	push	hl
    1410.  01:6727  E5                  	push	hl
    1411.  01:6728  ED 7B 00 C0         	ld	sp,(_SP_Storage)
    1412.  01:672C                      
    1413.  01:672C                      ;	ld	(ix+TRACK_ToneAdd),0
    1414.  01:672C                      ;	ld	(ix+TRACK_ToneAdd+1),0
    1415.  01:672C                      ;	ld	(ix+TRACK_VolumeAdd),0	
    1416.  01:672C                      ;	ld	(ix+TRACK_cmd_ToneAdd),0
    1417.  01:672C                      ;	ld	(ix+TRACK_cmd_ToneAdd+1),0
    1418.  01:672C                      ;	ld	(ix+TRACK_cmd_VolumeAdd),0
    1419.  01:672C                      ;	ld	(ix+TRACK_Noise),0
    1420.  01:672C                      ;	ld	(ix+TRACK_cmd_ToneSlideAdd),0
    1421.  01:672C                      ;	ld	(ix+TRACK_cmd_ToneSlideAdd+1),0
    1422.  01:672C                      
    1423.  01:672C                      _pcAY_noNoteTrigger:
    1424.  01:672C                      	;Get note freq
    1425.  01:672C  DD 7E F7            	ld	a,(ix+TRACK_Note)
    1426.  01:672F  DD 86 0B            	add	a,(ix+TRACK_cmd_NoteAdd)
    1427.  01:6732  87                  	add	a
    1428.  01:6733  08                  	ex	af,af'			;'store the	note offset
    1429.  01:6734  DD 36 0B 00         	ld	(ix+TRACK_cmd_NoteAdd),0	
    1430.  01:6738                      	
    1431.  01:6738                      
    1432.  01:6738                      	;==============
    1433.  01:6738                      	; Macro instrument
    1434.  01:6738                      	;==============
    1435.  01:6738  CB 4A               	bit	B_ACTNOT,d			;(ix+TRACK_Flags)
    1436.  01:673A  CA 43 68            	jp	z,_pcAY_noNoteActive
    1437.  01:673D                      	
    1438.  01:673D                      	;--- Get the macro len and loop
    1439.  01:673D  DD 6E F2            	ld	l,(ix+TRACK_MacroPointer)
    1440.  01:6740  DD 66 F3            	ld	h,(ix+TRACK_MacroPointer+1)
    1441.  01:6743                      
    1442.  01:6743  5E                  	ld	e,(hl)				; info byte
    1443.  01:6744  23                  	inc	hl
    1444.  01:6745  CB 43               	bit	0,e					; Volume change
    1445.  01:6747  C2 50 67            	jp	nz,_vol_change
    1446.  01:674A  DD 7E FD            	ld	a,(ix+TRACK_VolumeAdd)
    1447.  01:674D  C3 7A 67            	jp	_noEnv
    1448.  01:6750                      	
    1449.  01:6750                      	;--- Volume change
    1450.  01:6750                      _vol_change:
    1451.  01:6750  7E                  	ld	a,(hl)
    1452.  01:6751  23                  	inc	hl
    1453.  01:6752                      	
    1454.  01:6752  CB 4B               	bit	1,e
    1455.  01:6754  CA 6A 67            	jp	z,_vol_base
    1456.  01:6757                      _vol_rel:
    1457.  01:6757  DD 86 FD            	add	 (ix+TRACK_VolumeAdd)
    1458.  01:675A  FE 10               	cp	16
    1459.  01:675C  DA 6A 67            	jp	c,_vol_base
    1460.  01:675F  FE 80               	cp	128
    1461.  01:6761  DA 69 67            	jp	c,.skip
    1462.  01:6764  3E 0F               	ld	a,$0f
    1463.  01:6766  C3 6A 67            	jp	_vol_base
    1464.  01:6769                      .skip:	
    1465.  01:6769  AF                  	xor	a
    1466.  01:676A                      	
    1467.  01:676A                      _vol_base:
    1468.  01:676A  DD 77 FD            	ld	(ix+TRACK_VolumeAdd),a
    1469.  01:676D                      
    1470.  01:676D                      	;---- envelope check
    1471.  01:676D                      	; is done here to be able to continue
    1472.  01:676D                      	; macro volume values.
    1473.  01:676D  CB 52               	bit	B_TRGENV,d		;'(IX+TRACK_Flags)
    1474.  01:676F  CA 7A 67            	jp	z,_noEnv		; if not set then normal volume calculation
    1475.  01:6772  3E 10               	ld	a,16			; set volume to 16 == envelope
    1476.  01:6774  32 3B C2            	ld	(SCC_regVOLE),a
    1477.  01:6777  C3 B4 67            	jp	_noVolume	
    1478.  01:677A                      	
    1479.  01:677A                      _noEnv:
    1480.  01:677A  DD B6 F8            	or	(ix+TRACK_Volume)
    1481.  01:677D  4F                  	ld	c,a			; store volume add
    1482.  01:677E                      
    1483.  01:677E  DD 7E FF            	ld 	a,(ix+TRACK_cmd_VolumeAdd)
    1484.  01:6781  17                  	rla				; shift to detect shift
    1485.  01:6782  DA 8F 67            	jp 	c,.sub_Vadd		
    1486.  01:6785                      .add_Vadd:  
    1487.  01:6785  81                  	add	a,c
    1488.  01:6786  D2 9B 67            	jp	nc,_Vadd
    1489.  01:6789  79                  	ld	a,c
    1490.  01:678A  F6 F0               	or	0xf0
    1491.  01:678C  C3 9B 67            	jp	_Vadd	
    1492.  01:678F                      .sub_Vadd:	
    1493.  01:678F  47                  	ld	b,a
    1494.  01:6790  AF                  	xor	a
    1495.  01:6791  90                  	sub 	b
    1496.  01:6792  47                  	ld	b,a
    1497.  01:6793  79                  	ld	a,c
    1498.  01:6794  90                  	sub	a,b
    1499.  01:6795  D2 9B 67            	jp 	nc,.skip2
    1500.  01:6798  79                  	ld	a,c
    1501.  01:6799  E6 0F                	and	0x0f
    1502.  01:679B                      .skip2:
    1503.  01:679B                      
    1504.  01:679B                      	
    1505.  01:679B                      	;-- next is _Vadd
    1506.  01:679B                      _Vadd:
    1507.  01:679B                      	;--- apply main volume balance
    1508.  01:679B  ED 4B 14 C0         	ld	bc,(replay_mainvol)
    1509.  01:679F  81                  	add	a,c
    1510.  01:67A0  4F                  	ld	c,a
    1511.  01:67A1  D2 A5 67            	jp	nc,.skip
    1512.  01:67A4  04                  	inc	b
    1513.  01:67A5                      .skip:
    1514.  01:67A5  0A                  	ld	a,(bc)	
    1515.  01:67A6                      	; Test which CHIP.
    1516.  01:67A6  CB 7A               	bit	B_PSGSCC,d		;(ix+TRACK_Flags)
    1517.  01:67A8  C2 AF 67            	jp	nz,.skip2
    1518.  01:67AB  1F                  	rra
    1519.  01:67AC  1F                  	rra
    1520.  01:67AD  1F                  	rra
    1521.  01:67AE  1F                  	rra
    1522.  01:67AF                      .skip2:
    1523.  01:67AF  E6 0F               	and	0x0f
    1524.  01:67B1  32 3B C2            	ld	(SCC_regVOLE),a
    1525.  01:67B4                      
    1526.  01:67B4                      _noVolume:
    1527.  01:67B4                      	;-------------------------------
    1528.  01:67B4                      	;
    1529.  01:67B4                      	; NOISE
    1530.  01:67B4                      	;
    1531.  01:67B4                      	;-------------------------------
    1532.  01:67B4  CB 7B               	bit 	7,e			; test if noise
    1533.  01:67B6  CA DB 67            	jp	z,_noNoise
    1534.  01:67B9                      	
    1535.  01:67B9                      	;--- prevent SCC and noise
    1536.  01:67B9  CB 7A               	bit	B_PSGSCC,d		;(ix+TRACK_Flags)
    1537.  01:67BB  C2 DB 67            	jp	nz,_noNoise
    1538.  01:67BE                      
    1539.  01:67BE                      	;--- Set the mixer for noise
    1540.  01:67BE  3A 3C C2            	ld	a,(SCC_regMIXER)
    1541.  01:67C1  F6 80               	or	128
    1542.  01:67C3  32 3C C2            	ld	(SCC_regMIXER),a
    1543.  01:67C6                      
    1544.  01:67C6  CB 6B               	bit	5,e
    1545.  01:67C8  CA DB 67            	jp	z,_noNoise
    1546.  01:67CB  7E                  	ld	a,(hl)	; get	the deviation	
    1547.  01:67CC  23                  	inc	hl
    1548.  01:67CD  CB 73               	bit	6,e
    1549.  01:67CF  CA D5 67            	jp	z,.skip
    1550.  01:67D2  DD 86 FE            	add	(ix+TRACK_Noise)
    1551.  01:67D5  DD 77 FE            .skip:	ld	(ix+TRACK_Noise),a
    1552.  01:67D8  32 A5 C1            	ld	(AY_regNOISE),a
    1553.  01:67DB                      	
    1554.  01:67DB                      _noNoise:
    1555.  01:67DB                      	;-------------------------------
    1556.  01:67DB                      	;
    1557.  01:67DB                      	; TONE
    1558.  01:67DB                      	;
    1559.  01:67DB                      	;-------------------------------
    1560.  01:67DB  CB 63               	bit	4,e		; do we have tone?
    1561.  01:67DD  CA E8 67            	jp	z,_pcAY_noTone
    1562.  01:67E0                      
    1563.  01:67E0                      	;-- enable tone output
    1564.  01:67E0  3A 3C C2            	ld	a,(SCC_regMIXER)
    1565.  01:67E3  F6 10               	or	16
    1566.  01:67E5  32 3C C2            	ld	(SCC_regMIXER),a
    1567.  01:67E8                      _pcAY_noTone:
    1568.  01:67E8  DD 46 FB            	ld	b,(ix+TRACK_ToneAdd)	; get	the current	deviation	
    1569.  01:67EB  DD 4E FC            	ld	c,(ix+TRACK_ToneAdd+1)
    1570.  01:67EE                      
    1571.  01:67EE  CB 53               	bit	2,e
    1572.  01:67F0  CA 05 68            	jp	z,_pcAY_noToneAdd
    1573.  01:67F3  7E                  	ld	a,(hl)
    1574.  01:67F4  23                  	inc	hl
    1575.  01:67F5  81                  	add	c
    1576.  01:67F6  4F                  	ld	c,a
    1577.  01:67F7  DD 71 FC            	ld	(ix+TRACK_ToneAdd+1),c
    1578.  01:67FA  D2 FE 67            	jp	nc,.skip
    1579.  01:67FD  04                  	inc	b
    1580.  01:67FE                      .skip:
    1581.  01:67FE  7E                  	ld	a,(hl)
    1582.  01:67FF  23                  	inc	hl
    1583.  01:6800  80                  	add	b
    1584.  01:6801  47                  	ld	b,a
    1585.  01:6802  DD 70 FB            	ld	(ix+TRACK_ToneAdd),b
    1586.  01:6805                      _pcAY_noToneAdd:	
    1587.  01:6805  DD 75 F2            	ld	(ix+TRACK_MacroPointer),l	;--- store pointer for next time
    1588.  01:6808  DD 74 F3            	ld	(ix+TRACK_MacroPointer+1),h	
    1589.  01:680B                      
    1590.  01:680B  08                  	ex	af,af'			;';restore note offset
    1591.  01:680C  2A 18 C0            	ld	hl,(replay_Tonetable)
    1592.  01:680F  85                  	add	a,l
    1593.  01:6810  6F                  	ld	l,a
    1594.  01:6811  D2 15 68            	jp	nc,.skip
    1595.  01:6814  24                  	inc	h
    1596.  01:6815                      .skip:
    1597.  01:6815  7E                  	ld	a,(hl)	;--- Store the note tone value in hl
    1598.  01:6816  23                  	inc	hl
    1599.  01:6817  66                  	ld	h,(hl)
    1600.  01:6818  6F                  	ld	l,a
    1601.  01:6819                      		
    1602.  01:6819  09                  	add	hl,bc		;--- Store tone deviation		
    1603.  01:681A                      
    1604.  01:681A                      	; set	the detune.
    1605.  01:681A  ED 73 00 C0         	ld	(_SP_Storage),sp
    1606.  01:681E  DD F9               	ld	sp,ix
    1607.  01:6820  C1                  	pop	bc		; cmd detume
    1608.  01:6821  09                  	add	hl,bc
    1609.  01:6822  C1                  	pop	bc		; cmd toneadd
    1610.  01:6823  09                  	add	hl,bc
    1611.  01:6824  C1                  	pop	bc		; cmd tone slide add
    1612.  01:6825  09                  	add	hl,bc
    1613.  01:6826  ED 7B 00 C0         	ld	sp,(_SP_Storage)
    1614.  01:682A                      
    1615.  01:682A                      ;	ld	c,(ix+TRACK_cmd_detune)
    1616.  01:682A                      ;	ld	b,(ix+TRACK_cmd_detune+1)
    1617.  01:682A                      ;	add	hl,bc
    1618.  01:682A                      ;
    1619.  01:682A                      ;	ld	c,(ix+TRACK_cmd_ToneAdd)
    1620.  01:682A                      ;	ld	b,(ix+TRACK_cmd_ToneAdd+1)
    1621.  01:682A                      ;	add	hl,bc
    1622.  01:682A                      ;	
    1623.  01:682A                      ;	ld	c,(ix+TRACK_cmd_ToneSlideAdd)
    1624.  01:682A                      ;	ld	b,(ix+TRACK_cmd_ToneSlideAdd+1)
    1625.  01:682A                      ;	
    1626.  01:682A                      ;	add	hl,bc
    1627.  01:682A                      
    1628.  01:682A                      	;-------------------------------
    1629.  01:682A                      	;
    1630.  01:682A                      	; END of macro?
    1631.  01:682A                      	;
    1632.  01:682A                      	;-------------------------------
    1633.  01:682A  CB 5B               	bit	3,e		
    1634.  01:682C  C8                  	ret	z
    1635.  01:682D                      	
    1636.  01:682D                      	;--- now get new pointer
    1637.  01:682D  DD 4E F4            	ld	c,(ix+TRACK_MacroStart)
    1638.  01:6830  DD 46 F5            	ld	b,(ix+TRACK_MacroStart+1)
    1639.  01:6833                      	
    1640.  01:6833  DD 7E F6            	ld	a,(ix+TRACK_MacroRestart)	
    1641.  01:6836  81                  	add	a,c
    1642.  01:6837  4F                  	ld	c,a
    1643.  01:6838  D2 3C 68            	jp	nc,.skip2
    1644.  01:683B  04                  	inc	b
    1645.  01:683C                      .skip2:		
    1646.  01:683C                      	;--- Store the macro start	
    1647.  01:683C  DD 71 F2            	ld	(ix+TRACK_MacroPointer),c
    1648.  01:683F  DD 70 F3            	ld	(ix+TRACK_MacroPointer+1),b		
    1649.  01:6842                      
    1650.  01:6842  C9                  	ret
    1651.  01:6843                      	
    1652.  01:6843                      _pcAY_noNoteActive:
    1653.  01:6843  AF                  	xor	a
    1654.  01:6844  32 3B C2            	ld	(SCC_regVOLE),a
    1655.  01:6847  C9                  	ret	
    1656.  01:6848                      
    1657.  01:6848                      ;---- This is for debugging only	
    1658.  01:6848                      ;stop_debug:
    1659.  01:6848                      ;	halt
    1660.  01:6848                      ;	jp	stop_debug	
    1661.  01:6848                      ;	
    1662.  01:6848                      ;PROCESS_CMDLIST:	
    1663.  01:6848                      ;[13]	dw 	stop_debug
    1664.  01:6848                      
    1665.  01:6848                      _pcAY_cmdlist:
    1666.  01:6848  AC 69               	dw	_pcAY_cmdc_wave_duty		;d
    1667.  01:684A  D9 69               	dw	_pcAY_cmdd_wave_cut		;e
    1668.  01:684C  1A 6A               	dw	_pcAY_cmde_wave_compr		;f
    1669.  01:684E  69 6A               	dw	_pcAY_cmd13_short_arp		;10
    1670.  01:6850  7A 6A               	dw	_pcAY_cmd14_fine_up		;11
    1671.  01:6852  94 6A               	dw	_pcAY_cmd15_fine_down		;12
    1672.  01:6854  BB 6A               	dw	_pcAY_cmd19_note_delay		;13
    1673.  01:6856  AE 6A               	dw	_pcAY_cmdXX_note_cut		;14
    1674.  01:6858                      	
    1675.  01:6858  7E 68               	dw	_pcAY_cmd0_arpeggio		;15
    1676.  01:685A  B5 68               	dw	_pcAY_cmd1_port_up		;16
    1677.  01:685C  C9 68               	dw	_pcAY_cmd2_port_down		;17
    1678.  01:685E  DD 68               	dw	_pcAY_cmd3_port_tone		;18
    1679.  01:6860  1E 69               	dw	_pcAY_cmd4_vibrato		;19
    1680.  01:6862  68 69               	dw	_pcAY_cmd5_vibrato_port_tone	;1a
    1681.  01:6864  6E 69               	dw	_pcAY_cmd6_vibrato_vol		;1b
    1682.  01:6866  74 69               	dw	_pcAY_cmd7_vol_slide		;1c
    1683.  01:6868  A1 69               	dw	_pcAY_cmd8_macro_offset		;1d
    1684.  01:686A  00 00               	dw	0	;env shape
    1685.  01:686C                      
    1686.  01:686C  7E 68               	dw	_pcAY_cmd0_arpeggio		;1e
    1687.  01:686E  B5 68               	dw	_pcAY_cmd1_port_up		;1f
    1688.  01:6870  C9 68               	dw	_pcAY_cmd2_port_down		;20
    1689.  01:6872  DD 68               	dw	_pcAY_cmd3_port_tone		;21
    1690.  01:6874  1E 69               	dw	_pcAY_cmd4_vibrato
    1691.  01:6876  68 69               	dw	_pcAY_cmd5_vibrato_port_tone
    1692.  01:6878  6E 69               	dw	_pcAY_cmd6_vibrato_vol
    1693.  01:687A  74 69               	dw	_pcAY_cmd7_vol_slide
    1694.  01:687C  A1 69               	dw	_pcAY_cmd8_macro_offset
    1695.  01:687E                      
    1696.  01:687E                      			
    1697.  01:687E                      _pcAY_cmd0_arpeggio:
    1698.  01:687E  DD 7E 0F            	ld	a,(ix+TRACK_Timer)
    1699.  01:6881  CB 47               	bit	0,a
    1700.  01:6883  CA 9A 68            	jp	z,.step2
    1701.  01:6886                      
    1702.  01:6886                      	;--- set x
    1703.  01:6886  DD 36 0F 02         	ld	(ix+TRACK_Timer),2
    1704.  01:688A  AF                  	xor	a
    1705.  01:688B  DD 7E 05            	ld	a,(ix+TRACK_cmd_0)
    1706.  01:688E  E6 F0               	and	0xf0
    1707.  01:6890  1F                  	rra
    1708.  01:6891  1F                  	rra
    1709.  01:6892  1F                  	rra
    1710.  01:6893  1F                  	rra
    1711.  01:6894  DD 77 0B            	ld	(ix+TRACK_cmd_NoteAdd),a		
    1712.  01:6897  C3 03 67            	jp	_pcAY_commandEND
    1713.  01:689A                      
    1714.  01:689A                      	
    1715.  01:689A                      .step2:
    1716.  01:689A  CB 4F               	bit	1,a
    1717.  01:689C  CA AE 68            	jp	z,.step3
    1718.  01:689F                      
    1719.  01:689F                      	;--- set y
    1720.  01:689F  DD 36 0F 00         	ld	(ix+TRACK_Timer),0
    1721.  01:68A3  DD 7E 05            	ld	a,(ix+TRACK_cmd_0)
    1722.  01:68A6  E6 0F               	and	0x0f
    1723.  01:68A8  DD 77 0B            	ld	(ix+TRACK_cmd_NoteAdd),a		
    1724.  01:68AB  C3 03 67            	jp	_pcAY_commandEND
    1725.  01:68AE                      	
    1726.  01:68AE                      .step3:
    1727.  01:68AE                      	;--- set none
    1728.  01:68AE  DD 36 0F 01         	ld	(ix+TRACK_Timer),1
    1729.  01:68B2  C3 03 67            	jp	_pcAY_commandEND
    1730.  01:68B5                      	
    1731.  01:68B5                      	
    1732.  01:68B5                      _pcAY_cmd1_port_up:
    1733.  01:68B5  DD 7E 06            	ld	a,(ix+TRACK_cmd_1)
    1734.  01:68B8  47                  	ld	b,a
    1735.  01:68B9  DD 7E 00            	ld	a,(ix+TRACK_cmd_ToneSlideAdd)
    1736.  01:68BC  90                  	sub	b
    1737.  01:68BD  DD 77 00            	ld	(ix+TRACK_cmd_ToneSlideAdd),a
    1738.  01:68C0  D2 03 67            	jp	nc,_pcAY_commandEND
    1739.  01:68C3  DD 35 01            	dec	(ix+TRACK_cmd_ToneSlideAdd+1)
    1740.  01:68C6  C3 03 67            	jp	_pcAY_commandEND
    1741.  01:68C9                      	
    1742.  01:68C9                      _pcAY_cmd2_port_down:
    1743.  01:68C9  DD 7E 07            	ld	a,(ix+TRACK_cmd_2)
    1744.  01:68CC  47                  	ld	b,a
    1745.  01:68CD  DD 7E 00            	ld	a,(ix+TRACK_cmd_ToneSlideAdd)
    1746.  01:68D0  80                  	add	b
    1747.  01:68D1  DD 77 00            	ld	(ix+TRACK_cmd_ToneSlideAdd),a
    1748.  01:68D4  D2 03 67            	jp	nc,_pcAY_commandEND
    1749.  01:68D7  DD 34 01            	inc	(ix+TRACK_cmd_ToneSlideAdd+1)
    1750.  01:68DA  C3 03 67            	jp	_pcAY_commandEND
    1751.  01:68DD                      
    1752.  01:68DD                      
    1753.  01:68DD                      _pcAY_cmd3_port_tone:
    1754.  01:68DD  DD 7E 08            	ld	a,(ix+TRACK_cmd_3)
    1755.  01:68E0  DD 6E 00            	ld	l,(ix+TRACK_cmd_ToneSlideAdd)
    1756.  01:68E3  DD 66 01            	ld	h,(ix+TRACK_cmd_ToneSlideAdd+1)
    1757.  01:68E6  CB 7C               	bit	7,h
    1758.  01:68E8  CA FE 68            	jp	z,_pcAY_cmd3_sub
    1759.  01:68EB                      _pcAY_cmd3_add:
    1760.  01:68EB                      	;pos slide
    1761.  01:68EB  85                  	add	a,l
    1762.  01:68EC  DD 77 00            	ld	(ix+TRACK_cmd_ToneSlideAdd),a
    1763.  01:68EF  D2 03 67            	jp	nc,_pcAY_commandEND
    1764.  01:68F2  24                  	inc	h					
    1765.  01:68F3  CB 7C               	bit	7,h
    1766.  01:68F5  CA 11 69            	jp	z,_pcAY_cmd3_stop			; delta turned pos ?
    1767.  01:68F8  DD 74 01            	ld	(ix+TRACK_cmd_ToneSlideAdd+1),h
    1768.  01:68FB  C3 03 67            	jp	_pcAY_commandEND
    1769.  01:68FE                      _pcAY_cmd3_sub:
    1770.  01:68FE                      	;negative slide	
    1771.  01:68FE  4F                  	ld	c,a
    1772.  01:68FF  AF                  	xor	a
    1773.  01:6900  47                  	ld	b,a
    1774.  01:6901  ED 42               	sbc	hl,bc
    1775.  01:6903  CB 7C               	bit	7,h
    1776.  01:6905  C2 11 69            	jp	nz,_pcAY_cmd3_stop			; delta turned neg ?
    1777.  01:6908  DD 75 00            	ld	(ix+TRACK_cmd_ToneSlideAdd),l
    1778.  01:690B  DD 74 01            	ld	(ix+TRACK_cmd_ToneSlideAdd+1),h
    1779.  01:690E  C3 03 67            	jp	_pcAY_commandEND
    1780.  01:6911                      _pcAY_cmd3_stop:	
    1781.  01:6911  CB 9A               	res	B_TRGCMD,d		;(ix+TRACK_Flags)
    1782.  01:6913  DD 36 00 00         	ld	(ix+TRACK_cmd_ToneSlideAdd),0
    1783.  01:6917  DD 36 01 00         	ld	(ix+TRACK_cmd_ToneSlideAdd+1),0	
    1784.  01:691B  C3 03 67            	jp	_pcAY_commandEND
    1785.  01:691E                      
    1786.  01:691E                      
    1787.  01:691E                      	;-- vibrato	
    1788.  01:691E                      _pcAY_cmd4_vibrato:
    1789.  01:691E  2A 16 C0            	ld	hl,(replay_vib_table)
    1790.  01:6921                      	;--- Get next step
    1791.  01:6921  DD 7E 10            	ld	a,(IX+TRACK_Step)
    1792.  01:6924  DD 86 0A            	add	(ix+TRACK_cmd_4_step)
    1793.  01:6927  E6 3F               	and	$3F			; max	32
    1794.  01:6929  DD 77 10            	ld	(ix+TRACK_Step),a
    1795.  01:692C                      	
    1796.  01:692C  CB 6F               	bit	5,a			; step 32-63 the neg	
    1797.  01:692E  CA 50 69            	jp	z,_pcAY_cmd4pos
    1798.  01:6931                      
    1799.  01:6931                      ; neg	
    1800.  01:6931  E6 1F               	and	$1f
    1801.  01:6933  85                  	add	l
    1802.  01:6934  6F                  	ld	l,a
    1803.  01:6935  D2 39 69            	jp	nc,.skip
    1804.  01:6938  24                  	inc	h
    1805.  01:6939                      .skip:
    1806.  01:6939  7E                  	ld	a,(hl)
    1807.  01:693A                      	;apply depth
    1808.  01:693A  DD 46 09            	ld	b,(ix+TRACK_cmd_4_depth)
    1809.  01:693D                      .loop:
    1810.  01:693D  CB 3F               	srl	a
    1811.  01:693F  10 FC               	djnz	.loop
    1812.  01:6941                      ;	and	$0f
    1813.  01:6941                      
    1814.  01:6941  ED 44               	neg
    1815.  01:6943  CA 5E 69            	jp	z,_pcAY_cmd4_zero			; $ff00 gives strange result ;)	
    1816.  01:6946  DD 77 02            	ld	(ix+TRACK_cmd_ToneAdd),a
    1817.  01:6949  DD 36 03 FF         	ld	(ix+TRACK_cmd_ToneAdd+1),0xff
    1818.  01:694D  C3 03 67            	jp	_pcAY_commandEND
    1819.  01:6950                      
    1820.  01:6950                      _pcAY_cmd4pos:	
    1821.  01:6950                      ;	and	$1f
    1822.  01:6950  85                  	add	l
    1823.  01:6951  6F                  	ld	l,a
    1824.  01:6952  D2 56 69            	jp	nc,.skip
    1825.  01:6955  24                  	inc	h
    1826.  01:6956                      .skip:
    1827.  01:6956  7E                  	ld	a,(hl)
    1828.  01:6957                      	;apply depth
    1829.  01:6957  DD 46 09            	ld	b,(ix+TRACK_cmd_4_depth)
    1830.  01:695A                      .loop:
    1831.  01:695A  CB 3F               	srl	a
    1832.  01:695C  10 FC               	djnz	.loop
    1833.  01:695E                      _pcAY_cmd4_zero:
    1834.  01:695E  DD 77 02            	ld	(ix+TRACK_cmd_ToneAdd),a
    1835.  01:6961  DD 36 03 00         	ld	(ix+TRACK_cmd_ToneAdd+1),0
    1836.  01:6965  C3 03 67            	jp	_pcAY_commandEND
    1837.  01:6968                      		
    1838.  01:6968                      	
    1839.  01:6968                      
    1840.  01:6968                      _pcAY_cmd5_vibrato_port_tone:
    1841.  01:6968  CD 7A 69            	call	_pcAY_cmdasub
    1842.  01:696B  C3 DD 68            	jp	_pcAY_cmd3_port_tone
    1843.  01:696E                      	
    1844.  01:696E                      _pcAY_cmd6_vibrato_vol:
    1845.  01:696E  CD 7A 69            	call	_pcAY_cmdasub
    1846.  01:6971  C3 1E 69            	jp	_pcAY_cmd4_vibrato	
    1847.  01:6974                      
    1848.  01:6974                      _pcAY_cmd7_vol_slide:
    1849.  01:6974  CD 7A 69            	call	_pcAY_cmdasub
    1850.  01:6977  C3 03 67            	jp	_pcAY_commandEND
    1851.  01:697A                      
    1852.  01:697A                      _pcAY_cmdasub:
    1853.  01:697A  DD 35 0F            	dec	(ix+TRACK_Timer)
    1854.  01:697D  C0                  	ret	nz
    1855.  01:697E                      		
    1856.  01:697E                      	; vol	slide
    1857.  01:697E  DD 7E 0C            	ld	a,(ix+TRACK_cmd_A)
    1858.  01:6981  4F                  	ld	c,a
    1859.  01:6982  E6 7F               	and	$7f
    1860.  01:6984  DD 77 0F            	ld	(ix+TRACK_Timer),a
    1861.  01:6987                      
    1862.  01:6987  DD 7E FF            	ld	a,(IX+TRACK_cmd_VolumeAdd)
    1863.  01:698A  CB 79               	bit	7,c
    1864.  01:698C  CA 98 69            	jp	z,_pcAY_cmda_inc
    1865.  01:698F                      _pcAY_cmda_dec:
    1866.  01:698F  FE 88               	cp	0x88
    1867.  01:6991  C8                  	ret	z
    1868.  01:6992  D6 08               	sub	8
    1869.  01:6994  DD 77 FF            	ld	(ix+TRACK_cmd_VolumeAdd),a
    1870.  01:6997  C9                  	ret
    1871.  01:6998                      _pcAY_cmda_inc:
    1872.  01:6998  FE 78               	cp	0x78
    1873.  01:699A  C8                  	ret	z
    1874.  01:699B  C6 08               	add	8	
    1875.  01:699D  DD 77 FF            	ld	(ix+TRACK_cmd_VolumeAdd),a
    1876.  01:69A0  C9                  	ret
    1877.  01:69A1                      	
    1878.  01:69A1                      _pcAY_cmd8_macro_offset:
    1879.  01:69A1  DD 35 0F            	dec	(ix+TRACK_Timer)
    1880.  01:69A4  C2 03 67            	jp	nz,_pcAY_commandEND
    1881.  01:69A7  CB 9A               	res	B_TRGCMD,d			;(ix+TRACK_Flags)
    1882.  01:69A9  C3 03 67            	jp	_pcAY_commandEND
    1883.  01:69AC                      
    1884.  01:69AC                      
    1885.  01:69AC                      _pcAY_cmdc_wave_duty:
    1886.  01:69AC                      	;=================
    1887.  01:69AC                      	; Waveform PWM / Duty Cycle
    1888.  01:69AC                      	;=================
    1889.  01:69AC  CB 9A               	res	B_TRGCMD,d			;(ix+TRACK_Flags)	; reset command
    1890.  01:69AE  CB B2               	res	B_TRGWAV,d			;(ix+TRACK_Flags)	; reset normal wave update
    1891.  01:69B0                      
    1892.  01:69B0                      	;get the waveform	start	in [DE]
    1893.  01:69B0  21 AD C1            	ld	hl,_0x9800
    1894.  01:69B3  FD 7C               	ld	a,iyh		;ixh contains chan#
    1895.  01:69B5  0F                  	rrca			; a mac value is 4 so
    1896.  01:69B6  0F                  	rrca			; 3 times rrca is	X32
    1897.  01:69B7  0F                  	rrca			; max	result is 128.
    1898.  01:69B8  85                  	add	a,l
    1899.  01:69B9  6F                  	ld	l,a
    1900.  01:69BA  D2 BE 69            	jp	nc,.skip
    1901.  01:69BD  24                  	inc	h
    1902.  01:69BE                      .skip:
    1903.  01:69BE  DD 46 0D            	ld	b,(ix+TRACK_cmd_B)
    1904.  01:69C1  04                  	inc	b
    1905.  01:69C2                      
    1906.  01:69C2  0E 60               	ld	c,96	
    1907.  01:69C4  3E 20               	ld	a,32
    1908.  01:69C6  90                  	sub	b
    1909.  01:69C7                      _wspw_loop_h:
    1910.  01:69C7  71                  	ld	(hl),c
    1911.  01:69C8  23                  	inc	hl
    1912.  01:69C9  10 FC               	djnz	_wspw_loop_h
    1913.  01:69CB                      	
    1914.  01:69CB  A7                  	and	a
    1915.  01:69CC  CA 03 67            	jp	z,_pcAY_commandEND
    1916.  01:69CF                      	
    1917.  01:69CF  0E A0               	ld	c,-96
    1918.  01:69D1  47                  	ld	b,a
    1919.  01:69D2                      _wspw_loop_l:
    1920.  01:69D2  71                  	ld	(hl),c
    1921.  01:69D3  23                  	inc	hl
    1922.  01:69D4  10 FC               	djnz	_wspw_loop_l
    1923.  01:69D6                      
    1924.  01:69D6  C3 03 67            	jp	_pcAY_commandEND
    1925.  01:69D9                      	
    1926.  01:69D9                      	
    1927.  01:69D9                      	
    1928.  01:69D9                      _pcAY_cmdd_wave_cut:
    1929.  01:69D9                      	;=================
    1930.  01:69D9                      	; Waveform Cut
    1931.  01:69D9                      	;=================
    1932.  01:69D9                      
    1933.  01:69D9  CB 9A               	res	B_TRGCMD,d		;(ix+TRACK_Flags)	; reset command
    1934.  01:69DB  CB B2               	res	B_TRGWAV,d		;(ix+TRACK_Flags)	; reset normal wave update
    1935.  01:69DD  7A                  	ld	a,d
    1936.  01:69DE  08                  	ex	AF,AF;'
    1937.  01:69DF                      
    1938.  01:69DF                      	;get the waveform	start	in [DE]
    1939.  01:69DF  11 AD C1            	ld	de,_0x9800
    1940.  01:69E2  FD 7C               	ld	a,iyh		;ixh contains chan#
    1941.  01:69E4  0F                  	rrca			; a mac value is 4 so
    1942.  01:69E5  0F                  	rrca			; 3 times rrca is	X32
    1943.  01:69E6  0F                  	rrca			; max	result is 128.
    1944.  01:69E7  83                  	add	a,e
    1945.  01:69E8  5F                  	ld	e,a
    1946.  01:69E9  D2 ED 69            	jp	nc,.skip
    1947.  01:69EC  14                  	inc	d
    1948.  01:69ED                      .skip:
    1949.  01:69ED  DD 7E F0            	ld	a,(ix+TRACK_Waveform)
    1950.  01:69F0  87                  	add	a,a
    1951.  01:69F1  87                  	add	a,a
    1952.  01:69F2  87                  	add	a,a	
    1953.  01:69F3                      
    1954.  01:69F3  6F                  	ld	l,a
    1955.  01:69F4  26 00               	ld	h,0
    1956.  01:69F6  29                  	add	hl,hl
    1957.  01:69F7  29                  	add	hl,hl
    1958.  01:69F8                      		
    1959.  01:69F8  ED 4B 06 C0         	ld	  bc,(replay_wavebase)
    1960.  01:69FC  09                  	add	  hl,bc
    1961.  01:69FD                      
    1962.  01:69FD  DD 7E 0D            	ld	a,(ix+TRACK_cmd_B)
    1963.  01:6A00  3C                  	inc	a
    1964.  01:6A01  87                  	add	a
    1965.  01:6A02  4F                  	ld	c,a
    1966.  01:6A03  06 00               	ld	b,0
    1967.  01:6A05  ED B0               	ldir
    1968.  01:6A07                      	
    1969.  01:6A07  EB                  	EX	DE,HL
    1970.  01:6A08  08                  	EX	AF,AF'		;'
    1971.  01:6A09  57                  	LD	D,A
    1972.  01:6A0A                      	
    1973.  01:6A0A  D6 20               	sub	32
    1974.  01:6A0C  ED 44               	neg	
    1975.  01:6A0E  CA 03 67            	jp	z,_pcAY_commandEND	
    1976.  01:6A11                      	
    1977.  01:6A11  47                  	ld	b,a
    1978.  01:6A12  AF                  	xor	a
    1979.  01:6A13                      _wsc_l:
    1980.  01:6A13  77                  	ld	(HL),a
    1981.  01:6A14  23                  	inc	HL
    1982.  01:6A15  10 FC               	djnz	_wsc_l
    1983.  01:6A17                      	
    1984.  01:6A17  C3 03 67            	jp	_pcAY_commandEND
    1985.  01:6A1A                      		
    1986.  01:6A1A                      	
    1987.  01:6A1A                      	
    1988.  01:6A1A                      _pcAY_cmde_wave_compr:
    1989.  01:6A1A                      	;=================
    1990.  01:6A1A                      	; Waveform Compress
    1991.  01:6A1A                      	;=================
    1992.  01:6A1A  CB 9A               	res	B_TRGCMD,d	;(ix+TRACK_Flags)	; reset command
    1993.  01:6A1C  CB B2               	res	B_TRGWAV,d	;(ix+TRACK_Flags)	; reset normal wave update
    1994.  01:6A1E  7A                  	ld	a,d
    1995.  01:6A1F  08                  	ex	AF,AF;'
    1996.  01:6A20                      	
    1997.  01:6A20                      	;get the waveform	start	in [DE]
    1998.  01:6A20  11 AD C1            	ld	de,_0x9800
    1999.  01:6A23  FD 7C               	ld	a,iyh		;ixh contains chan#
    2000.  01:6A25  0F                  	rrca			; a mac value is 4 so
    2001.  01:6A26  0F                  	rrca			; 3 times rrca is	X32
    2002.  01:6A27  0F                  	rrca			; max	result is 128.
    2003.  01:6A28  83                  	add	a,e
    2004.  01:6A29  5F                  	ld	e,a
    2005.  01:6A2A  D2 2E 6A            	jp	nc,.skip
    2006.  01:6A2D  14                  	inc	d
    2007.  01:6A2E                      .skip:
    2008.  01:6A2E  DD 7E F0            	ld	a,(ix+TRACK_Waveform)
    2009.  01:6A31  87                  	add	a,a
    2010.  01:6A32  87                  	add	a,a
    2011.  01:6A33  87                  	add	a,a	
    2012.  01:6A34                      
    2013.  01:6A34  6F                  	ld	l,a
    2014.  01:6A35  26 00               	ld	h,0
    2015.  01:6A37  29                  	add	hl,hl
    2016.  01:6A38  29                  	add	hl,hl
    2017.  01:6A39                      		
    2018.  01:6A39  ED 4B 06 C0         	ld	  bc,(replay_wavebase)
    2019.  01:6A3D  09                  	add	  hl,bc
    2020.  01:6A3E                      
    2021.  01:6A3E  DD 7E 0D            	ld	a,(ix+TRACK_cmd_B)
    2022.  01:6A41  01 40 00            	ld	bc,0x0040
    2023.  01:6A44  0F                  	rrca	; x32
    2024.  01:6A45  0F                  	rrca
    2025.  01:6A46  0F                  	rrca
    2026.  01:6A47  C6 1F               	add	31
    2027.  01:6A49  FD 6F               	ld	iyl,a		; fraction
    2028.  01:6A4B  AF                  	xor	a	
    2029.  01:6A4C                      _wcomp_loop:
    2030.  01:6A4C  ED A0               	ldi			
    2031.  01:6A4E  0D                  	dec	c
    2032.  01:6A4F  CA 5E 6A            	jp	z,.skip
    2033.  01:6A52  FD 85               	add	iyl
    2034.  01:6A54  D2 4C 6A            	jp	nc,_wcomp_loop
    2035.  01:6A57  23                  	inc	hl
    2036.  01:6A58  04                  	inc	b
    2037.  01:6A59  0D                  	dec	c
    2038.  01:6A5A  0D                  	dec	c
    2039.  01:6A5B  C2 4C 6A            	jp	nz,_wcomp_loop
    2040.  01:6A5E                      	
    2041.  01:6A5E                      	;--- remaining data
    2042.  01:6A5E                      .skip:
    2043.  01:6A5E  2B                  	dec	hl
    2044.  01:6A5F  7E                  	ld	a,(hl)
    2045.  01:6A60                      .loop:
    2046.  01:6A60  12                  	ld	(de),a
    2047.  01:6A61  13                  	inc	de
    2048.  01:6A62  10 FC               	djnz	.loop
    2049.  01:6A64                      	
    2050.  01:6A64  08                  	EX	AF,AF'		;'
    2051.  01:6A65  57                  	LD	D,A	
    2052.  01:6A66  C3 03 67            	jp	_pcAY_commandEND		
    2053.  01:6A69                      	
    2054.  01:6A69                      
    2055.  01:6A69                      _pcAY_cmd13_short_arp:
    2056.  01:6A69  DD 35 0F            	dec	(ix+TRACK_Timer)
    2057.  01:6A6C  CB 42               	bit	B_TRGNOT,d		;(ix+TRACK_Timer)
    2058.  01:6A6E  CA 03 67            	jp	z,_pcAY_commandEND
    2059.  01:6A71  DD 7E 0E            	ld	a,(ix+TRACK_cmd_E)
    2060.  01:6A74  DD 77 0B            	ld	(ix+TRACK_cmd_NoteAdd),a		
    2061.  01:6A77  C3 03 67            	jp	_pcAY_commandEND
    2062.  01:6A7A                      
    2063.  01:6A7A                      _pcAY_cmd14_fine_up:
    2064.  01:6A7A  DD 35 0F            	dec	(ix+TRACK_Timer)
    2065.  01:6A7D  C2 03 67            	jp	nz,_pcAY_commandEND
    2066.  01:6A80                      
    2067.  01:6A80  CB 9A               	res	B_TRGCMD,d			;(ix+TRACK_Flags)
    2068.  01:6A82  DD 7E 00            	ld	a,(ix+TRACK_cmd_ToneSlideAdd)
    2069.  01:6A85  DD 86 0E            	add	(ix+TRACK_cmd_E)
    2070.  01:6A88  DD 77 00            	ld	(ix+TRACK_cmd_ToneSlideAdd),a
    2071.  01:6A8B  D2 03 67            	jp	nc,_pcAY_commandEND	
    2072.  01:6A8E  DD 34 01            	inc	(ix+TRACK_cmd_ToneSlideAdd+1)
    2073.  01:6A91  C3 03 67            	jp	_pcAY_commandEND	
    2074.  01:6A94                      
    2075.  01:6A94                      _pcAY_cmd15_fine_down:
    2076.  01:6A94  DD 35 0F            	dec	(ix+TRACK_Timer)
    2077.  01:6A97  C2 03 67            	jp	nz,_pcAY_commandEND
    2078.  01:6A9A                      
    2079.  01:6A9A  CB 9A               	res	B_TRGCMD,d		;(ix+TRACK_Flags)
    2080.  01:6A9C  DD 7E 00            	ld	a,(ix+TRACK_cmd_ToneSlideAdd)
    2081.  01:6A9F  DD 96 0E            	sub	(ix+TRACK_cmd_E)
    2082.  01:6AA2  DD 77 00            	ld	(ix+TRACK_cmd_ToneSlideAdd),a
    2083.  01:6AA5  D2 03 67            	jp	nc,_pcAY_commandEND	
    2084.  01:6AA8  DD 35 01            	dec	(ix+TRACK_cmd_ToneSlideAdd+1)
    2085.  01:6AAB  C3 03 67            	jp	_pcAY_commandEND	
    2086.  01:6AAE                      
    2087.  01:6AAE                      
    2088.  01:6AAE                      _pcAY_cmdXX_note_cut:
    2089.  01:6AAE  DD 35 0F            	dec	(ix+TRACK_Timer)
    2090.  01:6AB1  C2 03 67            	jp	nz,_pcAY_commandEND
    2091.  01:6AB4                      	
    2092.  01:6AB4                      	; stop note
    2093.  01:6AB4  CB 9A               	res	B_TRGCMD,d	; set	note bit to	0
    2094.  01:6AB6  CB 82               	res	B_TRGNOT,d
    2095.  01:6AB8  C3 03 67            	jp	_pcAY_commandEND		
    2096.  01:6ABB                      	
    2097.  01:6ABB                      _pcAY_cmd19_note_delay:
    2098.  01:6ABB                      	; note delay
    2099.  01:6ABB  DD 35 0F            	dec	(ix+TRACK_Timer)
    2100.  01:6ABE  C2 03 67            	jp	nz,_pcAY_commandEND	; no delay yet
    2101.  01:6AC1                      
    2102.  01:6AC1                      	; trigger note
    2103.  01:6AC1  DD 7E 0E            	ld	a,(ix+TRACK_cmd_E)		
    2104.  01:6AC4  DD 77 F7            	ld	(ix+TRACK_Note),a		; set	the note val
    2105.  01:6AC7  CB C2               	set	B_TRGNOT,d	;(ix+TRACK_Flags)		; set	trigger note flag
    2106.  01:6AC9  CB 9A               	res	B_TRGCMD,d	;(ix+TRACK_Flags)		; reset tiggger cmd flag
    2107.  01:6ACB                      	
    2108.  01:6ACB  C3 03 67            	jp	_pcAY_commandEND	
    2109.  01:6ACE                      
    2110.  01:6ACE                      
    2111.  01:6ACE                      
    2112.  01:6ACE                      ;===========================================================
    2113.  01:6ACE                      ; ---replay_route
    2114.  01:6ACE                      ; Output the data	to the CHIP	registers
    2115.  01:6ACE                      ; 
    2116.  01:6ACE                      ; 
    2117.  01:6ACE                      ;===========================================================
    2118.  01:6ACE                      replay_route:
    2119.  01:6ACE                      ;---------------
    2120.  01:6ACE                      ; P S	G 
    2121.  01:6ACE                      ;---------------
    2122.  01:6ACE                      	;--- Push values to AY HW
    2123.  01:6ACE  06 00               	ld	b,0
    2124.  01:6AD0  0E A0               	ld	c,0xa0
    2125.  01:6AD2  21 9F C1            	ld	hl,AY_registers
    2126.  01:6AD5                      _comp_loop:	
    2127.  01:6AD5  ED 41               	out	(c),b
    2128.  01:6AD7  7E                  	ld	a,(hl)
    2129.  01:6AD8  C6 01               	add	1
    2130.  01:6ADA  D3 A1               	out	(0xa1),a
    2131.  01:6ADC  23                  	inc	hl
    2132.  01:6ADD  7E                  	ld	a,(hl)
    2133.  01:6ADE  CE 00               	adc	a,0
    2134.  01:6AE0  04                  	inc	b
    2135.  01:6AE1  ED 41               	out	(c),b	
    2136.  01:6AE3  23                  	inc	hl
    2137.  01:6AE4  D3 A1               	out	(0xa1),a	
    2138.  01:6AE6  04                  	inc	b
    2139.  01:6AE7  3E 06               	ld	a,6
    2140.  01:6AE9  B8                  	cp	b
    2141.  01:6AEA  C2 D5 6A            	jp	nz,_comp_loop
    2142.  01:6AED                      	
    2143.  01:6AED  78                  	ld	a,b	
    2144.  01:6AEE                      	
    2145.  01:6AEE                      	
    2146.  01:6AEE                      _ptAY_loop:
    2147.  01:6AEE  ED 79               	out	(c),a
    2148.  01:6AF0  0C                  	inc	c
    2149.  01:6AF1  ED A3               	outi
    2150.  01:6AF3  0D                  	dec	c
    2151.  01:6AF4  3C                  	inc	a
    2152.  01:6AF5  FE 0D               	cp	13
    2153.  01:6AF7  20 F5               	jr	nz,_ptAY_loop
    2154.  01:6AF9                      
    2155.  01:6AF9  47                  	ld	b,a
    2156.  01:6AFA  7E                  	ld	a,(hl)
    2157.  01:6AFB  A7                  	and	a
    2158.  01:6AFC  CA 06 6B            	jp	z,_ptAY_noEnv
    2159.  01:6AFF  ED 41               	out	(c),b
    2160.  01:6B01  0C                  	inc	c
    2161.  01:6B02  ED 79               	out 	(c),a
    2162.  01:6B04  36 00               	ld	(hl),0	;reset the envwrite
    2163.  01:6B06                      	
    2164.  01:6B06                      	
    2165.  01:6B06                      _ptAY_noEnv:
    2166.  01:6B06                      ;--------------
    2167.  01:6B06                      ; S C	C 
    2168.  01:6B06                      ;--------------
    2169.  01:6B06  3E 3F               	ld  a,03Fh				; enable SCC
    2170.  01:6B08  32 00 90            	ld  (0x9000),a
    2171.  01:6B0B                      
    2172.  01:6B0B                      	;--- Set the waveforms
    2173.  01:6B0B  21 DB C0            	ld	hl,TRACK_Chan4+17+TRACK_Flags
    2174.  01:6B0E  CB 76               	bit	B_TRGWAV,(hl)
    2175.  01:6B10  CA 1E 6B            	jp	z,.skip
    2176.  01:6B13                      	;--- set wave form
    2177.  01:6B13  CB B6               	res	B_TRGWAV,(hl)
    2178.  01:6B15  3A D2 C0            	ld	a,(TRACK_Chan4+17+TRACK_Waveform)
    2179.  01:6B18  11 00 98            	ld	de,0x9800
    2180.  01:6B1B  CD 76 6B            	call	_write_SCC_wave
    2181.  01:6B1E                      .skip:
    2182.  01:6B1E  21 01 C1            	ld	hl,TRACK_Chan5+17+TRACK_Flags
    2183.  01:6B21  CB 76               	bit	B_TRGWAV,(hl)
    2184.  01:6B23  CA 31 6B            	jp	z,.skip2
    2185.  01:6B26                      	;--- set wave form
    2186.  01:6B26  CB B6               	res	B_TRGWAV,(hl)
    2187.  01:6B28  3A F8 C0            	ld	a,(TRACK_Chan5+17+TRACK_Waveform)
    2188.  01:6B2B  11 20 98            	ld	de,0x9820
    2189.  01:6B2E  CD 76 6B            	call	_write_SCC_wave
    2190.  01:6B31                      .skip2:
    2191.  01:6B31  21 27 C1            	ld	hl,TRACK_Chan6+17+TRACK_Flags
    2192.  01:6B34  CB 76               	bit	B_TRGWAV,(hl)
    2193.  01:6B36  CA 44 6B            	jp	z,.skip3
    2194.  01:6B39                      	;--- set wave form
    2195.  01:6B39  CB B6               	res	B_TRGWAV,(hl)
    2196.  01:6B3B  3A 1E C1            	ld	a,(TRACK_Chan6+17+TRACK_Waveform)
    2197.  01:6B3E  11 40 98            	ld	de,0x9840
    2198.  01:6B41  CD 76 6B            	call	_write_SCC_wave
    2199.  01:6B44                      .skip3:
    2200.  01:6B44  21 4D C1            	ld	hl,TRACK_Chan7+17+TRACK_Flags
    2201.  01:6B47  CB 76               	bit	B_TRGWAV,(hl)
    2202.  01:6B49  CA 57 6B            	jp	z,.skip4
    2203.  01:6B4C                      	;--- set wave form
    2204.  01:6B4C  CB B6               	res	B_TRGWAV,(hl)
    2205.  01:6B4E  3A 44 C1            	ld	a,(TRACK_Chan7+17+TRACK_Waveform)
    2206.  01:6B51  11 60 98            	ld	de,0x9860
    2207.  01:6B54  CD 76 6B            	call	_write_SCC_wave
    2208.  01:6B57                      .skip4:
    2209.  01:6B57                      
    2210.  01:6B57                      scc_reg_update:
    2211.  01:6B57                      
    2212.  01:6B57  3E 3F               	ld  a,03Fh				; enable SCC
    2213.  01:6B59  32 00 90            	ld  (0x9000),a
    2214.  01:6B5C                      
    2215.  01:6B5C                      	;--- Update changed SCC registers.
    2216.  01:6B5C  21 3D C2            	ld hl,oldregs
    2217.  01:6B5F  11 2D C2            	ld de,SCC_registers
    2218.  01:6B62  01 80 98            	ld bc,0x9880
    2219.  01:6B65  3E 10               	ld a,3*5+1
    2220.  01:6B67                      loop:
    2221.  01:6B67  08                  	ex af,af'	;'
    2222.  01:6B68  1A                  	ld a,(de)
    2223.  01:6B69  BE                  	cp (hl)
    2224.  01:6B6A  28 02               	jr z,.skip
    2225.  01:6B6C  77                  	ld (hl),a	     ; update old	registers in ram
    2226.  01:6B6D  02                  	ld (bc),a	     ; update scc	registers
    2227.  01:6B6E                      .skip:	    
    2228.  01:6B6E  23                  	inc hl
    2229.  01:6B6F  13                  	inc de
    2230.  01:6B70  03                  	inc bc
    2231.  01:6B71  08                  	ex af,af'		;'
    2232.  01:6B72  3D                  	dec a
    2233.  01:6B73  20 F2               	jr nz, loop
    2234.  01:6B75  C9                  	ret
    2235.  01:6B76                      
    2236.  01:6B76                      	
    2237.  01:6B76                      	
    2238.  01:6B76                      ;==================
    2239.  01:6B76                      ; _write_SCC_wave
    2240.  01:6B76                      ;
    2241.  01:6B76                      ; Writes waveform	data.	[DE] contains location for data
    2242.  01:6B76                      ; [A]	contains waveform	number + flags for special actions
    2243.  01:6B76                      ; Data is not written to SCC but into RAM	shadow registers.
    2244.  01:6B76                      ;==================
    2245.  01:6B76                      _write_SCC_wave:
    2246.  01:6B76  CB 66               	bit	B_ACTMOR,(hl)
    2247.  01:6B78  C2 8E 6B            	jp	nz,_write_SCC_special
    2248.  01:6B7B  87                  	add	a,a
    2249.  01:6B7C  87                  	add	a,a
    2250.  01:6B7D  87                  	add	a,a	
    2251.  01:6B7E                      
    2252.  01:6B7E  6F                  	ld	l,a
    2253.  01:6B7F  26 00               	ld	h,0
    2254.  01:6B81  29                  	add	hl,hl
    2255.  01:6B82  29                  	add	hl,hl
    2256.  01:6B83                      		
    2257.  01:6B83  ED 4B 06 C0         	ld	  bc,(replay_wavebase)
    2258.  01:6B87  09                  	add	  hl,bc
    2259.  01:6B88  01 20 00            	ld	  bc,32
    2260.  01:6B8B  ED B0               	ldir
    2261.  01:6B8D                      
    2262.  01:6B8D  C9                  	ret
    2263.  01:6B8E                      
    2264.  01:6B8E                      
    2265.  01:6B8E                      _write_SCC_special:
    2266.  01:6B8E  21 1F C0            	ld	hl,replay_morph_buffer+1
    2267.  01:6B91  06 20               	ld	b,32
    2268.  01:6B93                      _wss_l:
    2269.  01:6B93  7E                  	ld	a,(hl)
    2270.  01:6B94  12                  	ld	(de),a
    2271.  01:6B95  23                  	inc	hl
    2272.  01:6B96  23                  	inc	hl
    2273.  01:6B97  13                  	inc	de
    2274.  01:6B98  10 F9               	djnz	_wss_l
    2275.  01:6B9A                      	 
    2276.  01:6B9A                      	
    2277.  01:6B9A  C9                  	ret
    2278.  01:6B9B                      
    2279.  01:6B9B                      	
    2280.  01:6B9B                      ;=============
    2281.  01:6B9B                      ; in [A] the morph active status	
    2282.  01:6B9B                      replay_process_morph:
    2283.  01:6B9B  21 1B C0            	ld	hl,replay_morph_timer
    2284.  01:6B9E  35                  	dec	(hl)
    2285.  01:6B9F  C0                  	ret	nz
    2286.  01:6BA0                      	
    2287.  01:6BA0                      	;---- not sure what to do with this.
    2288.  01:6BA0                      	; trigger any waveform updates
    2289.  01:6BA0  06 04               	ld	b,4
    2290.  01:6BA2  11 26 00            	ld	de,TRACK_REC_SIZE
    2291.  01:6BA5  21 DB C0            	ld	hl,TRACK_Chan4+17+TRACK_Flags
    2292.  01:6BA8                      .loop:	
    2293.  01:6BA8  CB 66               	bit 	B_ACTMOR,(hl)
    2294.  01:6BAA  CA AF 6B            	jp	z,.skip
    2295.  01:6BAD  CB F6               	set	B_TRGWAV,(hl)
    2296.  01:6BAF                      .skip:
    2297.  01:6BAF  19                  	add	hl,de
    2298.  01:6BB0  10 F6               	djnz	.loop	
    2299.  01:6BB2                      	
    2300.  01:6BB2                      	
    2301.  01:6BB2                      	;---- timer ended.
    2302.  01:6BB2  3C                  	inc	a
    2303.  01:6BB3  C2 01 6C            	jp	nz,_rpm_next_step		; if status was !=255 then skip init
    2304.  01:6BB6                      
    2305.  01:6BB6                      	;---- calculate offset
    2306.  01:6BB6  3C                  	inc	a		
    2307.  01:6BB7  32 1A C0            	ld	(replay_morph_active),a		; set status to 1
    2308.  01:6BBA                      ;	ld	(replay_morph_update),a		; after this update the waveforms of the SCC
    2309.  01:6BBA                      
    2310.  01:6BBA  3A 1C C0            	ld	a,(replay_morph_speed)
    2311.  01:6BBD  32 1B C0            	ld	(replay_morph_timer),a
    2312.  01:6BC0                      	
    2313.  01:6BC0                      
    2314.  01:6BC0                      	;--- calculate the delta's
    2315.  01:6BC0  11 1E C0            	ld	de,replay_morph_buffer
    2316.  01:6BC3  2A 06 C0            	ld	hl,(replay_wavebase)
    2317.  01:6BC6  3A 5E C0            	ld	a,(replay_morph_waveform)
    2318.  01:6BC9  87                  	add	a
    2319.  01:6BCA  D2 CE 6B            	jp	nc,.skip2
    2320.  01:6BCD  24                  	inc	h
    2321.  01:6BCE                      .skip2:
    2322.  01:6BCE  85                  	add	a,l
    2323.  01:6BCF  6F                  	ld	l,a
    2324.  01:6BD0  D2 D4 6B            	jp	nc,.skip3
    2325.  01:6BD3  24                  	inc	h
    2326.  01:6BD4                      .skip3:	
    2327.  01:6BD4                      	;---- start calculating
    2328.  01:6BD4  06 20               	ld	b,32		; 32 values
    2329.  01:6BD6                      _rpm_loop:	
    2330.  01:6BD6  13                  	inc	de
    2331.  01:6BD7  1A                  	ld	a,(de)
    2332.  01:6BD8  1B                  	dec	de
    2333.  01:6BD9  C6 80               	add	a,128
    2334.  01:6BDB  4F                  	ld	c,a
    2335.  01:6BDC  7E                  	ld	a,(hl)
    2336.  01:6BDD  C6 80               	add	a,128
    2337.  01:6BDF  B9                  	cp	c
    2338.  01:6BE0  DA F1 6B            	jp	c,_rpm_smaller		; dest is smaller
    2339.  01:6BE3                      
    2340.  01:6BE3                      	
    2341.  01:6BE3                      _rpm_larger:
    2342.  01:6BE3  91                  	sub	c
    2343.  01:6BE4  0F                  	rrca
    2344.  01:6BE5  0F                  	rrca
    2345.  01:6BE6  0F                  	rrca
    2346.  01:6BE7  0F                  	rrca
    2347.  01:6BE8  E6 EF               	and	$ef		; reset bit 5
    2348.  01:6BEA  12                  	ld	(de),a
    2349.  01:6BEB                      	
    2350.  01:6BEB  13                  	inc	de
    2351.  01:6BEC  13                  	inc	de
    2352.  01:6BED  23                  	inc	hl
    2353.  01:6BEE  10 E6               	djnz	_rpm_loop
    2354.  01:6BF0  C9                  	ret	
    2355.  01:6BF1                      	
    2356.  01:6BF1                      _rpm_smaller:
    2357.  01:6BF1  91                  	sub	c
    2358.  01:6BF2  ED 44               	neg	
    2359.  01:6BF4  0F                  	rrca
    2360.  01:6BF5  0F                  	rrca
    2361.  01:6BF6  0F                  	rrca
    2362.  01:6BF7  0F                  	rrca
    2363.  01:6BF8  F6 10               	or	$10		; set bit 5
    2364.  01:6BFA  12                  	ld	(de),a
    2365.  01:6BFB                      	
    2366.  01:6BFB  13                  	inc	de
    2367.  01:6BFC  13                  	inc	de
    2368.  01:6BFD  23                  	inc	hl
    2369.  01:6BFE  10 D6               	djnz	_rpm_loop
    2370.  01:6C00  C9                  	ret		
    2371.  01:6C01                      	
    2372.  01:6C01                      ;============================
    2373.  01:6C01                      _rpm_next_step:
    2374.  01:6C01  3A 1C C0            	ld	a,(replay_morph_speed)
    2375.  01:6C04  32 1B C0            	ld	(replay_morph_timer),a
    2376.  01:6C07                      
    2377.  01:6C07                      	;-- apply the delta's
    2378.  01:6C07  3A 1D C0            	ld	a,(replay_morph_counter)
    2379.  01:6C0A  4F                  	ld	c,a
    2380.  01:6C0B  C6 10               	add	16
    2381.  01:6C0D  32 1D C0            	ld	(replay_morph_counter),a
    2382.  01:6C10  C2 16 6C            	jp	nz,.skip
    2383.  01:6C13                      	;--- end morph
    2384.  01:6C13  32 1A C0            	ld	(replay_morph_active),a
    2385.  01:6C16                      
    2386.  01:6C16                      .skip:
    2387.  01:6C16  0D                  	dec c
    2388.  01:6C17  21 1E C0            	ld	hl,replay_morph_buffer
    2389.  01:6C1A  06 20               	ld	b,32
    2390.  01:6C1C                      _rpm_ns_loop:	
    2391.  01:6C1C  7E                  	ld	a,(hl)
    2392.  01:6C1D  CB 67               	bit 	4,a
    2393.  01:6C1F  CA 34 6C            	jp	z,_rmp_ns_add
    2394.  01:6C22                      _rmp_ns_sub:
    2395.  01:6C22                      	;--- handle corection
    2396.  01:6C22  E6 EF               	and	$ef
    2397.  01:6C24  B9                  	cp	c		; correction < counteR?
    2398.  01:6C25  DA 29 6C            	jp	c,.skip
    2399.  01:6C28  3C                  	inc	a		; if smaller C was set
    2400.  01:6C29                      .skip:
    2401.  01:6C29  E6 1F               	and	00011111b	; keep lower 5 bits
    2402.  01:6C2B  23                  	inc	hl
    2403.  01:6C2C  57                  	ld	d,a
    2404.  01:6C2D  7E                  	ld	a,(hl)
    2405.  01:6C2E  92                  	sub	d
    2406.  01:6C2F  77                  	ld	(hl),a	; load new value
    2407.  01:6C30  23                  	inc	hl
    2408.  01:6C31  10 E9               	djnz	_rpm_ns_loop
    2409.  01:6C33  C9                  	ret	
    2410.  01:6C34                      _rmp_ns_add:
    2411.  01:6C34                      	;--- handle corection
    2412.  01:6C34  B9                  	cp	c		; correction < counter?
    2413.  01:6C35  DA 39 6C            	jp	c,.skip
    2414.  01:6C38  3C                  	inc	a		; if smaller C was set
    2415.  01:6C39                      .skip:
    2416.  01:6C39  E6 1F               	and	00011111b	; keep lower 5 bits
    2417.  01:6C3B  23                  	inc	hl
    2418.  01:6C3C  86                  	add	(hl)		; subtract waveform value
    2419.  01:6C3D  77                  	ld	(hl),a	; load new value
    2420.  01:6C3E  23                  	inc	hl
    2421.  01:6C3F  10 DB               	djnz	_rpm_ns_loop
    2422.  01:6C41  C9                  	ret		
    2423.  01:6C42                      	
    2424.  01:6C42                      
    2425.  01:6C42                      
     430   01:6C42                      	
     431   01:6C42                      FINISH:
     432   01:6C42                      
     433   01:6C42                      
     434   01:6C42                      ;---------------------------------------------------------
     435   01:6C42                      ; Variables
     436   01:6C42                      ;---------------------------------------------------------
     437   01:6C42  (0040)              	MAP 0x0040
     438   01:6C42  (01:0040)           musbuff:	#15*1024
     439   01:6C42                      	
     440   01:6C42  (0000)              	ENDMAP
     441   01:6C42                      	
     442   01:6C42  (C000)              	MAP 0xC000
     443   01:6C42  (01:C000)           ttreplayRAM:		#0
     444   01:6C42                      	include	"..\TTplayer\code\ttreplayRAM.asm"
       1.  01:6C42                      ;================================
       2.  01:6C42                      ; The new replayer.
       3.  01:6C42                      ;
       4.  01:6C42                      ; Persistent RAM unswappable
       5.  01:6C42                      ;
       6.  01:6C42                      ;================================
       7.  01:6C42                      
       8.  01:6C42  (01:FFFFFFEF)       TRACK_Instrument		equ 0-17
       9.  01:6C42  (01:FFFFFFF0)       TRACK_Waveform		equ 1-17
      10.  01:6C42  (01:FFFFFFF1)       TRACK_Command		equ 2-17
      11.  01:6C42  (01:FFFFFFF2)       TRACK_MacroPointer	equ 3-17
      12.  01:6C42  (01:FFFFFFF4)       TRACK_MacroStart		equ 5-17
      13.  01:6C42  (01:FFFFFFF6)       TRACK_MacroRestart 	equ 7-17
      14.  01:6C42  (01:FFFFFFF7)       TRACK_Note			equ 8-17
      15.  01:6C42  (01:FFFFFFF8)       TRACK_Volume		equ 9-17
      16.  01:6C42  (01:FFFFFFF9)       TRACK_Flags			equ 10-17
      17.  01:6C42                      	; 0 = note trigger
      18.  01:6C42                      	; 1 = note active
      19.  01:6C42                      	; 4 = morph active		;-< for SCC when 1 then waveform is following morph buffer
      20.  01:6C42                      	; 3 = command trigger
      21.  01:6C42                      	; 2 = envelope trigger
      22.  01:6C42                      	; 5 = instrument trigger
      23.  01:6C42                      	; 6 = waveform trigger
      24.  01:6C42                      	; 7 = PSG/SCC
      25.  01:6C42  (01:FFFFFFFA)       TRACK_empty			equ 11-17		; needed for pushing 0 at note start
      26.  01:6C42  (01:FFFFFFFB)       TRACK_ToneAdd		equ 12-17		; reset after note set
      27.  01:6C42  (01:FFFFFFFD)       TRACK_VolumeAdd		equ 14-17		; reset after note set
      28.  01:6C42  (01:FFFFFFFE)       TRACK_Noise			equ 15-17		; reset after note set
      29.  01:6C42  (01:FFFFFFFF)       TRACK_cmd_VolumeAdd	equ 16-17		; reset after note set
      30.  01:6C42  (01:0000)           TRACK_cmd_ToneSlideAdd	equ 17-17		; reset after note set
      31.  01:6C42  (01:0002)           TRACK_cmd_ToneAdd		equ 19-17		; reset after note set
      32.  01:6C42                      
      33.  01:6C42  (01:0004)           TRACK_cmd_detune		equ 21-17
      34.  01:6C42  (01:0005)           TRACK_cmd_0			equ 22-17
      35.  01:6C42  (01:0006)           TRACK_cmd_1			equ 23-17
      36.  01:6C42  (01:0007)           TRACK_cmd_2			equ 24-17
      37.  01:6C42  (01:0008)           TRACK_cmd_3			equ 25-17
      38.  01:6C42  (01:0009)           TRACK_cmd_4_depth		equ 26-17
      39.  01:6C42  (01:000A)           TRACK_cmd_4_step		equ 27-17
      40.  01:6C42  (01:000B)           TRACK_cmd_NoteAdd		equ 28-17		;x reset after note set
      41.  01:6C42  (01:000C)           TRACK_cmd_A			equ 29-17		
      42.  01:6C42  (01:000D)           TRACK_cmd_B			equ 30-17		
      43.  01:6C42  (01:000E)           TRACK_cmd_E			equ 31-17
      44.  01:6C42  (01:000F)           TRACK_Timer			equ 32-17		; used for timing by all cmd's
      45.  01:6C42  (01:0010)           TRACK_Step			equ 33-17		; only for VIBRATO???
      46.  01:6C42  (01:0011)           TRACK_Delay			equ 34-17		; rows to wait till next data
      47.  01:6C42  (01:0012)           TRACK_prevDelay		equ 35-17
      48.  01:6C42  (01:0013)           TRACK_Retrig		equ 36-17		; rows to retrigger command
      49.  01:6C42  (01:0014)           TRACK_cmd_A_add		equ 37-17	;<< Still in use???
      50.  01:6C42                      
      51.  01:6C42  (01:0026)           TRACK_REC_SIZE		equ 38
      52.  01:6C42                      
      53.  01:6C42                      
      54.  01:6C42  (01:0000)           B_TRGNOT			equ 0			; note trigger
      55.  01:6C42  (01:0001)           B_ACTNOT			equ 1			; note active
      56.  01:6C42  (01:0002)           B_TRGENV			equ 2			; envelope trigger
      57.  01:6C42  (01:0003)           B_TRGCMD			equ 3			; command active
      58.  01:6C42  (01:0004)           B_ACTMOR			equ 4			; morph active
      59.  01:6C42  (01:0005)           B_TRGINS			equ 5			; instrument trigger
      60.  01:6C42  (01:0006)           B_TRGWAV			equ 6			; waveform trigger
      61.  01:6C42  (01:0007)           B_PSGSCC			equ 7			; chip type (PSG or SCC)
      62.  01:6C42                      
      63.  01:6C42                      
      64.  01:6C42  (01:C000)           _SP_Storage			#1			; to store the SP
      65.  01:6C42                      
      66.  01:6C42  (01:C001)           replay_trigger		#1			; trigger byte.
      67.  01:6C42  (01:C002)           replay_mainPSGvol		#2			; volume mixer for PSG SCC balance
      68.  01:6C42  (01:C004)           replay_mainSCCvol		#2			; volume mixer for PSG SCC balance
      69.  01:6C42                      ;replay_songbase:		#2			; pointer to song data
      70.  01:6C42  (01:C006)           replay_wavebase:		#2			; pointer to waveform data
      71.  01:6C42  (01:C008)           replay_insbase:		#2			; pointer to instrument data
      72.  01:6C42  (01:C00A)           replay_orderpointer:	#2			; pointer to the order track list pointers
      73.  01:6C42                      
      74.  01:6C42  (01:C00C)           replay_speed 		#1			; speed to replay (get from song)
      75.  01:6C42  (01:C00D)           replay_speed_subtimer 	#1			; counter for finer speed
      76.  01:6C42  (01:C00E)           replay_speed_timer 	#1 			; counter for speed
      77.  01:6C42  (01:C00F)           replay_mode 		#1			; Replayer status
      78.  01:6C42                      ; mode 0  = no sound output
      79.  01:6C42                      ; mode 1  = replay song 
      80.  01:6C42  (01:C010)           replay_fade			#1			; Fade active (value = fade speed)
      81.  01:6C42  (01:C011)           replay_fade_timer		#1			; Timer for fade
      82.  01:6C42  (01:C012)           replay_fade_vol		#1			; fade volume to lower the channel volume.
      83.  01:6C42                      
      84.  01:6C42                      
      85.  01:6C42  (01:C013)           replay_previous_note	#1			; previous note played
      86.  01:6C42  (01:C014)           replay_mainvol		#2			; the volume correction.
      87.  01:6C42                      
      88.  01:6C42  (01:C016)           replay_vib_table		#2			; pointer to the vibrato table
      89.  01:6C42  (01:C018)           replay_Tonetable		#2			; ToneTable (affected by transpose);
      90.  01:6C42                      
      91.  01:6C42  (01:C01A)           replay_morph_active	#1			; flag to indicate morphing is active
      92.  01:6C42                      ;replay_morph_update	#1			; flag to indicate a new waveform is ready
      93.  01:6C42  (01:C01B)           replay_morph_timer	#1			; step timer between morphs
      94.  01:6C42  (01:C01C)           replay_morph_speed	#1 
      95.  01:6C42  (01:C01D)           replay_morph_counter	#1			; counter till end morph
      96.  01:6C42  (01:C01E)           replay_morph_buffer	#64			; interleaved buffer with morphed waveform and morph delta values
      97.  01:6C42  (01:C05E)           replay_morph_waveform	#1 			; waveform we are morphing to.
      98.  01:6C42                      
      99.  01:6C42                      
     100.  01:6C42  (01:C05F)           TRACK_Chan1			#TRACK_REC_SIZE
     101.  01:6C42  (01:C085)           TRACK_Chan2			#TRACK_REC_SIZE
     102.  01:6C42  (01:C0AB)           TRACK_Chan3			#TRACK_REC_SIZE
     103.  01:6C42  (01:C0D1)           TRACK_Chan4			#TRACK_REC_SIZE
     104.  01:6C42  (01:C0F7)           TRACK_Chan5			#TRACK_REC_SIZE
     105.  01:6C42  (01:C11D)           TRACK_Chan6			#TRACK_REC_SIZE
     106.  01:6C42  (01:C143)           TRACK_Chan7			#TRACK_REC_SIZE
     107.  01:6C42  (01:C169)           TRACK_Chan8			#TRACK_REC_SIZE
     108.  01:6C42                      
     109.  01:6C42  (01:C18F)           TRACK_pointer1		#2
     110.  01:6C42  (01:C191)           TRACK_pointer2		#2
     111.  01:6C42  (01:C193)           TRACK_pointer3		#2
     112.  01:6C42  (01:C195)           TRACK_pointer4		#2
     113.  01:6C42  (01:C197)           TRACK_pointer5		#2
     114.  01:6C42  (01:C199)           TRACK_pointer6		#2
     115.  01:6C42  (01:C19B)           TRACK_pointer7		#2
     116.  01:6C42  (01:C19D)           TRACK_pointer8		#2
     117.  01:6C42                      
     118.  01:6C42                      
     119.  01:6C42                      ;--- AY SPECIFIC
     120.  01:6C42  (01:C19F)           AY_registers		#0 
     121.  01:6C42  (01:C19F)           AY_regToneA 		#2	; Tone A freq low (8bit)
     122.  01:6C42                      					; Tone A freq high (4bit)
     123.  01:6C42  (01:C1A1)           AY_regToneB 		#2	; Tone B freq low
     124.  01:6C42                      					; Tone B freq high
     125.  01:6C42  (01:C1A3)           AY_regToneC 		#2	; Tone C freq low
     126.  01:6C42                      					; Tone C freq high
     127.  01:6C42  (01:C1A5)           AY_regNOISE 		#1	; Noise freq (5bit)
     128.  01:6C42  (01:C1A6)           AY_regMIXER 		#1	;0x38	;x3f	; Mixer control (1 = off, 0 = on)
     129.  01:6C42  (01:C1A7)           AY_regVOLA 			#1	; Chan A volume
     130.  01:6C42  (01:C1A8)           AY_regVOLB 			#1	; Chan B volume
     131.  01:6C42  (01:C1A9)           AY_regVOLC  		#1	; Chan C volume
     132.  01:6C42  (01:C1AA)           AY_regEnvL 			#1	; Volume Env Freq low (8bit)	
     133.  01:6C42  (01:C1AB)           AY_regEnvH 			#1	; Volume Env Freq high (4bit)
     134.  01:6C42  (01:C1AC)           AY_regEnvShape 		#1	; Volume Env Shape (4bit)
     135.  01:6C42                      
     136.  01:6C42                      ;--- SCC SPECIFIC
     137.  01:6C42                      
     138.  01:6C42  (01:C1AD)           _0x9800:	#32			; Waveform data
     139.  01:6C42  (01:C1CD)           _0x9820:	#32
     140.  01:6C42  (01:C1ED)           _0x9840:	#32
     141.  01:6C42  (01:C20D)           _0x9860:	#32
     142.  01:6C42  (01:C22D)           SCC_registers 		#0
     143.  01:6C42  (01:C22D)           SCC_regToneA 		#2	; Tone A freq low (8bit)
     144.  01:6C42                      					; Tone A freq high (4bit)
     145.  01:6C42  (01:C22F)           SCC_regToneB 		#2	; Tone B freq low
     146.  01:6C42                      					; Tone B freq high
     147.  01:6C42  (01:C231)           SCC_regToneC 		#2	; Tone C freq low
     148.  01:6C42                      					; Tone C freq high
     149.  01:6C42  (01:C233)           SCC_regToneD 		#2	; Tone D freq low
     150.  01:6C42                      					; Tone D freq high
     151.  01:6C42  (01:C235)           SCC_regToneE 		#2	; Tone E freq low
     152.  01:6C42                      					; Tone E freq high
     153.  01:6C42  (01:C237)           SCC_regVOLA 		#1	; Chan A volume
     154.  01:6C42  (01:C238)           SCC_regVOLB 		#1	; Chan B volume
     155.  01:6C42  (01:C239)           SCC_regVOLC  		#1	; Chan C volume
     156.  01:6C42  (01:C23A)           SCC_regVOLD 		#1	; Chan D volume
     157.  01:6C42  (01:C23B)           SCC_regVOLE  		#1	; Chan E volume
     158.  01:6C42  (01:C23C)           SCC_regMIXER 		#1	; x3f	; Mixer control (1 = off, 0 = on)
     159.  01:6C42                      
     160.  01:6C42                      
     161.  01:6C42                      ;/// see to remove this.
     162.  01:6C42                      ;-- SCC registers
     163.  01:6C42  (01:C23D)           oldregs:	#(32*4)+(3*5)+1		; a way to int the SCC
     164.  01:6C42                      
     165.  01:6C42                      
     445   01:6C42                      
     446   01:6C42  (01:C2CD)           _levelmap:			#mapWidth*mapHeight
     447   01:6C42                      
     448   01:6C42  (01:CDCD)           _cur_level_bf:		#mapWidth*mapHeight/2
     449   01:6C42                      
     450   01:6C42  (01:D34D)           slotvar				#1
     451   01:6C42  (01:D34E)           slotram				#1
     452   01:6C42  (01:D34F)           SEL_NTSC			#1
     453   01:6C42                      
     454   01:6C42  (01:D350)           joystick			#1
     455   01:6C42                      
     456   01:6C42  (01:D351)           _mcx				#2	; relative with in the frame on the screen
     457   01:6C42  (01:D353)           _mcy				#2
     458   01:6C42                      
     459   01:6C42  (01:D355)           _mclx				#2	; absolute with the level in ram
     460   01:6C42  (01:D357)           _mcly				#2
     461   01:6C42                      
     462   01:6C42  (01:D359)           _mcframe			#1
     463   01:6C42  (01:D35A)           _mcstate			#1
     464   01:6C42                      
     465   01:6C42  (01:D35B)           _mcdx				#2
     466   01:6C42  (01:D35D)           _mcdy				#2
     467   01:6C42                      
     468   01:6C42  (01:D35F)           _mcprobe:			#1
     469   01:6C42  (01:D360)           _mcprobeb:			#1
     470   01:6C42                      
     471   01:6C42  (01:D361)           _ticxframe			#1
     472   01:6C42                      
     473   01:6C42  (01:D362)           _buffer:			#16
     474   01:6C42  (01:D372)           _fps:				#2
     475   01:6C42  (01:D374)           _nframes:			#2
     476   01:6C42  (01:D376)           _vbit16:			#2
     477   01:6C42                      
     478   01:6C42  (01:D378)           _ymappos:			#1
     479   01:6C42  (01:D379)           _xmappos:			#2
     480   01:6C42  (01:D37B)           _levelmap_pos:		#2
     481   01:6C42                      
     482   01:6C42  (01:D37D)           _shadowbuff:		#2
     483   01:6C42  (01:D37F)           _currentpage:		#1
     484   01:6C42                      
     485   01:6C42  (01:D380)           _displaypage:		#1
     486   01:6C42  (01:D381)           _direction:			#1
     487   01:6C42  (01:D382)           _old_direction:		#1
     488   01:6C42  (01:D383)           _xoffset:			#1
     489   01:6C42  (01:D384)           _yoffset:			#1
     490   01:6C42                      
     491   01:6C42  (01:D385)           randSeed:			#2
     492   01:6C42  (01:D387)           cur_level:			#1
     493   01:6C42  (01:D388)           wave_count:			#1
     494   01:6C42  (01:D389)           landing_permission:	#1
     495   01:6C42  (01:D38A)           assault_wave_timer:	#2
     496   01:6C42  (01:D38C)           bullet_rate:		#1
     497   01:6C42  (01:D38D)           dxmap:				#1
     498   01:6C42  (01:D38E)           xmap:				#2
     499   01:6C42  (01:D390)           yship:				#1
     500   01:6C42  (01:D391)           xship:				#2
     501   01:6C42  (01:D393)           aniframe:			#1
     502   01:6C42  (01:D394)           ms_state:			#1
     503   01:6C42  (01:D395)           god_mode:			#1
     504   01:6C42  (01:D396)           visible_sprts:		#1
     505   01:6C42                      
     506   01:6C42                      	struct enemy_data
     507   01:6C42                    < y				db	0
     508   01:6C42                    < x				dw	0
     509   01:6C42                    < xoff			db	0
     510   01:6C42                    < yoff			db	0
     511   01:6C42                    < xsize			db	0
     512   01:6C42                    < ysize			db	0
     513   01:6C42                    < status			db	0	; B7 == DWN/UP | B6 == RIGHT/LEFT | B0 == Inactive/Active
     514   01:6C42                    < cntr			db	0
     515   01:6C42                    < kind			db	0
     516   01:6C42                    < frame			db	0
     517   01:6C42                    < color			db	0
     518   01:6C42                    < speed			dw	0
     519   01:6C42                    < 	ends
     520   01:6C42                      	
     521   01:6C42  (01:D397)           any_object:			#0
     522   01:6C42  (01:D397)           ms_bullets:			#enemy_data*max_bullets
     523   01:6C42  (01:D3C1)           enem_bullets:		#enemy_data*max_enem_bullets
     524   01:6C42  (01:D3EB)           enemies:			#enemy_data*max_enem
     525   01:6C42                      
     526   01:6C42  (0000)              	ENDMAP

    LABELS
-------------------------------------------------
00:00005000   _kBank1
00:00007000   _kBank2
00:00009000   _kBank3
00:0000B000   _kBank4
00:00000100   mapWidth
00:0000000B   mapHeight
00:000000A0   YSIZE
00:00000024 X ENASLT
00:00000138   RSLREG
00:0000FCC1   EXPTBL
00:00004010   search_slot
00:0000402F   search_slotram
00:00004050   search_slotram0
00:00004055 X setrompage0
00:0000405B   setrampage0
00:00004061   setrompage2
00:00004067 X setrampage2
00:0000406D X setrompage3
00:00004073 X setrampage3
00:00004079 X recbios
00:0000407C   setslotpage0
00:000040B3 X setslotpage1
00:000040F2   setslotpage2
00:00004139   setslotpage3
00:00004178   _cls
00:00000099   vdpport1
00:0000009A   vdpport2
00:00004196   levelcolors
00:00004196 X _SetPalet
00:000041A8   _vdpsetvramwr
00:000041B9 X _vdpsetvramwr14
00:000041C2 X _vdpsetvramrd
00:000041DC   _setpage
00:0000005F   chgmod
00:0000000C X RDSLT
00:00000156 X KILBUF
00:000041ED   set_scr
00:00004238   _waitvdp
00:0000000C X rdslt
00:0000001C X CALSLT
00:00000180   chgcpu
00:0000FCC1 X exttbl
00:00004250 X _set_r800
00:00004271   set_turbo_tr
00:0000F3DF   RG0SAV
00:0000F3E0   RG1SAV
00:0000F3E6 X RG7SAV
00:0000F3E7   RG8SAV
00:0000FC9E   _jiffy
00:00004279   _isrinit
00:0000429D X _intreset
00:000042AE   _scroll
00:000042CE   lint
00:00004357   lint.exit
00:00004375   vblank
00:000043BD   checkkbd
00:000043CA   _hw_sprite_init
00:000043EC   npc_init1
00:00004482   plot_enemy
00:000044C7   plot_enemy.next1
00:00004511   plot_enemy.next2
00:0000451D   plot_enemy.spriteoff1
00:0000452A   plot_enemy.spriteoff2
00:00004600   sprite_collision_windows
00:0000460C X sprite_0
00:0000460C X sprite_1
00:0000460C X sprite_2
00:0000460C X sprite_3
00:00004610 X sprite_4
00:00004614 X sprite_5
00:00004618 X sprite_6
00:0000461C X sprite_7
00:00004620 X sprite_8
00:00004624 X sprite_9
00:00004628 X sprite_10
00:0000462C X sprite_11
00:00004630 X sprite_12
00:00004634 X sprite_13
00:00004638 X sprite_14
00:0000463C X sprite_15
00:00004640 X sprite_16
00:00004644 X sprite_17
00:00004648 X sprite_18
00:0000464C X sprite_19
00:00004650 X sprite_20
00:00004654 X sprite_21
00:00004658 X sprite_22
00:0000465C X sprite_23
00:00004660 X sprite_24
00:00004664 X sprite_25
00:00004668 X sprite_26
00:0000466C X sprite_27
00:00004670 X sprite_28
00:00004674 X sprite_29
00:00004678 X sprite_30
00:0000467C X sprite_31
00:00004680 X sprite_32
00:00004684 X sprite_33
00:00004688 X sprite_34
00:0000468C X sprite_35
00:00004690 X sprite_36
00:00004694 X sprite_37
00:00004698 X sprite_38
00:0000469C X sprite_39
00:000046A0 X sprite_40
00:000046A4 X sprite_41
00:000046A8 X sprite_42
00:000046AC X sprite_43
00:000046B0 X sprite_44
00:000046B4 X sprite_45
00:000046B8 X sprite_46
00:000046BC X sprite_47
00:000046C0 X sprite_48
00:000046C4 X sprite_49
00:000046C8 X sprite_50
00:000046CC X sprite_51
00:000046D0 X sprite_52
00:000046D4 X sprite_53
00:000046D8 X sprite_54
00:000046DC X sprite_55
00:000046E0 X sprite_56
00:000046E4 X sprite_57
00:000046E8 X sprite_58
00:000046EC X sprite_59
00:000046F0 X sprite_60
00:000046F4 X sprite_61
00:000046F8 X sprite_62
00:000046FC X sprite_63
00:00004700   set_size
00:00004720   set_size2
00:00004740   test_collision_enemy_bullets
00:00004780   test_collision_msbullets
00:00004799   test_collision
00:000047CF   CalcCollision
00:000047D9   CalcCollision.switch
00:000047DF   CollisionCheck_8b
00:000047E5   CollisionCheck_8b.other
00:00000000   obj_data.y
00:00000001   obj_data.x
00:00000003   obj_data.xoff
00:00000004   obj_data.yoff
00:00000005   obj_data.xsize
00:00000006   obj_data.ysize
00:00000007 X obj_data
00:000047E9 X _check_obj_collision
00:000047EF X check_obj_collision_8_16
00:00004808 X swap_objects_y
00:00004836 X swap_objects_x
00:00004846   START
00:00004853   _ntsc
00:00004925   main_loop
00:00004949   main_loop.nomove
00:0000495E   test_move_right
00:00004969   test_move_left
00:00004975   _dw
00:00004980   _up
00:00000000   border_color
00:00004989   inc_xoffset
00:00004995 X inc_xoffset.case0
00:000049A4   inc_xoffset.case1_15
00:000049AF   inc_xoffset.cont
00:000049D0   dec_xoffset
00:000049DD X dec_xoffset.case15
00:000049EC   dec_xoffset.case0_14
00:000049F7   dec_xoffset.cont
00:00004A1A   AFXPLAY
00:00004A1B   _print_probe
00:00004A60 X _print_fps
00:00004A7D X _compute_fps
00:00004A84   int2ascii
00:00004A87 X Num2asc
00:00004AA0   Num1
00:00004AA2   Num2
00:00004AAB   blank_line_rgt
00:00004AB0   blank_line_lft
00:00004AB2   blank_line
00:00004AE6   plot_line_lft
00:00004AEE   plot_line_rgt
00:00004AF7   plot_line
00:00004B52   plot_tile
00:00004B9E   init_page0
00:00004BCC X init_page1
00:00004BFA   clrboder
00:00004C2B   move_block
00:00000000 X ms_fly__right
00:00000001 X ms_spin_face_right
00:00000002 X ms_side_dwn_face_right
00:00000003 X ms_side_up__face_right
00:00000004 X ms_fly__left
00:00000005 X ms_spin_face_left
00:00000006 X ms_side_dwn_face_left
00:00000007 X ms_side_up__face_left
00:00000008   ms_loop_right2left
00:00000009   ms_loop_left2right
00:0000000A X ms_explode
00:0000000B X ms_landing
00:0000000C X ms_reset
00:00000010 X maxspeed
00:0000000A   max_enem
00:00000003   max_enem_bullets
00:00000003   max_bullets
00:000000B4   assault_wave_timer_preset
00:00000002   enemy_bullet_speed
00:00000078 X xship_rel
00:00004C6B   ms_ani
00:00004C6B X ms_demo_ani
00:00004CBB   ms_col_win
00:00004CBB X ms_demo_coll_wind
00:00004D5B   add_bc_score_bin
00:00004D5C   rand8_init
00:00004D65   rand8
00:00004D72   land_now_test
00:00004D90   npc_init
00:00004DBA X bull_init
00:00004DD3   wave_timer
00:00004F00   spritecolors
00:00004F08   wave0
00:00004F08   wave1
00:00004F29 X wave1.neg
00:00004F35   wave1.pos
00:00004F91   wave1.next
00:00004F98   wave2
00:00004FC3 X wave2.neg
00:00004FD1   wave2.pos
00:00005027   wave2.next
00:0000502E   wave3
00:00005046 X wave3.neg
00:00005051   wave3.pos
00:000050AE   wave3.next
00:000050B5   wave4
00:000050E0 X wave4.neg
00:000050EE   wave4.pos
00:00005144   wave4.next
00:0000514B   wave5
00:00005161 X wave5.neg
00:0000516B   wave5.pos
00:000051BD   wave5.next
00:000051C4   wave6
00:000051EF X wave6.neg
00:000051FE   wave6.pos
00:0000525F   wave6.next
00:00005266   wave7
00:0000527C X wave7.neg
00:00005286   wave7.pos
00:000052D8   wave7.next
00:000052DF   npc_loop
00:0000530F   next
00:00005318   npcdies
00:0000533F   enemy255
00:00005363   enemy0
00:00005363 X enemy1
00:00005369 X enemy1.go_left
00:0000538C   enemy1.go_right
00:000053BE   enemy2
00:000053BE X enemy3
00:000053D7 X enemy3.go_left
00:000053ED   enemy3.go_right
00:00005412   enemy4
00:0000542B X enemy4.go_left
00:00005441   enemy4.go_right
00:0000545E X enemy4.go_up
00:00005469   enemy4.go_dwn
00:00005500   rotation
00:00005508   rotate
00:00005600   sinewave
00:00005640   enemy5
00:00005659 X enemy5.go_left
00:0000566F   enemy5.go_right
00:000056A6   enemy6
00:000056BF X enemy6.go_left
00:000056DD   enemy6.go_right
00:00005705 X enemy6.go_up
00:00005710   enemy6.go_dwn
00:0000572D   enemy7
00:00005746 X enemy7.go_left
00:00005764   enemy7.go_right
00:0000578C X enemy7.go_up
00:00005797   enemy7.go_dwn
00:000057B4   book_enemy_shoot
00:000057FB   book_enemy_shoot.activate_this
00:00005801 X book_enemy_shoot.shootdx
00:00005810   book_enemy_shoot.shootsx
00:00005846   enemy_bullet_loop
00:00005930   test_obstacles.found
02:00008000   _scorebar
04:0000A000   _tiles0
0F:0000A000   _level
0F:0000AB00   sprtdata
0E:00008000   demo_song
0E:00000065   demo_song.restart
0E:00000239   demo_song.waveform_start
0E:00000639   demo_song.instrument_start
0E:00000677   demo_song.ins_1
0E:0000068B   demo_song.rst_i1
0E:000006AB   demo_song.ins_2
0E:000006BF   demo_song.rst_i2
0E:000006C5   demo_song.ins_3
0E:000006C5   demo_song.ins_4
0E:000006DD   demo_song.rst_i4
0E:000006F5   demo_song.ins_5
0E:00000709   demo_song.rst_i5
0E:00000725   demo_song.ins_6
0E:00000739   demo_song.rst_i6
0E:00000755   demo_song.ins_7
0E:00000755   demo_song.ins_8
0E:00000755   demo_song.ins_9
0E:00000755   demo_song.ins_10
0E:00000755   demo_song.ins_11
0E:00000755   demo_song.ins_12
0E:00000755   demo_song.ins_13
0E:00000755   demo_song.ins_14
0E:00000769   demo_song.rst_i14
0E:00000789   demo_song.ins_15
0E:00000789   demo_song.ins_16
0E:000007A1   demo_song.rst_i16
0E:000007C1   demo_song.ins_17
0E:000007C7   demo_song.rst_i17
0E:000007C9   demo_song.ins_18
0E:000007D9   demo_song.rst_i18
0E:000007DB   demo_song.ins_19
0E:000007E9   demo_song.rst_i19
0E:000007ED   demo_song.ins_20
0E:000007F1   demo_song.rst_i20
0E:000007F3   demo_song.ins_21
0E:000007FE   demo_song.rst_i21
0E:00000800   demo_song.ins_22
0E:00000806   demo_song.rst_i22
0E:00000808   demo_song.ins_23
0E:00000808   demo_song.ins_24
0E:00000808   demo_song.ins_25
0E:00000808   demo_song.ins_26
0E:00000808   demo_song.ins_27
0E:00000808   demo_song.ins_28
0E:00000808   demo_song.ins_29
0E:00000808   demo_song.ins_30
0E:00000808   demo_song.ins_31
0E:0000080A   demo_song.rst_i31
0E:0000080C   demo_song.track_0
0E:00000839   demo_song.track_1
0E:0000085D   demo_song.track_2
0E:00000889   demo_song.track_3
0E:0000089A   demo_song.track_4
0E:000008BE   demo_song.track_5
0E:000008DF   demo_song.track_6
0E:000008F0   demo_song.track_7
0E:00000904   demo_song.track_8
0E:0000091B   demo_song.track_9
0E:00000952   demo_song.track_10
0E:00000976   demo_song.track_11
0E:0000098B   demo_song.track_12
0E:000009AD   demo_song.track_13
0E:000009D6   demo_song.track_14
0E:000009E9   demo_song.track_15
0E:000009FE   demo_song.track_16
0E:00000A31   demo_song.track_17
0E:00000A55   demo_song.track_18
0E:00000A72   demo_song.track_19
0E:00000A76   demo_song.track_20
0E:00000A85   demo_song.track_21
0E:00000A9C   demo_song.track_22
0E:00000AB7   demo_song.track_23
0E:00000AD6   demo_song.track_24
0E:00000AFA   demo_song.track_25
0E:00000B13   demo_song.track_26
0E:00000B16   demo_song.track_27
0E:00000B1C   demo_song.track_28
0E:00000B33   demo_song.track_29
0E:00000B4A   demo_song.track_30
0E:00000B62   demo_song.track_31
0E:00000B86   demo_song.track_32
0E:00000BA1   demo_song.track_33
0E:00000BBB   demo_song.track_34
0E:00000BD6   demo_song.track_35
0E:00000C15   demo_song.track_36
0E:00000C35   demo_song.track_37
0E:00000C49   demo_song.track_38
0E:00000C5D   demo_song.track_39
0E:00000C74   demo_song.track_40
0E:00000C89   demo_song.track_41
0E:00000CA4   demo_song.track_42
0E:00000CB3   demo_song.track_43
0E:00000CCF   demo_song.track_44
0E:00000CEF   demo_song.track_45
0E:00000D06   demo_song.track_46
0E:00000D11   demo_song.track_47
0E:00000D26   demo_song.track_48
0E:00000D3C   demo_song.track_49
0E:00000D57   demo_song.track_50
0E:00000D65   demo_song.track_51
0E:00000D71   demo_song.track_52
0E:00000D8B   demo_song.track_53
0E:00000DA6   demo_song.track_54
0E:00000DE2   demo_song.track_55
0E:00000DFE   demo_song.track_56
0E:00000E0B   demo_song.track_57
0E:00000E1B   demo_song.track_58
0E:00000E28   demo_song.track_59
0E:00000E42   demo_song.track_60
0E:00000E50   demo_song.track_61
0E:00000E7C   demo_song.track_62
0E:00000EA3   demo_song.track_63
0E:00000EC1   demo_song.track_64
0E:00000EC9   demo_song.track_65
0E:00000EDF   demo_song.track_66
0E:00000EEA   demo_song.track_67
0E:00000EF7   demo_song.track_68
0E:00000F32   demo_song.track_69
0E:00000F59   demo_song.track_70
0E:00000F69   demo_song.track_71
0E:00000F6F   demo_song.track_72
0E:00000F84   demo_song.track_73
0E:00000F8F   demo_song.track_74
0E:00000F9C   demo_song.track_75
0E:00000FD4   demo_song.track_76
0E:00000FF5   demo_song.track_77
0E:00001010   demo_song.track_78
0E:0000101D   demo_song.track_79
0E:00001036   demo_song.track_80
0E:0000103C   demo_song.track_81
0E:00001044   demo_song.track_82
0E:0000106B   demo_song.track_83
0E:000010B3   demo_song.track_84
0E:000010BB   demo_song.track_85
0E:000010BE   demo_song.track_86
0E:000010F7   demo_song.track_87
0E:000010FA   demo_song.track_88
0E:000010FE   demo_song.track_89
0E:00001109   demo_song.track_90
0E:0000110E   demo_song.track_91
0E:00001118   demo_song.track_92
0E:00001123   demo_song.track_93
0E:00001155   demo_song.track_94
0E:00001174   demo_song.track_95
0E:0000117D   demo_song.track_96
0E:0000119A   demo_song.track_97
0E:000011A5   demo_song.track_98
0E:000011B2   demo_song.track_99
0E:000011E9   demo_song.track_100
0E:00001208   demo_song.track_101
0E:0000121A   demo_song.track_102
0E:00001235   demo_song.track_103
0E:00001240   demo_song.track_104
0E:00001250   demo_song.track_105
0E:00001262   demo_song.track_106
0E:00001294   demo_song.track_107
0E:000012B3   demo_song.track_108
0E:000012C6   demo_song.track_109
0E:000012E1   demo_song.track_110
0E:000012EA   demo_song.track_111
0E:00001301   demo_song.track_112
0E:00001311   demo_song.track_113
0E:00001329   demo_song.track_114
0E:00001358   demo_song.track_115
0E:0000137A   demo_song.track_116
0E:0000138A   demo_song.track_117
0E:000013A5   demo_song.track_118
0E:000013B2   demo_song.track_119
0E:000013CB   demo_song.track_120
0E:000013D8   demo_song.track_121
0E:000013E8   demo_song.track_122
0E:0000140E   demo_song.track_123
0E:0000141E   demo_song.track_124
0E:00001425   demo_song.track_125
0E:00001433   demo_song.track_126
0E:00001437   demo_song.track_127
0E:00001443   demo_song.track_128
0E:00001445   demo_song.track_129
0E:00001450 X demo_song.track_130
0E:000014D1   _VOLUME_TABLE
0E:00000D40   C_PER
0E:00000C80   C1_PER
0E:00000BC0   D_PER
0E:00000B20   D1_PER
0E:00000A80   E_PER
0E:000009E0   F_PER
0E:00000940   F1_PER
0E:000008C0   G_PER
0E:00000840   G1_PER
0E:000007E0   A_PER
0E:00000760   A1_PER
0E:00000700   B_PER
0E:000015D1   TRACK_ToneTable
0E:00001691   TRACK_Vibrato_sine
0E:000016B1   TRACK_Vibrato_triangle
0E:000016D1   TRACK_Vibrato_pulse
0E:000016F1   end_demo_song
01:00006000   replay_init
01:0000600F   replay_pause
01:00006024   _replay_pause_r
01:0000602A X replay_fade_out
01:00006035 X replay_transpose
01:0000603E   replay_set_SCC_balance
01:00006045   replay_set_PSG_balance
01:0000604C   _getnewbalancebase
01:0000605A   replay_loadsong
01:0000606C   replay_loadsong.nwu
01:00006079   replay_loadsong.niu
01:0000611F   _replay_check_patternend
01:00006143   _replay_check_patternend.no_restart
01:00006151   replay_play
01:0000616D X replay_decodedata
01:00006190   replay_decodedata.decode2
01:000061B3   replay_decodedata.decode3
01:000061D6   replay_decodedata.decode4
01:000061F9   replay_decodedata.decode5
01:0000621C   replay_decodedata.decode6
01:0000623F   replay_decodedata.decode7
01:00006262   replay_decodedata.decode8
01:00006285   replay_decodedata.decode_end
01:00006285   replay_decodedata_NO
01:00006387   replay_decodedata_NO.cont_fadeing
01:0000638D   replay_decodedata_NO.no_new_step
01:000063A1   replay_decodedata_NO.calc_vol
01:000063A7   replay_decodedata_NO.no_carry
01:000063AC   replay_decode_chan
01:000063B9   replay_decode_chan.skip_retrig_reset
01:000063C2   _rdn2
01:000063C7   _rdv2
01:000063CC   _rdi2
01:000063D4   _rdn
01:000063DC   _rdi
01:000063E4   _rdv
01:000063EC   _rdc
01:000063F6   _rd_delay
01:000063FD   _replay_decode_note
01:00006409   _replay_decode_rest
01:00006412   _replay_decode_ins
01:00006429   _replay_decode_ins.skip
01:0000644B   _replay_decode_ins.skip_ins
01:00006450   _replay_decode_vol
01:00006465   _replay_decode_delay
01:00006472   _replay_decode_cmd
01:00006481   _replay_decode_cmd.skip
01:00006488   DECODE_CMDLIST
01:000064DA   _CHIPcmd0_arpeggio
01:000064E6   _CHIPcmd1_port_up
01:000064EE   _CHIPcmd2_port_down
01:000064F6   _CHIPcmd3_RE_port_tone
01:000064FC   _CHIPcmd3_port_tone
01:00006503   _CHIPcmd3_port_tone_cont
01:0000651A   _CHIPcmd3_port_tone_cont.skip
01:00006532   _CHIPcmd3_port_tone_cont.skip2
01:00006546   _CHIPcmd4_vibrato
01:00006560   _CHIPcmd5_vibrato_port_tone
01:00006560   _CHIPcmd6_vibrato_vol
01:00006560   _CHIPcmd7_vol_slide
01:0000656C   _CHIPcmd8_macro_offset
01:0000656F   _CHIPcmd9_env_shape
01:00006577   _CHIPcmdA_env_mul
01:0000658C   _CHIPcmdB_wave_res
01:00006594   _CHIPcmdC_wave_duty
01:00006594   _CHIPcmdD_wave_cut
01:00006594   _CHIPcmdE_wave_compr
01:0000659E   _CHIPcmdF_wave_set
01:000065A8   _CHIPcmd10_morph_slave
01:000065AE   _CHIPcmd11_morph_start
01:000065C9   _CHIPcmd11_morph_start.loop
01:000065D7   _CHIPcmd12_morph_cont
01:000065EE   _CHIPcmd13_short_arp
01:000065FA   _CHIPcmd14_fine_up
01:000065FA   _CHIPcmd15_fine_down
01:00006606   _CHIPcmd16_vib_ctrl
01:00006611 X _cmd16_pulse
01:0000661A   _cmd16_tri
01:00006623   _cmd16_sine
01:0000662C   _CHIPcmd17_track_detune
01:00006641   _CHIPcmd17_track_detune.pos
01:0000664B   _CHIPcmd18_transpose
01:0000665F   _CHIPcmd18_transpose.skip1
01:00006665   _CHIPcmd18_transpose.pos
01:0000666B   _CHIPcmd18_transpose.skip2
01:00006671   _CHIPcmdXX_note_cut
01:0000667A   _CHIPcmd19_note_delay
01:00006698   _CHIPcmd1A_trigger
01:0000669E   _CHIPcmd1B_speed
01:000066B1   _CHIPcmd1C_notelink
01:000066B7 X _CHIPcmd1C_call
01:000066B7   _CHIPcmd1D_ret
01:000066BB   _CHIPcmd0_RE_arpeggio
01:000066BF   _CHIPcmd1_RE_port_up
01:000066BF   _CHIPcmd2_RE_port_down
01:000066BF   _CHIPcmd4_RE_vibrato
01:000066C7   _CHIPcmd5_RE_vibrato_port_tone
01:000066C7   _CHIPcmd6_RE_vibrato_vol
01:000066C7   _CHIPcmd7_RE_vol_slide
01:000066D3   _CHIPcmd8_RE_macro_offset
01:000066DF   _CHIPcmd9_RE_env_shape
01:000066E7   replay_process_chan_AY
01:000066FE   replay_process_chan_AY.skip
01:00006703   _pcAY_noCommand
01:00006703   _pcAY_commandEND
01:00006708 X _pcAY_triggerNote
01:0000672C   _pcAY_noNoteTrigger
01:00006750   _vol_change
01:00006757 X _vol_rel
01:00006769   _vol_rel.skip
01:0000676A   _vol_base
01:0000677A   _noEnv
01:00006785 X _noEnv.add_Vadd
01:0000678F   _noEnv.sub_Vadd
01:0000679B   _noEnv.skip2
01:0000679B   _Vadd
01:000067A5   _Vadd.skip
01:000067AF   _Vadd.skip2
01:000067B4   _noVolume
01:000067D5   _noVolume.skip
01:000067DB   _noNoise
01:000067E8   _pcAY_noTone
01:000067FE   _pcAY_noTone.skip
01:00006805   _pcAY_noToneAdd
01:00006815   _pcAY_noToneAdd.skip
01:0000683C   _pcAY_noToneAdd.skip2
01:00006843   _pcAY_noNoteActive
01:00006848   _pcAY_cmdlist
01:0000687E   _pcAY_cmd0_arpeggio
01:0000689A   _pcAY_cmd0_arpeggio.step2
01:000068AE   _pcAY_cmd0_arpeggio.step3
01:000068B5   _pcAY_cmd1_port_up
01:000068C9   _pcAY_cmd2_port_down
01:000068DD   _pcAY_cmd3_port_tone
01:000068EB X _pcAY_cmd3_add
01:000068FE   _pcAY_cmd3_sub
01:00006911   _pcAY_cmd3_stop
01:0000691E   _pcAY_cmd4_vibrato
01:00006939   _pcAY_cmd4_vibrato.skip
01:0000693D   _pcAY_cmd4_vibrato.loop
01:00006950   _pcAY_cmd4pos
01:00006956   _pcAY_cmd4pos.skip
01:0000695A   _pcAY_cmd4pos.loop
01:0000695E   _pcAY_cmd4_zero
01:00006968   _pcAY_cmd5_vibrato_port_tone
01:0000696E   _pcAY_cmd6_vibrato_vol
01:00006974   _pcAY_cmd7_vol_slide
01:0000697A   _pcAY_cmdasub
01:0000698F X _pcAY_cmda_dec
01:00006998   _pcAY_cmda_inc
01:000069A1   _pcAY_cmd8_macro_offset
01:000069AC   _pcAY_cmdc_wave_duty
01:000069BE   _pcAY_cmdc_wave_duty.skip
01:000069C7   _wspw_loop_h
01:000069D2   _wspw_loop_l
01:000069D9   _pcAY_cmdd_wave_cut
01:000069ED   _pcAY_cmdd_wave_cut.skip
01:00006A13   _wsc_l
01:00006A1A   _pcAY_cmde_wave_compr
01:00006A2E   _pcAY_cmde_wave_compr.skip
01:00006A4C   _wcomp_loop
01:00006A5E   _wcomp_loop.skip
01:00006A60   _wcomp_loop.loop
01:00006A69   _pcAY_cmd13_short_arp
01:00006A7A   _pcAY_cmd14_fine_up
01:00006A94   _pcAY_cmd15_fine_down
01:00006AAE   _pcAY_cmdXX_note_cut
01:00006ABB   _pcAY_cmd19_note_delay
01:00006ACE   replay_route
01:00006AD5   _comp_loop
01:00006AEE   _ptAY_loop
01:00006B06   _ptAY_noEnv
01:00006B1E   _ptAY_noEnv.skip
01:00006B31   _ptAY_noEnv.skip2
01:00006B44   _ptAY_noEnv.skip3
01:00006B57   _ptAY_noEnv.skip4
01:00006B57   scc_reg_update
01:00006B67   loop
01:00006B6E   loop.skip
01:00006B76   _write_SCC_wave
01:00006B8E   _write_SCC_special
01:00006B93   _wss_l
01:00006B9B   replay_process_morph
01:00006BA8   replay_process_morph.loop
01:00006BAF   replay_process_morph.skip
01:00006BCE   replay_process_morph.skip2
01:00006BD4   replay_process_morph.skip3
01:00006BD6   _rpm_loop
01:00006BE3 X _rpm_larger
01:00006BF1   _rpm_smaller
01:00006C01   _rpm_next_step
01:00006C16   _rpm_next_step.skip
01:00006C1C   _rpm_ns_loop
01:00006C22 X _rmp_ns_sub
01:00006C29   _rmp_ns_sub.skip
01:00006C34   _rmp_ns_add
01:00006C39   _rmp_ns_add.skip
01:00006C42 X FINISH
01:00000040   musbuff
01:0000C000   ttreplayRAM
01:FFFFFFEF   TRACK_Instrument
01:FFFFFFF0   TRACK_Waveform
01:FFFFFFF1   TRACK_Command
01:FFFFFFF2   TRACK_MacroPointer
01:FFFFFFF4   TRACK_MacroStart
01:FFFFFFF6   TRACK_MacroRestart
01:FFFFFFF7   TRACK_Note
01:FFFFFFF8   TRACK_Volume
01:FFFFFFF9   TRACK_Flags
01:FFFFFFFA X TRACK_empty
01:FFFFFFFB   TRACK_ToneAdd
01:FFFFFFFD   TRACK_VolumeAdd
01:FFFFFFFE   TRACK_Noise
01:FFFFFFFF   TRACK_cmd_VolumeAdd
01:00000000   TRACK_cmd_ToneSlideAdd
01:00000002   TRACK_cmd_ToneAdd
01:00000004   TRACK_cmd_detune
01:00000005   TRACK_cmd_0
01:00000006   TRACK_cmd_1
01:00000007   TRACK_cmd_2
01:00000008   TRACK_cmd_3
01:00000009   TRACK_cmd_4_depth
01:0000000A   TRACK_cmd_4_step
01:0000000B   TRACK_cmd_NoteAdd
01:0000000C   TRACK_cmd_A
01:0000000D   TRACK_cmd_B
01:0000000E   TRACK_cmd_E
01:0000000F   TRACK_Timer
01:00000010   TRACK_Step
01:00000011   TRACK_Delay
01:00000012   TRACK_prevDelay
01:00000013   TRACK_Retrig
01:00000014 X TRACK_cmd_A_add
01:00000026   TRACK_REC_SIZE
01:00000000   B_TRGNOT
01:00000001   B_ACTNOT
01:00000002   B_TRGENV
01:00000003   B_TRGCMD
01:00000004   B_ACTMOR
01:00000005 X B_TRGINS
01:00000006   B_TRGWAV
01:00000007   B_PSGSCC
01:0000C000   _SP_Storage
01:0000C001   replay_trigger
01:0000C002   replay_mainPSGvol
01:0000C004   replay_mainSCCvol
01:0000C006   replay_wavebase
01:0000C008   replay_insbase
01:0000C00A   replay_orderpointer
01:0000C00C   replay_speed
01:0000C00D   replay_speed_subtimer
01:0000C00E   replay_speed_timer
01:0000C00F   replay_mode
01:0000C010   replay_fade
01:0000C011   replay_fade_timer
01:0000C012   replay_fade_vol
01:0000C013   replay_previous_note
01:0000C014   replay_mainvol
01:0000C016   replay_vib_table
01:0000C018   replay_Tonetable
01:0000C01A   replay_morph_active
01:0000C01B   replay_morph_timer
01:0000C01C   replay_morph_speed
01:0000C01D   replay_morph_counter
01:0000C01E   replay_morph_buffer
01:0000C05E   replay_morph_waveform
01:0000C05F   TRACK_Chan1
01:0000C085   TRACK_Chan2
01:0000C0AB   TRACK_Chan3
01:0000C0D1   TRACK_Chan4
01:0000C0F7   TRACK_Chan5
01:0000C11D   TRACK_Chan6
01:0000C143   TRACK_Chan7
01:0000C169   TRACK_Chan8
01:0000C18F   TRACK_pointer1
01:0000C191   TRACK_pointer2
01:0000C193   TRACK_pointer3
01:0000C195   TRACK_pointer4
01:0000C197   TRACK_pointer5
01:0000C199   TRACK_pointer6
01:0000C19B   TRACK_pointer7
01:0000C19D   TRACK_pointer8
01:0000C19F   AY_registers
01:0000C19F   AY_regToneA
01:0000C1A1   AY_regToneB
01:0000C1A3   AY_regToneC
01:0000C1A5   AY_regNOISE
01:0000C1A6   AY_regMIXER
01:0000C1A7   AY_regVOLA
01:0000C1A8   AY_regVOLB
01:0000C1A9   AY_regVOLC
01:0000C1AA   AY_regEnvL
01:0000C1AB   AY_regEnvH
01:0000C1AC   AY_regEnvShape
01:0000C1AD   _0x9800
01:0000C1CD X _0x9820
01:0000C1ED X _0x9840
01:0000C20D X _0x9860
01:0000C22D   SCC_registers
01:0000C22D   SCC_regToneA
01:0000C22F   SCC_regToneB
01:0000C231   SCC_regToneC
01:0000C233   SCC_regToneD
01:0000C235   SCC_regToneE
01:0000C237   SCC_regVOLA
01:0000C238   SCC_regVOLB
01:0000C239   SCC_regVOLC
01:0000C23A   SCC_regVOLD
01:0000C23B   SCC_regVOLE
01:0000C23C   SCC_regMIXER
01:0000C23D   oldregs
01:0000C2CD   _levelmap
01:0000CDCD X _cur_level_bf
01:0000D34D   slotvar
01:0000D34E   slotram
01:0000D34F   SEL_NTSC
01:0000D350 X joystick
01:0000D351 X _mcx
01:0000D353 X _mcy
01:0000D355 X _mclx
01:0000D357 X _mcly
01:0000D359   _mcframe
01:0000D35A X _mcstate
01:0000D35B   _mcdx
01:0000D35D X _mcdy
01:0000D35F X _mcprobe
01:0000D360   _mcprobeb
01:0000D361   _ticxframe
01:0000D362   _buffer
01:0000D372   _fps
01:0000D374   _nframes
01:0000D376 X _vbit16
01:0000D378   _ymappos
01:0000D379   _xmappos
01:0000D37B   _levelmap_pos
01:0000D37D X _shadowbuff
01:0000D37F   _currentpage
01:0000D380   _displaypage
01:0000D381   _direction
01:0000D382 X _old_direction
01:0000D383   _xoffset
01:0000D384   _yoffset
01:0000D385   randSeed
01:0000D387   cur_level
01:0000D388   wave_count
01:0000D389   landing_permission
01:0000D38A   assault_wave_timer
01:0000D38C   bullet_rate
01:0000D38D   dxmap
01:0000D38E   xmap
01:0000D390   yship
01:0000D391   xship
01:0000D393   aniframe
01:0000D394   ms_state
01:0000D395   god_mode
01:0000D396 X visible_sprts
00:00000000   enemy_data.y
00:00000001   enemy_data.x
00:00000003   enemy_data.xoff
00:00000004   enemy_data.yoff
00:00000005   enemy_data.xsize
00:00000006   enemy_data.ysize
00:00000007   enemy_data.status
00:00000008   enemy_data.cntr
00:00000009   enemy_data.kind
00:0000000A   enemy_data.frame
00:0000000B   enemy_data.color
00:0000000C   enemy_data.speed
00:0000000E   enemy_data
01:0000D397   any_object
01:0000D397   ms_bullets
01:0000D3C1   enem_bullets
01:0000D3EB   enemies


 Output: main.out
-------------------------------------------------

 Page: 00
  Org: 00004000  Size: *  Used: 00000000

    No output

 Output: urd_scr8.rom
-------------------------------------------------

 Page: 00
  Org: 00004000  Size: 00002000  Used: 00001931

   Address   Length Align   Label
   00004000    6449         search_slot
   00005931    1743       <empty>

 Page: 01
  Org: 00006000  Size: 00002000  Used: 00000C42

   Address   Length Align   Label
   00006000    3138         replay_init
   00006C42    5054       <empty>

 Page: 02
  Org: 00008000  Size: 00002000  Used: 00001800

   Address   Length Align   Label
   00008000    6144         _scorebar
   00009800    2048       <empty>

 Page: 03
  Org: 0000A000  Size: 00002000  Used: 00000000

   0000A000    8192       <empty>

 Page: 04
  Org: 0000A000  Size: 00002000  Used: 00002000

   Address   Length Align   Label
   0000A000    8192         _tiles0

 Page: 05
  Org: 0000A000  Size: 00002000  Used: 00002000

   Address   Length Align   Label
   0000A000    8192         

 Page: 06
  Org: 0000A000  Size: 00002000  Used: 00002000

   Address   Length Align   Label
   0000A000    8192         

 Page: 07
  Org: 0000A000  Size: 00002000  Used: 00002000

   Address   Length Align   Label
   0000A000    8192         

 Page: 08
  Org: 0000A000  Size: 00002000  Used: 00002000

   Address   Length Align   Label
   0000A000    8192         

 Page: 09
  Org: 0000A000  Size: 00002000  Used: 00002000

   Address   Length Align   Label
   0000A000    8192         

 Page: 0A
  Org: 0000A000  Size: 00002000  Used: 00002000

   Address   Length Align   Label
   0000A000    8192         

 Page: 0B
  Org: 0000A000  Size: 00002000  Used: 00001900

   Address   Length Align   Label
   0000A000    6400         
   0000B900    1792       <empty>

 Page: 0C
  Org: 00004000  Size: 00002000  Used: 00000000

   00004000    8192       <empty>

 Page: 0D
  Org: 00006000  Size: 00002000  Used: 00000000

   00006000    8192       <empty>

 Page: 0E
  Org: 00008000  Size: 00002000  Used: 000016B1

   Address   Length Align   Label
   00008000    5809         demo_song
   000096B1    2383       <empty>

 Page: 0F
  Org: 0000A000  Size: 00002000  Used: 00001300

   Address   Length Align   Label
   0000A000    2816         _level
   0000AB00    2048         sprtdata
   0000B300    3328       <empty>
